Certificate:
    Data:
        Version: 3 (0x2)
        Serial Number: 4096 (0x1000)
        Signature Algorithm: sha256WithRSAEncryption
        Issuer: C=FR, ST=IDF, L=Paris, O=Local NODE-OPCUA Certificate Authority, CN=NodeOPCUA-CA
        Validity
            Not Before: Mar 19 02:38:47 2024 GMT
            Not After : Mar 19 02:38:47 2025 GMT
        Subject: C=FR, O=NodeOPCUA, CN=NodeOPCUA
        Subject Public Key Info:
            Public Key Algorithm: rsaEncryption
                Public-Key: (1024 bit)
                Modulus:
                    00:dd:e0:76:1f:7e:d0:0b:6b:65:64:27:79:62:a8:
                    54:a2:fc:9f:49:3e:8f:4a:8d:1e:84:e7:64:ef:78:
                    6c:07:f4:84:da:f9:7a:a2:69:9b:47:0a:59:2c:03:
                    fa:bb:d2:e7:74:df:e9:f5:a2:d4:c8:fa:9e:fc:3a:
                    32:71:b3:0e:0f:29:bb:c4:a7:91:7a:db:6d:98:4f:
                    33:44:45:71:fe:ea:86:be:d6:10:1e:96:77:5b:58:
                    5d:78:15:46:e6:00:d4:53:47:55:7a:aa:d7:ff:dc:
                    88:50:71:e4:b2:21:2c:2e:62:4c:04:2d:fc:9d:75:
                    37:bc:4f:a9:c5:2a:25:e8:31
                Exponent: 65537 (0x10001)
        X509v3 extensions:
            X509v3 Basic Constraints: critical
                CA:FALSE
            X509v3 Subject Key Identifier: 
                97:3D:DB:BB:40:2B:1C:52:C6:DB:11:97:1B:26:94:ED:79:B2:A6:C4
            X509v3 Authority Key Identifier: 
                keyid:40:72:30:66:AE:C7:F9:DB:9A:75:1B:99:FB:53:D6:38:EA:0C:F1:8B
                DirName:/C=FR/ST=IDF/L=Paris/O=Local NODE-OPCUA Certificate Authority/CN=NodeOPCUA-CA
                serial:72:89:60:A3:11:EF:A6:B0:54:AF:4D:2C:23:89:FC:3E:F9:84:93:A9
            X509v3 Subject Alternative Name: 
                URI:urn:e99d5466f7bb:NodeOPCUA-Client, DNS:e99d5466f7bb, IP Address:127.0.0.1
            Netscape Comment: 
                OpenSSL Generated Certificate
            X509v3 Key Usage: critical
                Digital Signature, Non Repudiation, Key Encipherment, Data Encipherment, Key Agreement, Certificate Sign
            X509v3 Extended Key Usage: critical
                TLS Web Server Authentication, TLS Web Client Authentication
    Signature Algorithm: sha256WithRSAEncryption
    Signature Value:
        34:2d:bd:fc:b7:33:30:0a:2b:25:09:70:02:a0:00:b2:55:53:
        5c:1c:43:75:89:88:73:8c:24:c3:b0:f2:5d:cb:dc:78:c9:15:
        e6:e9:80:e6:f4:77:a3:4d:8d:4e:11:34:99:4d:11:5d:da:50:
        1e:84:8b:a5:81:ec:7d:a6:3f:71:51:88:59:d1:2d:91:94:30:
        cd:01:a2:80:6f:1a:d7:83:a4:9a:20:f3:9a:38:17:0b:7a:9c:
        cc:50:a6:a8:22:57:2f:0d:cd:cd:96:cf:32:24:a6:46:0e:73:
        c1:2b:1c:0d:dc:ab:52:e7:1a:74:43:5f:1b:1c:6c:4c:25:ef:
        71:14:7d:bf:f6:8b:e8:29:a8:af:fc:fa:bd:ff:89:64:d4:91:
        d2:45:46:d6:66:62:53:e3:06:2e:9f:58:37:68:b1:ba:23:20:
        ed:42:8b:98:eb:0d:a7:da:58:82:ea:4f:c3:98:6f:5b:bc:ac:
        68:f1:d4:72:8d:9e:05:6f:40:e1:da:5d:c3:90:63:87:1d:96:
        f1:be:4f:7d:1b:dd:b4:b4:49:5f:b5:4a:72:0b:dd:fd:45:01:
        05:9a:ed:98:36:a6:f3:29:af:21:fe:87:d0:d6:0a:21:60:e0:
        1d:b8:8c:56:8e:9c:0a:00:b2:c6:ef:ca:25:6b:70:e6:2b:38:
        b5:ab:f8:0c
-----BEGIN CERTIFICATE-----
MIIEKDCCAxCgAwIBAgICEAAwDQYJKoZIhvcNAQELBQAwczELMAkGA1UEBhMCRlIx
DDAKBgNVBAgTA0lERjEOMAwGA1UEBxMFUGFyaXMxLzAtBgNVBAoTJkxvY2FsIE5P
REUtT1BDVUEgQ2VydGlmaWNhdGUgQXV0aG9yaXR5MRUwEwYDVQQDEwxOb2RlT1BD
VUEtQ0EwHhcNMjQwMzE5MDIzODQ3WhcNMjUwMzE5MDIzODQ3WjA1MQswCQYDVQQG
EwJGUjESMBAGA1UECgwJTm9kZU9QQ1VBMRIwEAYDVQQDDAlOb2RlT1BDVUEwgZ8w
DQYJKoZIhvcNAQEBBQADgY0AMIGJAoGBAN3gdh9+0AtrZWQneWKoVKL8n0k+j0qN
HoTnZO94bAf0hNr5eqJpm0cKWSwD+rvS53Tf6fWi1Mj6nvw6MnGzDg8pu8SnkXrb
bZhPM0RFcf7qhr7WEB6Wd1tYXXgVRuYA1FNHVXqq1//ciFBx5LIhLC5iTAQt/J11
N7xPqcUqJegxAgMBAAGjggGGMIIBgjAMBgNVHRMBAf8EAjAAMB0GA1UdDgQWBBSX
Pdu7QCscUsbbEZcbJpTtebKmxDCBsAYDVR0jBIGoMIGlgBRAcjBmrsf525p1G5n7
U9Y46gzxi6F3pHUwczELMAkGA1UEBhMCRlIxDDAKBgNVBAgTA0lERjEOMAwGA1UE
BxMFUGFyaXMxLzAtBgNVBAoTJkxvY2FsIE5PREUtT1BDVUEgQ2VydGlmaWNhdGUg
QXV0aG9yaXR5MRUwEwYDVQQDEwxOb2RlT1BDVUEtQ0GCFHKJYKMR76awVK9NLCOJ
/D75hJOpMEAGA1UdEQQ5MDeGIXVybjplOTlkNTQ2NmY3YmI6Tm9kZU9QQ1VBLUNs
aWVudIIMZTk5ZDU0NjZmN2JihwR/AAABMCwGCWCGSAGG+EIBDQQfFh1PcGVuU1NM
IEdlbmVyYXRlZCBDZXJ0aWZpY2F0ZTAOBgNVHQ8BAf8EBAMCAvwwIAYDVR0lAQH/
BBYwFAYIKwYBBQUHAwEGCCsGAQUFBwMCMA0GCSqGSIb3DQEBCwUAA4IBAQA0Lb38
tzMwCislCXACoACyVVNcHEN1iYhzjCTDsPJdy9x4yRXm6YDm9HejTY1OETSZTRFd
2lAehIulgex9pj9xUYhZ0S2RlDDNAaKAbxrXg6SaIPOaOBcLepzMUKaoIlcvDc3N
ls8yJKZGDnPBKxwN3KtS5xp0Q18bHGxMJe9xFH2/9ovoKaiv/Pq9/4lk1JHSRUbW
ZmJT4wYun1g3aLG6IyDtQouY6w2n2liC6k/DmG9bvKxo8dRyjZ4Fb0Dh2l3DkGOH
HZbxvk99G920tElftUpyC939RQEFmu2YNqbzKa8h/ofQ1gohYOAduIxWjpwKALLG
78ola3DmKzi1q/gM
-----END CERTIFICATE-----
