Certificate:
    Data:
        Version: 3 (0x2)
        Serial Number: 4097 (0x1001)
        Signature Algorithm: sha256WithRSAEncryption
        Issuer: O=NodeOPCUA, CN=NodeOPCUA
        Validity
            Not Before: Mar 19 02:38:47 2024 GMT
            Not After : Mar 19 02:38:47 2025 GMT
        Subject: O=NodeOPCUA, CN=NodeOPCUA
        Subject Public Key Info:
            Public Key Algorithm: rsaEncryption
                Public-Key: (1024 bit)
                Modulus:
                    00:dd:e0:76:1f:7e:d0:0b:6b:65:64:27:79:62:a8:
                    54:a2:fc:9f:49:3e:8f:4a:8d:1e:84:e7:64:ef:78:
                    6c:07:f4:84:da:f9:7a:a2:69:9b:47:0a:59:2c:03:
                    fa:bb:d2:e7:74:df:e9:f5:a2:d4:c8:fa:9e:fc:3a:
                    32:71:b3:0e:0f:29:bb:c4:a7:91:7a:db:6d:98:4f:
                    33:44:45:71:fe:ea:86:be:d6:10:1e:96:77:5b:58:
                    5d:78:15:46:e6:00:d4:53:47:55:7a:aa:d7:ff:dc:
                    88:50:71:e4:b2:21:2c:2e:62:4c:04:2d:fc:9d:75:
                    37:bc:4f:a9:c5:2a:25:e8:31
                Exponent: 65537 (0x10001)
        X509v3 extensions:
            X509v3 Basic Constraints: critical
                CA:FALSE
            X509v3 Subject Key Identifier: 
                97:3D:DB:BB:40:2B:1C:52:C6:DB:11:97:1B:26:94:ED:79:B2:A6:C4
            X509v3 Authority Key Identifier: 
                DirName:/O=NodeOPCUA/CN=NodeOPCUA
                serial:10:01
            X509v3 Subject Alternative Name: 
                URI:urn:e99d5466f7bb:NodeOPCUA-Client, DNS:e99d5466f7bb
            Netscape Comment: 
                OpenSSL Generated Certificate
            X509v3 Key Usage: critical
                Digital Signature, Non Repudiation, Key Encipherment, Data Encipherment, Key Agreement, Certificate Sign
            X509v3 Extended Key Usage: critical
                TLS Web Server Authentication, TLS Web Client Authentication
    Signature Algorithm: sha256WithRSAEncryption
    Signature Value:
        01:46:8f:23:1c:d8:28:5d:41:a4:36:24:8b:66:3b:d9:7b:51:
        84:13:18:6b:9b:19:af:a7:26:a0:78:a6:f9:b1:af:8c:8a:9d:
        36:61:d4:62:0f:61:4d:ea:cc:23:95:a8:48:42:8b:6d:d9:bd:
        a7:b3:cc:c2:e2:b4:47:18:71:5b:fa:db:90:7c:a4:a5:51:82:
        16:e5:85:3d:c3:69:50:49:9e:b0:36:d9:2e:ac:0c:56:f3:57:
        70:bb:b1:66:6b:e6:b8:35:d4:97:57:bd:c0:53:91:27:62:a9:
        a1:21:e5:a3:32:47:dc:52:74:19:72:c4:44:d4:40:53:e3:ef:
        df:67
-----BEGIN CERTIFICATE-----
MIIC0zCCAjygAwIBAgICEAEwDQYJKoZIhvcNAQELBQAwKDESMBAGA1UEChMJTm9k
ZU9QQ1VBMRIwEAYDVQQDEwlOb2RlT1BDVUEwHhcNMjQwMzE5MDIzODQ3WhcNMjUw
MzE5MDIzODQ3WjAoMRIwEAYDVQQKEwlOb2RlT1BDVUExEjAQBgNVBAMTCU5vZGVP
UENVQTCBnzANBgkqhkiG9w0BAQEFAAOBjQAwgYkCgYEA3eB2H37QC2tlZCd5YqhU
ovyfST6PSo0ehOdk73hsB/SE2vl6ommbRwpZLAP6u9LndN/p9aLUyPqe/DoycbMO
Dym7xKeRetttmE8zREVx/uqGvtYQHpZ3W1hdeBVG5gDUU0dVeqrX/9yIUHHksiEs
LmJMBC38nXU3vE+pxSol6DECAwEAAaOCAQowggEGMAwGA1UdEwEB/wQCMAAwHQYD
VR0OBBYEFJc927tAKxxSxtsRlxsmlO15sqbEMDsGA1UdIwQ0MDKhLKQqMCgxEjAQ
BgNVBAoTCU5vZGVPUENVQTESMBAGA1UEAxMJTm9kZU9QQ1VBggIQATA6BgNVHREE
MzAxhiF1cm46ZTk5ZDU0NjZmN2JiOk5vZGVPUENVQS1DbGllbnSCDGU5OWQ1NDY2
ZjdiYjAsBglghkgBhvhCAQ0EHxYdT3BlblNTTCBHZW5lcmF0ZWQgQ2VydGlmaWNh
dGUwDgYDVR0PAQH/BAQDAgL8MCAGA1UdJQEB/wQWMBQGCCsGAQUFBwMBBggrBgEF
BQcDAjANBgkqhkiG9w0BAQsFAAOBgQABRo8jHNgoXUGkNiSLZjvZe1GEExhrmxmv
pyageKb5sa+Mip02YdRiD2FN6swjlahIQott2b2ns8zC4rRHGHFb+tuQfKSlUYIW
5YU9w2lQSZ6wNtkurAxW81dwu7Fma+a4NdSXV73AU5EnYqmhIeWjMkfcUnQZcsRE
1EBT4+/fZw==
-----END CERTIFICATE-----
