Certificate:
    Data:
        Version: 3 (0x2)
        Serial Number: 4098 (0x1002)
        Signature Algorithm: sha256WithRSAEncryption
        Issuer: C=FR, ST=IDF, L=Paris, O=Local NODE-OPCUA Certificate Authority, CN=NodeOPCUA-CA
        Validity
            Not Before: Mar 21 02:38:47 2022 GMT
            Not After : Mar 21 02:38:47 2023 GMT
        Subject: C=FR, O=NodeOPCUA, CN=NodeOPCUA
        Subject Public Key Info:
            Public Key Algorithm: rsaEncryption
                Public-Key: (1024 bit)
                Modulus:
                    00:dd:e0:76:1f:7e:d0:0b:6b:65:64:27:79:62:a8:
                    54:a2:fc:9f:49:3e:8f:4a:8d:1e:84:e7:64:ef:78:
                    6c:07:f4:84:da:f9:7a:a2:69:9b:47:0a:59:2c:03:
                    fa:bb:d2:e7:74:df:e9:f5:a2:d4:c8:fa:9e:fc:3a:
                    32:71:b3:0e:0f:29:bb:c4:a7:91:7a:db:6d:98:4f:
                    33:44:45:71:fe:ea:86:be:d6:10:1e:96:77:5b:58:
                    5d:78:15:46:e6:00:d4:53:47:55:7a:aa:d7:ff:dc:
                    88:50:71:e4:b2:21:2c:2e:62:4c:04:2d:fc:9d:75:
                    37:bc:4f:a9:c5:2a:25:e8:31
                Exponent: 65537 (0x10001)
        X509v3 extensions:
            X509v3 Basic Constraints: critical
                CA:FALSE
            X509v3 Subject Key Identifier: 
                97:3D:DB:BB:40:2B:1C:52:C6:DB:11:97:1B:26:94:ED:79:B2:A6:C4
            X509v3 Authority Key Identifier: 
                keyid:40:72:30:66:AE:C7:F9:DB:9A:75:1B:99:FB:53:D6:38:EA:0C:F1:8B
                DirName:/C=FR/ST=IDF/L=Paris/O=Local NODE-OPCUA Certificate Authority/CN=NodeOPCUA-CA
                serial:72:89:60:A3:11:EF:A6:B0:54:AF:4D:2C:23:89:FC:3E:F9:84:93:A9
            X509v3 Subject Alternative Name: 
                URI:urn:e99d5466f7bb:NodeOPCUA-Client, DNS:e99d5466f7bb, IP Address:127.0.0.1
            Netscape Comment: 
                OpenSSL Generated Certificate
            X509v3 Key Usage: critical
                Digital Signature, Non Repudiation, Key Encipherment, Data Encipherment, Key Agreement, Certificate Sign
            X509v3 Extended Key Usage: critical
                TLS Web Server Authentication, TLS Web Client Authentication
    Signature Algorithm: sha256WithRSAEncryption
    Signature Value:
        63:fe:1f:9a:e5:65:5d:a4:e5:24:03:02:8d:fc:33:65:ae:5a:
        84:0a:17:fb:02:cc:d2:9b:b7:de:53:87:c1:ab:9f:be:66:a0:
        a2:b8:5d:cf:19:36:f0:3d:29:bf:49:1d:8c:ed:40:0b:de:72:
        b3:bb:c7:e1:2b:e7:da:2f:32:b9:0e:72:1d:0d:a3:57:84:df:
        e0:24:e2:7a:73:1a:56:ee:f0:99:eb:9a:80:6f:84:c2:83:8c:
        85:b8:93:4a:1f:a5:bc:28:40:4b:93:5d:8a:41:d8:a1:3c:6f:
        77:f1:5a:b4:1e:bd:46:38:14:79:4c:3b:cd:77:a8:d1:d5:9c:
        90:61:da:0a:ed:3d:35:9f:8c:97:69:0c:d8:d8:32:33:60:02:
        5f:2e:38:27:e1:82:02:8d:bc:88:6e:15:0e:23:34:25:b4:fd:
        48:e7:6f:38:21:51:01:38:55:c5:0f:4b:c6:e8:a8:31:ff:b9:
        cc:12:b1:50:48:e0:ca:de:8f:d7:92:d3:a3:bb:a4:df:1d:25:
        bc:2c:a7:04:2a:68:7e:6d:48:70:7b:14:f7:d6:ec:e9:65:52:
        16:68:24:a7:fd:49:3f:11:93:9f:7e:7b:33:b4:6a:00:13:40:
        60:07:e0:58:ba:5d:e1:e5:ea:9a:06:a7:34:0b:1d:d5:ee:ca:
        6e:25:c9:59
-----BEGIN CERTIFICATE-----
MIIEKDCCAxCgAwIBAgICEAIwDQYJKoZIhvcNAQELBQAwczELMAkGA1UEBhMCRlIx
DDAKBgNVBAgTA0lERjEOMAwGA1UEBxMFUGFyaXMxLzAtBgNVBAoTJkxvY2FsIE5P
REUtT1BDVUEgQ2VydGlmaWNhdGUgQXV0aG9yaXR5MRUwEwYDVQQDEwxOb2RlT1BD
VUEtQ0EwHhcNMjIwMzIxMDIzODQ3WhcNMjMwMzIxMDIzODQ3WjA1MQswCQYDVQQG
EwJGUjESMBAGA1UECgwJTm9kZU9QQ1VBMRIwEAYDVQQDDAlOb2RlT1BDVUEwgZ8w
DQYJKoZIhvcNAQEBBQADgY0AMIGJAoGBAN3gdh9+0AtrZWQneWKoVKL8n0k+j0qN
HoTnZO94bAf0hNr5eqJpm0cKWSwD+rvS53Tf6fWi1Mj6nvw6MnGzDg8pu8SnkXrb
bZhPM0RFcf7qhr7WEB6Wd1tYXXgVRuYA1FNHVXqq1//ciFBx5LIhLC5iTAQt/J11
N7xPqcUqJegxAgMBAAGjggGGMIIBgjAMBgNVHRMBAf8EAjAAMB0GA1UdDgQWBBSX
Pdu7QCscUsbbEZcbJpTtebKmxDCBsAYDVR0jBIGoMIGlgBRAcjBmrsf525p1G5n7
U9Y46gzxi6F3pHUwczELMAkGA1UEBhMCRlIxDDAKBgNVBAgTA0lERjEOMAwGA1UE
BxMFUGFyaXMxLzAtBgNVBAoTJkxvY2FsIE5PREUtT1BDVUEgQ2VydGlmaWNhdGUg
QXV0aG9yaXR5MRUwEwYDVQQDEwxOb2RlT1BDVUEtQ0GCFHKJYKMR76awVK9NLCOJ
/D75hJOpMEAGA1UdEQQ5MDeGIXVybjplOTlkNTQ2NmY3YmI6Tm9kZU9QQ1VBLUNs
aWVudIIMZTk5ZDU0NjZmN2JihwR/AAABMCwGCWCGSAGG+EIBDQQfFh1PcGVuU1NM
IEdlbmVyYXRlZCBDZXJ0aWZpY2F0ZTAOBgNVHQ8BAf8EBAMCAvwwIAYDVR0lAQH/
BBYwFAYIKwYBBQUHAwEGCCsGAQUFBwMCMA0GCSqGSIb3DQEBCwUAA4IBAQBj/h+a
5WVdpOUkAwKN/DNlrlqEChf7AszSm7feU4fBq5++ZqCiuF3PGTbwPSm/SR2M7UAL
3nKzu8fhK+faLzK5DnIdDaNXhN/gJOJ6cxpW7vCZ65qAb4TCg4yFuJNKH6W8KEBL
k12KQdihPG938Vq0Hr1GOBR5TDvNd6jR1ZyQYdoK7T01n4yXaQzY2DIzYAJfLjgn
4YICjbyIbhUOIzQltP1I5284IVEBOFXFD0vG6Kgx/7nMErFQSODK3o/XktOju6Tf
HSW8LKcEKmh+bUhwexT31uzpZVIWaCSn/Uk/EZOffnsztGoAE0BgB+BYul3h5eqa
Bqc0Cx3V7spuJclZ
-----END CERTIFICATE-----
