Certificate:
    Data:
        Version: 3 (0x2)
        Serial Number: 4099 (0x1003)
        Signature Algorithm: sha256WithRSAEncryption
        Issuer: C=FR, ST=IDF, L=Paris, O=Local NODE-OPCUA Certificate Authority, CN=NodeOPCUA-CA
        Validity
            Not Before: Mar 20 02:38:47 2025 GMT
            Not After : Mar 20 02:38:47 2026 GMT
        Subject: C=FR, O=NodeOPCUA, CN=NodeOPCUA
        Subject Public Key Info:
            Public Key Algorithm: rsaEncryption
                Public-Key: (1024 bit)
                Modulus:
                    00:dd:e0:76:1f:7e:d0:0b:6b:65:64:27:79:62:a8:
                    54:a2:fc:9f:49:3e:8f:4a:8d:1e:84:e7:64:ef:78:
                    6c:07:f4:84:da:f9:7a:a2:69:9b:47:0a:59:2c:03:
                    fa:bb:d2:e7:74:df:e9:f5:a2:d4:c8:fa:9e:fc:3a:
                    32:71:b3:0e:0f:29:bb:c4:a7:91:7a:db:6d:98:4f:
                    33:44:45:71:fe:ea:86:be:d6:10:1e:96:77:5b:58:
                    5d:78:15:46:e6:00:d4:53:47:55:7a:aa:d7:ff:dc:
                    88:50:71:e4:b2:21:2c:2e:62:4c:04:2d:fc:9d:75:
                    37:bc:4f:a9:c5:2a:25:e8:31
                Exponent: 65537 (0x10001)
        X509v3 extensions:
            X509v3 Basic Constraints: critical
                CA:FALSE
            X509v3 Subject Key Identifier: 
                97:3D:DB:BB:40:2B:1C:52:C6:DB:11:97:1B:26:94:ED:79:B2:A6:C4
            X509v3 Authority Key Identifier: 
                keyid:40:72:30:66:AE:C7:F9:DB:9A:75:1B:99:FB:53:D6:38:EA:0C:F1:8B
                DirName:/C=FR/ST=IDF/L=Paris/O=Local NODE-OPCUA Certificate Authority/CN=NodeOPCUA-CA
                serial:72:89:60:A3:11:EF:A6:B0:54:AF:4D:2C:23:89:FC:3E:F9:84:93:A9
            X509v3 Subject Alternative Name: 
                URI:urn:e99d5466f7bb:NodeOPCUA-Client, DNS:e99d5466f7bb, IP Address:127.0.0.1
            Netscape Comment: 
                OpenSSL Generated Certificate
            X509v3 Key Usage: critical
                Digital Signature, Non Repudiation, Key Encipherment, Data Encipherment, Key Agreement, Certificate Sign
            X509v3 Extended Key Usage: critical
                TLS Web Server Authentication, TLS Web Client Authentication
    Signature Algorithm: sha256WithRSAEncryption
    Signature Value:
        19:6d:9b:82:46:a5:2f:40:51:2a:9e:1e:1e:40:e1:b5:70:e8:
        8b:17:a5:c6:89:59:1a:1d:42:cd:d0:64:c2:4d:63:f3:c2:3a:
        c1:0d:ef:92:a5:36:0d:1d:3f:b2:65:0d:fb:1c:12:e1:81:83:
        62:85:7a:06:05:49:7f:ca:a4:65:8f:a5:7c:d7:b9:dd:66:68:
        ee:2e:ee:87:73:0b:7c:d8:b3:5f:f1:ce:c9:79:03:1c:b4:e9:
        33:f1:b6:48:8b:1e:3c:10:a6:5a:d3:e2:dd:51:aa:79:0c:00:
        b8:5c:ca:a2:ee:48:58:b8:d8:01:f4:67:15:6e:25:83:71:70:
        e4:77:54:59:6e:bd:94:6c:05:03:ce:ca:ba:79:cf:b6:a3:a5:
        3a:ff:7b:d1:de:21:2a:c9:11:3b:2c:55:80:dc:bc:2c:1f:03:
        18:49:87:a6:63:bc:d3:c8:65:55:6e:a5:6f:14:16:b8:7b:02:
        bf:a9:b8:7d:7a:cd:f0:72:bd:1c:0e:ee:ee:f0:e4:ba:09:ba:
        7f:8d:dc:29:af:d4:d7:2c:8c:42:11:07:b7:66:53:f3:81:3f:
        b8:7d:91:3d:da:ca:3a:22:c9:25:f8:68:a9:bb:bc:04:b6:e3:
        ed:85:33:db:c9:b5:7b:c6:b9:46:45:53:7f:9e:c2:b9:19:08:
        ca:6a:f8:b2
-----BEGIN CERTIFICATE-----
MIIEKDCCAxCgAwIBAgICEAMwDQYJKoZIhvcNAQELBQAwczELMAkGA1UEBhMCRlIx
DDAKBgNVBAgTA0lERjEOMAwGA1UEBxMFUGFyaXMxLzAtBgNVBAoTJkxvY2FsIE5P
REUtT1BDVUEgQ2VydGlmaWNhdGUgQXV0aG9yaXR5MRUwEwYDVQQDEwxOb2RlT1BD
VUEtQ0EwHhcNMjUwMzIwMDIzODQ3WhcNMjYwMzIwMDIzODQ3WjA1MQswCQYDVQQG
EwJGUjESMBAGA1UECgwJTm9kZU9QQ1VBMRIwEAYDVQQDDAlOb2RlT1BDVUEwgZ8w
DQYJKoZIhvcNAQEBBQADgY0AMIGJAoGBAN3gdh9+0AtrZWQneWKoVKL8n0k+j0qN
HoTnZO94bAf0hNr5eqJpm0cKWSwD+rvS53Tf6fWi1Mj6nvw6MnGzDg8pu8SnkXrb
bZhPM0RFcf7qhr7WEB6Wd1tYXXgVRuYA1FNHVXqq1//ciFBx5LIhLC5iTAQt/J11
N7xPqcUqJegxAgMBAAGjggGGMIIBgjAMBgNVHRMBAf8EAjAAMB0GA1UdDgQWBBSX
Pdu7QCscUsbbEZcbJpTtebKmxDCBsAYDVR0jBIGoMIGlgBRAcjBmrsf525p1G5n7
U9Y46gzxi6F3pHUwczELMAkGA1UEBhMCRlIxDDAKBgNVBAgTA0lERjEOMAwGA1UE
BxMFUGFyaXMxLzAtBgNVBAoTJkxvY2FsIE5PREUtT1BDVUEgQ2VydGlmaWNhdGUg
QXV0aG9yaXR5MRUwEwYDVQQDEwxOb2RlT1BDVUEtQ0GCFHKJYKMR76awVK9NLCOJ
/D75hJOpMEAGA1UdEQQ5MDeGIXVybjplOTlkNTQ2NmY3YmI6Tm9kZU9QQ1VBLUNs
aWVudIIMZTk5ZDU0NjZmN2JihwR/AAABMCwGCWCGSAGG+EIBDQQfFh1PcGVuU1NM
IEdlbmVyYXRlZCBDZXJ0aWZpY2F0ZTAOBgNVHQ8BAf8EBAMCAvwwIAYDVR0lAQH/
BBYwFAYIKwYBBQUHAwEGCCsGAQUFBwMCMA0GCSqGSIb3DQEBCwUAA4IBAQAZbZuC
RqUvQFEqnh4eQOG1cOiLF6XGiVkaHULN0GTCTWPzwjrBDe+SpTYNHT+yZQ37HBLh
gYNihXoGBUl/yqRlj6V817ndZmjuLu6Hcwt82LNf8c7JeQMctOkz8bZIix48EKZa
0+LdUap5DAC4XMqi7khYuNgB9GcVbiWDcXDkd1RZbr2UbAUDzsq6ec+2o6U6/3vR
3iEqyRE7LFWA3LwsHwMYSYemY7zTyGVVbqVvFBa4ewK/qbh9es3wcr0cDu7u8OS6
Cbp/jdwpr9TXLIxCEQe3ZlPzgT+4fZE92so6Iskl+Gipu7wEtuPthTPbybV7xrlG
RVN/nsK5GQjKaviy
-----END CERTIFICATE-----
