Certificate:
    Data:
        Version: 3 (0x2)
        Serial Number: 4100 (0x1004)
        Signature Algorithm: sha256WithRSAEncryption
        Issuer: C=FR, ST=IDF, L=Paris, O=Local NODE-OPCUA Certificate Authority, CN=NodeOPCUA-CA
        Validity
            Not Before: Mar 19 02:38:47 2024 GMT
            Not After : Mar 19 02:38:47 2025 GMT
        Subject: C=FR, O=NodeOPCUA, CN=NodeOPCUA
        Subject Public Key Info:
            Public Key Algorithm: rsaEncryption
                Public-Key: (1024 bit)
                Modulus:
                    00:dd:e0:76:1f:7e:d0:0b:6b:65:64:27:79:62:a8:
                    54:a2:fc:9f:49:3e:8f:4a:8d:1e:84:e7:64:ef:78:
                    6c:07:f4:84:da:f9:7a:a2:69:9b:47:0a:59:2c:03:
                    fa:bb:d2:e7:74:df:e9:f5:a2:d4:c8:fa:9e:fc:3a:
                    32:71:b3:0e:0f:29:bb:c4:a7:91:7a:db:6d:98:4f:
                    33:44:45:71:fe:ea:86:be:d6:10:1e:96:77:5b:58:
                    5d:78:15:46:e6:00:d4:53:47:55:7a:aa:d7:ff:dc:
                    88:50:71:e4:b2:21:2c:2e:62:4c:04:2d:fc:9d:75:
                    37:bc:4f:a9:c5:2a:25:e8:31
                Exponent: 65537 (0x10001)
        X509v3 extensions:
            X509v3 Basic Constraints: critical
                CA:FALSE
            X509v3 Subject Key Identifier: 
                97:3D:DB:BB:40:2B:1C:52:C6:DB:11:97:1B:26:94:ED:79:B2:A6:C4
            X509v3 Authority Key Identifier: 
                keyid:40:72:30:66:AE:C7:F9:DB:9A:75:1B:99:FB:53:D6:38:EA:0C:F1:8B
                DirName:/C=FR/ST=IDF/L=Paris/O=Local NODE-OPCUA Certificate Authority/CN=NodeOPCUA-CA
                serial:72:89:60:A3:11:EF:A6:B0:54:AF:4D:2C:23:89:FC:3E:F9:84:93:A9
            X509v3 Subject Alternative Name: 
                URI:urn:e99d5466f7bb:NodeOPCUA-ClientRevoked, DNS:e99d5466f7bb, IP Address:127.0.0.1
            Netscape Comment: 
                OpenSSL Generated Certificate
            X509v3 Key Usage: critical
                Digital Signature, Non Repudiation, Key Encipherment, Data Encipherment, Key Agreement, Certificate Sign
            X509v3 Extended Key Usage: critical
                TLS Web Server Authentication, TLS Web Client Authentication
    Signature Algorithm: sha256WithRSAEncryption
    Signature Value:
        62:23:6b:56:6e:9e:e6:9e:11:25:fc:59:15:73:7f:8e:d7:c4:
        d4:a3:03:47:6b:d9:2f:c9:f0:d2:9d:cf:89:4a:b3:5b:81:d2:
        27:c9:4e:bf:9f:c8:50:76:56:cd:85:60:da:51:80:2d:a8:e2:
        e8:42:b9:09:a2:7f:32:fa:b0:58:b9:44:be:da:6d:2c:f7:c3:
        e2:53:6a:20:ab:89:a7:5e:16:66:34:61:89:af:df:2a:cc:0b:
        24:e6:c0:64:33:88:4d:47:c2:4c:10:b1:4e:27:d2:bf:f3:72:
        2c:bc:a0:12:15:36:df:58:51:4c:95:74:a3:28:3e:10:98:8a:
        99:08:45:75:35:2d:6b:98:40:6b:19:b7:be:c6:7e:84:8a:3e:
        60:ac:77:7c:6e:b9:80:82:5a:cd:36:7a:2d:4b:52:99:38:56:
        b1:ae:51:5c:d7:07:9d:97:3d:e6:35:ee:06:04:d7:04:1e:9a:
        b2:6f:75:e4:82:47:f8:86:03:ff:c4:b3:30:f0:d4:4d:bd:18:
        52:32:83:63:3d:34:42:08:7b:97:b6:97:61:ad:4d:28:d4:7c:
        f9:52:49:2d:f7:3b:a2:24:92:2d:ab:ea:7a:b0:3e:d8:2a:31:
        3a:6a:23:28:f9:89:89:58:02:8a:89:f8:3f:8b:51:a2:8d:37:
        95:09:43:00
-----BEGIN CERTIFICATE-----
MIIELzCCAxegAwIBAgICEAQwDQYJKoZIhvcNAQELBQAwczELMAkGA1UEBhMCRlIx
DDAKBgNVBAgTA0lERjEOMAwGA1UEBxMFUGFyaXMxLzAtBgNVBAoTJkxvY2FsIE5P
REUtT1BDVUEgQ2VydGlmaWNhdGUgQXV0aG9yaXR5MRUwEwYDVQQDEwxOb2RlT1BD
VUEtQ0EwHhcNMjQwMzE5MDIzODQ3WhcNMjUwMzE5MDIzODQ3WjA1MQswCQYDVQQG
EwJGUjESMBAGA1UECgwJTm9kZU9QQ1VBMRIwEAYDVQQDDAlOb2RlT1BDVUEwgZ8w
DQYJKoZIhvcNAQEBBQADgY0AMIGJAoGBAN3gdh9+0AtrZWQneWKoVKL8n0k+j0qN
HoTnZO94bAf0hNr5eqJpm0cKWSwD+rvS53Tf6fWi1Mj6nvw6MnGzDg8pu8SnkXrb
bZhPM0RFcf7qhr7WEB6Wd1tYXXgVRuYA1FNHVXqq1//ciFBx5LIhLC5iTAQt/J11
N7xPqcUqJegxAgMBAAGjggGNMIIBiTAMBgNVHRMBAf8EAjAAMB0GA1UdDgQWBBSX
Pdu7QCscUsbbEZcbJpTtebKmxDCBsAYDVR0jBIGoMIGlgBRAcjBmrsf525p1G5n7
U9Y46gzxi6F3pHUwczELMAkGA1UEBhMCRlIxDDAKBgNVBAgTA0lERjEOMAwGA1UE
BxMFUGFyaXMxLzAtBgNVBAoTJkxvY2FsIE5PREUtT1BDVUEgQ2VydGlmaWNhdGUg
QXV0aG9yaXR5MRUwEwYDVQQDEwxOb2RlT1BDVUEtQ0GCFHKJYKMR76awVK9NLCOJ
/D75hJOpMEcGA1UdEQRAMD6GKHVybjplOTlkNTQ2NmY3YmI6Tm9kZU9QQ1VBLUNs
aWVudFJldm9rZWSCDGU5OWQ1NDY2ZjdiYocEfwAAATAsBglghkgBhvhCAQ0EHxYd
T3BlblNTTCBHZW5lcmF0ZWQgQ2VydGlmaWNhdGUwDgYDVR0PAQH/BAQDAgL8MCAG
A1UdJQEB/wQWMBQGCCsGAQUFBwMBBggrBgEFBQcDAjANBgkqhkiG9w0BAQsFAAOC
AQEAYiNrVm6e5p4RJfxZFXN/jtfE1KMDR2vZL8nw0p3PiUqzW4HSJ8lOv5/IUHZW
zYVg2lGALaji6EK5CaJ/MvqwWLlEvtptLPfD4lNqIKuJp14WZjRhia/fKswLJObA
ZDOITUfCTBCxTifSv/NyLLygEhU231hRTJV0oyg+EJiKmQhFdTUta5hAaxm3vsZ+
hIo+YKx3fG65gIJazTZ6LUtSmThWsa5RXNcHnZc95jXuBgTXBB6asm915IJH+IYD
/8SzMPDUTb0YUjKDYz00Qgh7l7aXYa1NKNR8+VJJLfc7oiSSLavqerA+2CoxOmoj
KPmJiVgCion4P4tRoo03lQlDAA==
-----END CERTIFICATE-----
