Certificate:
    Data:
        Version: 3 (0x2)
        Serial Number: 4101 (0x1005)
        Signature Algorithm: sha256WithRSAEncryption
        Issuer: C=FR, ST=IDF, L=Paris, O=Local NODE-OPCUA Certificate Authority, CN=NodeOPCUA-CA
        Validity
            Not Before: Mar 19 02:38:47 2024 GMT
            Not After : Mar 19 02:38:47 2025 GMT
        Subject: C=FR, O=NodeOPCUA, CN=NodeOPCUA
        Subject Public Key Info:
            Public Key Algorithm: rsaEncryption
                Public-Key: (2048 bit)
                Modulus:
                    00:b1:70:03:c9:82:b1:db:f4:fb:4d:36:ce:c6:5e:
                    1b:72:87:74:bd:06:ec:3d:27:bc:84:e4:fc:eb:5d:
                    71:4b:82:1c:8b:d3:bb:27:4d:6e:96:ab:8d:10:34:
                    53:3d:28:a0:67:f7:43:d0:94:f2:54:12:f1:71:1d:
                    68:e8:99:ab:30:c6:0f:4b:17:12:09:71:cd:3b:66:
                    5c:d7:4a:4b:2e:1d:de:84:51:3d:65:19:18:4a:a7:
                    73:5d:f0:b1:20:9e:6d:0e:76:38:1e:28:0a:c3:32:
                    d5:95:46:83:03:83:55:fe:ab:f1:b3:9c:9f:bd:99:
                    1e:37:93:c1:c1:12:bb:cf:45:1e:44:07:0d:cb:83:
                    11:40:93:e4:4b:97:33:b6:17:a9:8c:aa:70:a6:1f:
                    6b:11:70:03:22:f2:41:09:0d:e6:a0:26:94:15:4b:
                    79:f1:50:56:a1:b0:b0:23:9b:7f:13:13:f4:0f:55:
                    02:ac:4e:cb:12:cf:92:2e:7a:a8:82:b5:85:2f:82:
                    1e:fb:69:b7:98:fa:f1:89:0d:14:b5:1b:43:bf:c6:
                    2e:31:6f:a8:b4:52:24:f2:5c:96:fa:92:44:04:97:
                    2b:5b:92:b2:2b:4c:bb:56:97:2f:ec:e1:c7:62:7b:
                    04:88:9e:2b:95:42:78:3f:2a:d9:59:bf:60:e4:4d:
                    2d:e5
                Exponent: 65537 (0x10001)
        X509v3 extensions:
            X509v3 Basic Constraints: critical
                CA:FALSE
            X509v3 Subject Key Identifier: 
                AF:E6:00:89:A1:0F:6F:B1:05:E1:68:6E:6C:2D:CA:8C:1B:62:D2:55
            X509v3 Authority Key Identifier: 
                keyid:40:72:30:66:AE:C7:F9:DB:9A:75:1B:99:FB:53:D6:38:EA:0C:F1:8B
                DirName:/C=FR/ST=IDF/L=Paris/O=Local NODE-OPCUA Certificate Authority/CN=NodeOPCUA-CA
                serial:72:89:60:A3:11:EF:A6:B0:54:AF:4D:2C:23:89:FC:3E:F9:84:93:A9
            X509v3 Subject Alternative Name: 
                URI:urn:e99d5466f7bb:NodeOPCUA-Client, DNS:e99d5466f7bb, IP Address:127.0.0.1
            Netscape Comment: 
                OpenSSL Generated Certificate
            X509v3 Key Usage: critical
                Digital Signature, Non Repudiation, Key Encipherment, Data Encipherment, Key Agreement, Certificate Sign
            X509v3 Extended Key Usage: critical
                TLS Web Server Authentication, TLS Web Client Authentication
    Signature Algorithm: sha256WithRSAEncryption
    Signature Value:
        55:4f:76:d3:2d:99:1b:66:1a:f2:cb:78:27:da:95:89:39:14:
        0a:5a:93:da:9f:c7:c9:3f:65:2a:38:8a:b8:0e:f8:dd:47:ab:
        e4:a6:b6:1d:1d:ab:1e:01:09:41:3d:70:9c:d5:e7:86:71:10:
        16:35:00:ad:da:26:3a:09:ff:73:c9:e4:29:e0:3d:c4:65:81:
        c3:cb:1d:62:48:2a:f2:99:e4:54:c2:8f:db:6d:db:a4:a8:b0:
        f9:35:0f:ea:35:31:f5:5b:23:56:8c:37:32:54:80:68:74:6b:
        4c:5b:f3:51:7e:ca:ce:41:56:e1:df:be:be:11:95:2f:92:45:
        df:8c:c7:5b:9e:d7:08:94:ae:fe:c5:b6:63:2b:47:ae:ea:85:
        fd:c7:cd:30:40:5c:53:e2:db:fa:8c:6d:a7:da:51:c4:64:c0:
        aa:3c:ac:17:c4:0a:d3:15:83:e4:91:b1:48:bd:e4:f0:64:b1:
        86:2b:d8:69:3f:3b:ea:a2:a5:ae:fb:7d:eb:bd:6e:3d:ef:33:
        65:c8:c9:e3:27:da:8c:90:24:8b:23:8d:01:16:55:15:cf:cc:
        4d:59:42:81:0f:11:d7:9d:e7:22:0e:ef:18:13:37:52:43:e9:
        e8:41:54:ca:b3:b8:cc:49:4d:85:07:e1:79:ad:ec:a2:39:c7:
        00:05:05:bc
-----BEGIN CERTIFICATE-----
MIIErDCCA5SgAwIBAgICEAUwDQYJKoZIhvcNAQELBQAwczELMAkGA1UEBhMCRlIx
DDAKBgNVBAgTA0lERjEOMAwGA1UEBxMFUGFyaXMxLzAtBgNVBAoTJkxvY2FsIE5P
REUtT1BDVUEgQ2VydGlmaWNhdGUgQXV0aG9yaXR5MRUwEwYDVQQDEwxOb2RlT1BD
VUEtQ0EwHhcNMjQwMzE5MDIzODQ3WhcNMjUwMzE5MDIzODQ3WjA1MQswCQYDVQQG
EwJGUjESMBAGA1UECgwJTm9kZU9QQ1VBMRIwEAYDVQQDDAlOb2RlT1BDVUEwggEi
MA0GCSqGSIb3DQEBAQUAA4IBDwAwggEKAoIBAQCxcAPJgrHb9PtNNs7GXhtyh3S9
Buw9J7yE5PzrXXFLghyL07snTW6Wq40QNFM9KKBn90PQlPJUEvFxHWjomaswxg9L
FxIJcc07ZlzXSksuHd6EUT1lGRhKp3Nd8LEgnm0OdjgeKArDMtWVRoMDg1X+q/Gz
nJ+9mR43k8HBErvPRR5EBw3LgxFAk+RLlzO2F6mMqnCmH2sRcAMi8kEJDeagJpQV
S3nxUFahsLAjm38TE/QPVQKsTssSz5IueqiCtYUvgh77abeY+vGJDRS1G0O/xi4x
b6i0UiTyXJb6kkQElytbkrIrTLtWly/s4cdiewSIniuVQng/KtlZv2DkTS3lAgMB
AAGjggGGMIIBgjAMBgNVHRMBAf8EAjAAMB0GA1UdDgQWBBSv5gCJoQ9vsQXhaG5s
LcqMG2LSVTCBsAYDVR0jBIGoMIGlgBRAcjBmrsf525p1G5n7U9Y46gzxi6F3pHUw
czELMAkGA1UEBhMCRlIxDDAKBgNVBAgTA0lERjEOMAwGA1UEBxMFUGFyaXMxLzAt
BgNVBAoTJkxvY2FsIE5PREUtT1BDVUEgQ2VydGlmaWNhdGUgQXV0aG9yaXR5MRUw
EwYDVQQDEwxOb2RlT1BDVUEtQ0GCFHKJYKMR76awVK9NLCOJ/D75hJOpMEAGA1Ud
EQQ5MDeGIXVybjplOTlkNTQ2NmY3YmI6Tm9kZU9QQ1VBLUNsaWVudIIMZTk5ZDU0
NjZmN2JihwR/AAABMCwGCWCGSAGG+EIBDQQfFh1PcGVuU1NMIEdlbmVyYXRlZCBD
ZXJ0aWZpY2F0ZTAOBgNVHQ8BAf8EBAMCAvwwIAYDVR0lAQH/BBYwFAYIKwYBBQUH
AwEGCCsGAQUFBwMCMA0GCSqGSIb3DQEBCwUAA4IBAQBVT3bTLZkbZhryy3gn2pWJ
ORQKWpPan8fJP2UqOIq4DvjdR6vkprYdHaseAQlBPXCc1eeGcRAWNQCt2iY6Cf9z
yeQp4D3EZYHDyx1iSCrymeRUwo/bbdukqLD5NQ/qNTH1WyNWjDcyVIBodGtMW/NR
fsrOQVbh376+EZUvkkXfjMdbntcIlK7+xbZjK0eu6oX9x80wQFxT4tv6jG2n2lHE
ZMCqPKwXxArTFYPkkbFIveTwZLGGK9hpPzvqoqWu+33rvW497zNlyMnjJ9qMkCSL
I40BFlUVz8xNWUKBDxHXneciDu8YEzdSQ+noQVTKs7jMSU2FB+F5reyiOccABQW8
-----END CERTIFICATE-----
