Certificate:
    Data:
        Version: 3 (0x2)
        Serial Number: 4103 (0x1007)
        Signature Algorithm: sha256WithRSAEncryption
        Issuer: C=FR, ST=IDF, L=Paris, O=Local NODE-OPCUA Certificate Authority, CN=NodeOPCUA-CA
        Validity
            Not Before: Mar 21 02:38:47 2022 GMT
            Not After : Mar 21 02:38:47 2023 GMT
        Subject: C=FR, O=NodeOPCUA, CN=NodeOPCUA
        Subject Public Key Info:
            Public Key Algorithm: rsaEncryption
                Public-Key: (2048 bit)
                Modulus:
                    00:b1:70:03:c9:82:b1:db:f4:fb:4d:36:ce:c6:5e:
                    1b:72:87:74:bd:06:ec:3d:27:bc:84:e4:fc:eb:5d:
                    71:4b:82:1c:8b:d3:bb:27:4d:6e:96:ab:8d:10:34:
                    53:3d:28:a0:67:f7:43:d0:94:f2:54:12:f1:71:1d:
                    68:e8:99:ab:30:c6:0f:4b:17:12:09:71:cd:3b:66:
                    5c:d7:4a:4b:2e:1d:de:84:51:3d:65:19:18:4a:a7:
                    73:5d:f0:b1:20:9e:6d:0e:76:38:1e:28:0a:c3:32:
                    d5:95:46:83:03:83:55:fe:ab:f1:b3:9c:9f:bd:99:
                    1e:37:93:c1:c1:12:bb:cf:45:1e:44:07:0d:cb:83:
                    11:40:93:e4:4b:97:33:b6:17:a9:8c:aa:70:a6:1f:
                    6b:11:70:03:22:f2:41:09:0d:e6:a0:26:94:15:4b:
                    79:f1:50:56:a1:b0:b0:23:9b:7f:13:13:f4:0f:55:
                    02:ac:4e:cb:12:cf:92:2e:7a:a8:82:b5:85:2f:82:
                    1e:fb:69:b7:98:fa:f1:89:0d:14:b5:1b:43:bf:c6:
                    2e:31:6f:a8:b4:52:24:f2:5c:96:fa:92:44:04:97:
                    2b:5b:92:b2:2b:4c:bb:56:97:2f:ec:e1:c7:62:7b:
                    04:88:9e:2b:95:42:78:3f:2a:d9:59:bf:60:e4:4d:
                    2d:e5
                Exponent: 65537 (0x10001)
        X509v3 extensions:
            X509v3 Basic Constraints: critical
                CA:FALSE
            X509v3 Subject Key Identifier: 
                AF:E6:00:89:A1:0F:6F:B1:05:E1:68:6E:6C:2D:CA:8C:1B:62:D2:55
            X509v3 Authority Key Identifier: 
                keyid:40:72:30:66:AE:C7:F9:DB:9A:75:1B:99:FB:53:D6:38:EA:0C:F1:8B
                DirName:/C=FR/ST=IDF/L=Paris/O=Local NODE-OPCUA Certificate Authority/CN=NodeOPCUA-CA
                serial:72:89:60:A3:11:EF:A6:B0:54:AF:4D:2C:23:89:FC:3E:F9:84:93:A9
            X509v3 Subject Alternative Name: 
                URI:urn:e99d5466f7bb:NodeOPCUA-Client, DNS:e99d5466f7bb, IP Address:127.0.0.1
            Netscape Comment: 
                OpenSSL Generated Certificate
            X509v3 Key Usage: critical
                Digital Signature, Non Repudiation, Key Encipherment, Data Encipherment, Key Agreement, Certificate Sign
            X509v3 Extended Key Usage: critical
                TLS Web Server Authentication, TLS Web Client Authentication
    Signature Algorithm: sha256WithRSAEncryption
    Signature Value:
        24:bd:35:5b:2a:91:e3:80:0a:90:d7:b7:8e:a5:95:a5:ab:d6:
        e0:b3:b2:d6:e3:85:cf:c4:2f:e4:5c:b6:48:76:4b:6c:7b:58:
        9b:eb:55:27:34:30:21:57:2a:be:d4:05:d9:8e:7f:d6:0a:f8:
        9c:ee:9c:a1:89:dc:fb:36:02:d0:53:fd:6f:83:69:48:a7:33:
        ef:c5:69:64:0d:6e:2e:9a:71:58:e2:b4:7a:90:bd:45:3e:73:
        1d:e0:70:3b:e3:a7:d7:03:df:2b:d2:24:b3:66:0a:50:68:c4:
        34:39:4c:3e:4f:5d:2c:4b:4d:9a:59:c0:46:88:b5:e4:46:36:
        bb:11:5f:92:03:25:33:03:bc:a2:eb:a0:a2:75:c2:ab:d2:2d:
        fe:69:a5:7c:84:02:2a:14:b1:49:a2:38:fd:c3:10:6c:7f:a8:
        45:72:db:c7:d7:cf:90:b7:41:a8:71:be:f2:4f:00:6d:51:4b:
        33:10:06:09:86:e6:02:c8:df:b8:6e:34:7a:1f:57:a7:c0:c2:
        63:30:29:4f:69:4d:3e:86:77:0d:4f:bd:fc:56:89:ea:2f:b3:
        c3:7b:78:99:76:29:b4:28:1b:ed:c7:39:15:a8:af:aa:fa:a3:
        56:69:eb:47:62:8b:73:40:fc:65:80:90:32:dd:21:46:c3:e3:
        fc:ae:d4:6f
-----BEGIN CERTIFICATE-----
MIIErDCCA5SgAwIBAgICEAcwDQYJKoZIhvcNAQELBQAwczELMAkGA1UEBhMCRlIx
DDAKBgNVBAgTA0lERjEOMAwGA1UEBxMFUGFyaXMxLzAtBgNVBAoTJkxvY2FsIE5P
REUtT1BDVUEgQ2VydGlmaWNhdGUgQXV0aG9yaXR5MRUwEwYDVQQDEwxOb2RlT1BD
VUEtQ0EwHhcNMjIwMzIxMDIzODQ3WhcNMjMwMzIxMDIzODQ3WjA1MQswCQYDVQQG
EwJGUjESMBAGA1UECgwJTm9kZU9QQ1VBMRIwEAYDVQQDDAlOb2RlT1BDVUEwggEi
MA0GCSqGSIb3DQEBAQUAA4IBDwAwggEKAoIBAQCxcAPJgrHb9PtNNs7GXhtyh3S9
Buw9J7yE5PzrXXFLghyL07snTW6Wq40QNFM9KKBn90PQlPJUEvFxHWjomaswxg9L
FxIJcc07ZlzXSksuHd6EUT1lGRhKp3Nd8LEgnm0OdjgeKArDMtWVRoMDg1X+q/Gz
nJ+9mR43k8HBErvPRR5EBw3LgxFAk+RLlzO2F6mMqnCmH2sRcAMi8kEJDeagJpQV
S3nxUFahsLAjm38TE/QPVQKsTssSz5IueqiCtYUvgh77abeY+vGJDRS1G0O/xi4x
b6i0UiTyXJb6kkQElytbkrIrTLtWly/s4cdiewSIniuVQng/KtlZv2DkTS3lAgMB
AAGjggGGMIIBgjAMBgNVHRMBAf8EAjAAMB0GA1UdDgQWBBSv5gCJoQ9vsQXhaG5s
LcqMG2LSVTCBsAYDVR0jBIGoMIGlgBRAcjBmrsf525p1G5n7U9Y46gzxi6F3pHUw
czELMAkGA1UEBhMCRlIxDDAKBgNVBAgTA0lERjEOMAwGA1UEBxMFUGFyaXMxLzAt
BgNVBAoTJkxvY2FsIE5PREUtT1BDVUEgQ2VydGlmaWNhdGUgQXV0aG9yaXR5MRUw
EwYDVQQDEwxOb2RlT1BDVUEtQ0GCFHKJYKMR76awVK9NLCOJ/D75hJOpMEAGA1Ud
EQQ5MDeGIXVybjplOTlkNTQ2NmY3YmI6Tm9kZU9QQ1VBLUNsaWVudIIMZTk5ZDU0
NjZmN2JihwR/AAABMCwGCWCGSAGG+EIBDQQfFh1PcGVuU1NMIEdlbmVyYXRlZCBD
ZXJ0aWZpY2F0ZTAOBgNVHQ8BAf8EBAMCAvwwIAYDVR0lAQH/BBYwFAYIKwYBBQUH
AwEGCCsGAQUFBwMCMA0GCSqGSIb3DQEBCwUAA4IBAQAkvTVbKpHjgAqQ17eOpZWl
q9bgs7LW44XPxC/kXLZIdktse1ib61UnNDAhVyq+1AXZjn/WCvic7pyhidz7NgLQ
U/1vg2lIpzPvxWlkDW4umnFY4rR6kL1FPnMd4HA746fXA98r0iSzZgpQaMQ0OUw+
T10sS02aWcBGiLXkRja7EV+SAyUzA7yi66CidcKr0i3+aaV8hAIqFLFJojj9wxBs
f6hFctvH18+Qt0Gocb7yTwBtUUszEAYJhuYCyN+4bjR6H1enwMJjMClPaU0+hncN
T738VonqL7PDe3iZdim0KBvtxzkVqK+q+qNWaetHYotzQPxlgJAy3SFGw+P8rtRv
-----END CERTIFICATE-----
