Certificate:
    Data:
        Version: 3 (0x2)
        Serial Number: 4104 (0x1008)
        Signature Algorithm: sha256WithRSAEncryption
        Issuer: C=FR, ST=IDF, L=Paris, O=Local NODE-OPCUA Certificate Authority, CN=NodeOPCUA-CA
        Validity
            Not Before: Mar 20 02:38:47 2025 GMT
            Not After : Mar 20 02:38:47 2026 GMT
        Subject: C=FR, O=NodeOPCUA, CN=NodeOPCUA
        Subject Public Key Info:
            Public Key Algorithm: rsaEncryption
                Public-Key: (2048 bit)
                Modulus:
                    00:b1:70:03:c9:82:b1:db:f4:fb:4d:36:ce:c6:5e:
                    1b:72:87:74:bd:06:ec:3d:27:bc:84:e4:fc:eb:5d:
                    71:4b:82:1c:8b:d3:bb:27:4d:6e:96:ab:8d:10:34:
                    53:3d:28:a0:67:f7:43:d0:94:f2:54:12:f1:71:1d:
                    68:e8:99:ab:30:c6:0f:4b:17:12:09:71:cd:3b:66:
                    5c:d7:4a:4b:2e:1d:de:84:51:3d:65:19:18:4a:a7:
                    73:5d:f0:b1:20:9e:6d:0e:76:38:1e:28:0a:c3:32:
                    d5:95:46:83:03:83:55:fe:ab:f1:b3:9c:9f:bd:99:
                    1e:37:93:c1:c1:12:bb:cf:45:1e:44:07:0d:cb:83:
                    11:40:93:e4:4b:97:33:b6:17:a9:8c:aa:70:a6:1f:
                    6b:11:70:03:22:f2:41:09:0d:e6:a0:26:94:15:4b:
                    79:f1:50:56:a1:b0:b0:23:9b:7f:13:13:f4:0f:55:
                    02:ac:4e:cb:12:cf:92:2e:7a:a8:82:b5:85:2f:82:
                    1e:fb:69:b7:98:fa:f1:89:0d:14:b5:1b:43:bf:c6:
                    2e:31:6f:a8:b4:52:24:f2:5c:96:fa:92:44:04:97:
                    2b:5b:92:b2:2b:4c:bb:56:97:2f:ec:e1:c7:62:7b:
                    04:88:9e:2b:95:42:78:3f:2a:d9:59:bf:60:e4:4d:
                    2d:e5
                Exponent: 65537 (0x10001)
        X509v3 extensions:
            X509v3 Basic Constraints: critical
                CA:FALSE
            X509v3 Subject Key Identifier: 
                AF:E6:00:89:A1:0F:6F:B1:05:E1:68:6E:6C:2D:CA:8C:1B:62:D2:55
            X509v3 Authority Key Identifier: 
                keyid:40:72:30:66:AE:C7:F9:DB:9A:75:1B:99:FB:53:D6:38:EA:0C:F1:8B
                DirName:/C=FR/ST=IDF/L=Paris/O=Local NODE-OPCUA Certificate Authority/CN=NodeOPCUA-CA
                serial:72:89:60:A3:11:EF:A6:B0:54:AF:4D:2C:23:89:FC:3E:F9:84:93:A9
            X509v3 Subject Alternative Name: 
                URI:urn:e99d5466f7bb:NodeOPCUA-Client, DNS:e99d5466f7bb, IP Address:127.0.0.1
            Netscape Comment: 
                OpenSSL Generated Certificate
            X509v3 Key Usage: critical
                Digital Signature, Non Repudiation, Key Encipherment, Data Encipherment, Key Agreement, Certificate Sign
            X509v3 Extended Key Usage: critical
                TLS Web Server Authentication, TLS Web Client Authentication
    Signature Algorithm: sha256WithRSAEncryption
    Signature Value:
        60:48:ea:3a:67:a7:91:cb:35:8b:fd:34:37:e1:61:ec:b4:18:
        d4:83:ee:9a:52:8d:3d:8a:35:f5:4a:9c:db:cf:69:37:8d:ce:
        b7:b5:f2:b9:0f:1a:00:ee:68:b8:1d:74:65:32:4c:2c:88:7e:
        1b:62:ed:61:99:71:53:b9:e0:4e:d9:b4:ee:f8:e7:b6:53:dd:
        5c:2d:85:4c:29:1a:d4:30:ce:74:90:c2:bb:ed:62:10:46:ef:
        71:4b:b4:b1:18:bb:a3:44:dd:63:b6:55:17:2b:0d:15:23:7d:
        f1:f2:df:a7:c0:fc:64:8b:3e:fd:4d:4b:a7:cf:d2:09:14:9f:
        9f:3b:a5:13:ba:ce:60:d7:5c:59:f9:9b:06:7b:ae:f5:72:e2:
        b0:16:55:fe:7e:42:84:6b:89:a0:92:84:27:d5:7c:b7:78:a4:
        10:1c:aa:2e:4c:61:4f:bf:62:aa:74:ee:e9:46:50:67:bb:3f:
        7b:ca:d1:6e:af:23:6e:79:7d:28:d7:a7:af:38:2a:10:09:f1:
        de:77:e4:d9:d8:82:88:aa:72:2f:41:c7:92:9d:c7:eb:4e:f5:
        6d:8c:19:da:eb:ca:c4:c8:18:b7:3f:9c:dc:e2:2d:4a:91:93:
        1b:16:a8:ce:84:37:f0:99:01:f3:ea:8a:0c:3e:bc:99:d5:9c:
        77:c4:1f:f1
-----BEGIN CERTIFICATE-----
MIIErDCCA5SgAwIBAgICEAgwDQYJKoZIhvcNAQELBQAwczELMAkGA1UEBhMCRlIx
DDAKBgNVBAgTA0lERjEOMAwGA1UEBxMFUGFyaXMxLzAtBgNVBAoTJkxvY2FsIE5P
REUtT1BDVUEgQ2VydGlmaWNhdGUgQXV0aG9yaXR5MRUwEwYDVQQDEwxOb2RlT1BD
VUEtQ0EwHhcNMjUwMzIwMDIzODQ3WhcNMjYwMzIwMDIzODQ3WjA1MQswCQYDVQQG
EwJGUjESMBAGA1UECgwJTm9kZU9QQ1VBMRIwEAYDVQQDDAlOb2RlT1BDVUEwggEi
MA0GCSqGSIb3DQEBAQUAA4IBDwAwggEKAoIBAQCxcAPJgrHb9PtNNs7GXhtyh3S9
Buw9J7yE5PzrXXFLghyL07snTW6Wq40QNFM9KKBn90PQlPJUEvFxHWjomaswxg9L
FxIJcc07ZlzXSksuHd6EUT1lGRhKp3Nd8LEgnm0OdjgeKArDMtWVRoMDg1X+q/Gz
nJ+9mR43k8HBErvPRR5EBw3LgxFAk+RLlzO2F6mMqnCmH2sRcAMi8kEJDeagJpQV
S3nxUFahsLAjm38TE/QPVQKsTssSz5IueqiCtYUvgh77abeY+vGJDRS1G0O/xi4x
b6i0UiTyXJb6kkQElytbkrIrTLtWly/s4cdiewSIniuVQng/KtlZv2DkTS3lAgMB
AAGjggGGMIIBgjAMBgNVHRMBAf8EAjAAMB0GA1UdDgQWBBSv5gCJoQ9vsQXhaG5s
LcqMG2LSVTCBsAYDVR0jBIGoMIGlgBRAcjBmrsf525p1G5n7U9Y46gzxi6F3pHUw
czELMAkGA1UEBhMCRlIxDDAKBgNVBAgTA0lERjEOMAwGA1UEBxMFUGFyaXMxLzAt
BgNVBAoTJkxvY2FsIE5PREUtT1BDVUEgQ2VydGlmaWNhdGUgQXV0aG9yaXR5MRUw
EwYDVQQDEwxOb2RlT1BDVUEtQ0GCFHKJYKMR76awVK9NLCOJ/D75hJOpMEAGA1Ud
EQQ5MDeGIXVybjplOTlkNTQ2NmY3YmI6Tm9kZU9QQ1VBLUNsaWVudIIMZTk5ZDU0
NjZmN2JihwR/AAABMCwGCWCGSAGG+EIBDQQfFh1PcGVuU1NMIEdlbmVyYXRlZCBD
ZXJ0aWZpY2F0ZTAOBgNVHQ8BAf8EBAMCAvwwIAYDVR0lAQH/BBYwFAYIKwYBBQUH
AwEGCCsGAQUFBwMCMA0GCSqGSIb3DQEBCwUAA4IBAQBgSOo6Z6eRyzWL/TQ34WHs
tBjUg+6aUo09ijX1Spzbz2k3jc63tfK5DxoA7mi4HXRlMkwsiH4bYu1hmXFTueBO
2bTu+Oe2U91cLYVMKRrUMM50kMK77WIQRu9xS7SxGLujRN1jtlUXKw0VI33x8t+n
wPxkiz79TUunz9IJFJ+fO6UTus5g11xZ+ZsGe671cuKwFlX+fkKEa4mgkoQn1Xy3
eKQQHKouTGFPv2KqdO7pRlBnuz97ytFuryNueX0o16evOCoQCfHed+TZ2IKIqnIv
QceSncfrTvVtjBna68rEyBi3P5zc4i1KkZMbFqjOhDfwmQHz6ooMPryZ1Zx3xB/x
-----END CERTIFICATE-----
