Certificate:
    Data:
        Version: 3 (0x2)
        Serial Number: 4105 (0x1009)
        Signature Algorithm: sha256WithRSAEncryption
        Issuer: C=FR, ST=IDF, L=Paris, O=Local NODE-OPCUA Certificate Authority, CN=NodeOPCUA-CA
        Validity
            Not Before: Mar 19 02:38:47 2024 GMT
            Not After : Mar 19 02:38:47 2025 GMT
        Subject: C=FR, O=NodeOPCUA, CN=NodeOPCUA
        Subject Public Key Info:
            Public Key Algorithm: rsaEncryption
                Public-Key: (2048 bit)
                Modulus:
                    00:b1:70:03:c9:82:b1:db:f4:fb:4d:36:ce:c6:5e:
                    1b:72:87:74:bd:06:ec:3d:27:bc:84:e4:fc:eb:5d:
                    71:4b:82:1c:8b:d3:bb:27:4d:6e:96:ab:8d:10:34:
                    53:3d:28:a0:67:f7:43:d0:94:f2:54:12:f1:71:1d:
                    68:e8:99:ab:30:c6:0f:4b:17:12:09:71:cd:3b:66:
                    5c:d7:4a:4b:2e:1d:de:84:51:3d:65:19:18:4a:a7:
                    73:5d:f0:b1:20:9e:6d:0e:76:38:1e:28:0a:c3:32:
                    d5:95:46:83:03:83:55:fe:ab:f1:b3:9c:9f:bd:99:
                    1e:37:93:c1:c1:12:bb:cf:45:1e:44:07:0d:cb:83:
                    11:40:93:e4:4b:97:33:b6:17:a9:8c:aa:70:a6:1f:
                    6b:11:70:03:22:f2:41:09:0d:e6:a0:26:94:15:4b:
                    79:f1:50:56:a1:b0:b0:23:9b:7f:13:13:f4:0f:55:
                    02:ac:4e:cb:12:cf:92:2e:7a:a8:82:b5:85:2f:82:
                    1e:fb:69:b7:98:fa:f1:89:0d:14:b5:1b:43:bf:c6:
                    2e:31:6f:a8:b4:52:24:f2:5c:96:fa:92:44:04:97:
                    2b:5b:92:b2:2b:4c:bb:56:97:2f:ec:e1:c7:62:7b:
                    04:88:9e:2b:95:42:78:3f:2a:d9:59:bf:60:e4:4d:
                    2d:e5
                Exponent: 65537 (0x10001)
        X509v3 extensions:
            X509v3 Basic Constraints: critical
                CA:FALSE
            X509v3 Subject Key Identifier: 
                AF:E6:00:89:A1:0F:6F:B1:05:E1:68:6E:6C:2D:CA:8C:1B:62:D2:55
            X509v3 Authority Key Identifier: 
                keyid:40:72:30:66:AE:C7:F9:DB:9A:75:1B:99:FB:53:D6:38:EA:0C:F1:8B
                DirName:/C=FR/ST=IDF/L=Paris/O=Local NODE-OPCUA Certificate Authority/CN=NodeOPCUA-CA
                serial:72:89:60:A3:11:EF:A6:B0:54:AF:4D:2C:23:89:FC:3E:F9:84:93:A9
            X509v3 Subject Alternative Name: 
                URI:urn:e99d5466f7bb:NodeOPCUA-ClientRevoked, DNS:e99d5466f7bb, IP Address:127.0.0.1
            Netscape Comment: 
                OpenSSL Generated Certificate
            X509v3 Key Usage: critical
                Digital Signature, Non Repudiation, Key Encipherment, Data Encipherment, Key Agreement, Certificate Sign
            X509v3 Extended Key Usage: critical
                TLS Web Server Authentication, TLS Web Client Authentication
    Signature Algorithm: sha256WithRSAEncryption
    Signature Value:
        a2:41:ab:4d:a6:35:fd:cf:53:ec:b3:92:5d:34:5c:72:8c:c1:
        a4:a3:d2:df:fa:ab:5f:b1:6e:5b:ab:e5:37:41:48:07:2d:58:
        7b:b2:04:93:d2:52:94:ae:53:33:39:89:9f:78:7b:ec:b0:93:
        91:83:02:6c:5b:d0:a5:b6:69:ec:d0:90:28:98:05:c5:db:c9:
        c8:15:e7:61:7f:e8:e9:fa:59:a1:29:0f:66:2d:5d:f5:bf:5c:
        35:22:a4:f3:c9:ac:8e:0c:7e:0b:16:96:82:a1:b4:a7:92:f2:
        e1:b5:c3:d6:41:47:d9:e1:5c:a6:b8:fb:c6:1d:48:fe:88:a2:
        8e:2d:e0:8a:23:d7:d3:5c:2d:63:df:aa:0d:6b:25:c7:3a:6b:
        ce:7f:11:2d:97:41:61:d5:65:cb:f2:90:88:5e:2d:83:70:dc:
        8d:d4:7c:da:63:ff:d9:ce:ba:68:74:10:c0:7e:fc:d7:51:5f:
        91:76:3e:30:a9:29:ed:7f:00:70:15:5e:5f:66:db:a5:e1:c0:
        5f:5b:fc:86:54:1a:39:2e:dc:ff:7f:78:ec:ea:e7:9c:61:e6:
        ad:68:47:49:86:93:94:eb:b9:9c:d2:1e:10:64:23:26:ed:57:
        d4:05:44:c2:53:4a:c0:5f:45:cc:7f:0f:d6:8c:16:24:eb:51:
        98:1a:d2:34
-----BEGIN CERTIFICATE-----
MIIEszCCA5ugAwIBAgICEAkwDQYJKoZIhvcNAQELBQAwczELMAkGA1UEBhMCRlIx
DDAKBgNVBAgTA0lERjEOMAwGA1UEBxMFUGFyaXMxLzAtBgNVBAoTJkxvY2FsIE5P
REUtT1BDVUEgQ2VydGlmaWNhdGUgQXV0aG9yaXR5MRUwEwYDVQQDEwxOb2RlT1BD
VUEtQ0EwHhcNMjQwMzE5MDIzODQ3WhcNMjUwMzE5MDIzODQ3WjA1MQswCQYDVQQG
EwJGUjESMBAGA1UECgwJTm9kZU9QQ1VBMRIwEAYDVQQDDAlOb2RlT1BDVUEwggEi
MA0GCSqGSIb3DQEBAQUAA4IBDwAwggEKAoIBAQCxcAPJgrHb9PtNNs7GXhtyh3S9
Buw9J7yE5PzrXXFLghyL07snTW6Wq40QNFM9KKBn90PQlPJUEvFxHWjomaswxg9L
FxIJcc07ZlzXSksuHd6EUT1lGRhKp3Nd8LEgnm0OdjgeKArDMtWVRoMDg1X+q/Gz
nJ+9mR43k8HBErvPRR5EBw3LgxFAk+RLlzO2F6mMqnCmH2sRcAMi8kEJDeagJpQV
S3nxUFahsLAjm38TE/QPVQKsTssSz5IueqiCtYUvgh77abeY+vGJDRS1G0O/xi4x
b6i0UiTyXJb6kkQElytbkrIrTLtWly/s4cdiewSIniuVQng/KtlZv2DkTS3lAgMB
AAGjggGNMIIBiTAMBgNVHRMBAf8EAjAAMB0GA1UdDgQWBBSv5gCJoQ9vsQXhaG5s
LcqMG2LSVTCBsAYDVR0jBIGoMIGlgBRAcjBmrsf525p1G5n7U9Y46gzxi6F3pHUw
czELMAkGA1UEBhMCRlIxDDAKBgNVBAgTA0lERjEOMAwGA1UEBxMFUGFyaXMxLzAt
BgNVBAoTJkxvY2FsIE5PREUtT1BDVUEgQ2VydGlmaWNhdGUgQXV0aG9yaXR5MRUw
EwYDVQQDEwxOb2RlT1BDVUEtQ0GCFHKJYKMR76awVK9NLCOJ/D75hJOpMEcGA1Ud
EQRAMD6GKHVybjplOTlkNTQ2NmY3YmI6Tm9kZU9QQ1VBLUNsaWVudFJldm9rZWSC
DGU5OWQ1NDY2ZjdiYocEfwAAATAsBglghkgBhvhCAQ0EHxYdT3BlblNTTCBHZW5l
cmF0ZWQgQ2VydGlmaWNhdGUwDgYDVR0PAQH/BAQDAgL8MCAGA1UdJQEB/wQWMBQG
CCsGAQUFBwMBBggrBgEFBQcDAjANBgkqhkiG9w0BAQsFAAOCAQEAokGrTaY1/c9T
7LOSXTRccozBpKPS3/qrX7FuW6vlN0FIBy1Ye7IEk9JSlK5TMzmJn3h77LCTkYMC
bFvQpbZp7NCQKJgFxdvJyBXnYX/o6fpZoSkPZi1d9b9cNSKk88msjgx+CxaWgqG0
p5Ly4bXD1kFH2eFcprj7xh1I/oiiji3giiPX01wtY9+qDWslxzprzn8RLZdBYdVl
y/KQiF4tg3DcjdR82mP/2c66aHQQwH7811FfkXY+MKkp7X8AcBVeX2bbpeHAX1v8
hlQaOS7c/3947OrnnGHmrWhHSYaTlOu5nNIeEGQjJu1X1AVEwlNKwF9FzH8P1owW
JOtRmBrSNA==
-----END CERTIFICATE-----
