Certificate:
    Data:
        Version: 3 (0x2)
        Serial Number: 4108 (0x100c)
        Signature Algorithm: sha256WithRSAEncryption
        Issuer: C=FR, ST=IDF, L=Paris, O=Local NODE-OPCUA Certificate Authority, CN=NodeOPCUA-CA
        Validity
            Not Before: Mar 21 02:38:47 2022 GMT
            Not After : Mar 21 02:38:47 2023 GMT
        Subject: C=FR, O=NodeOPCUA, CN=NodeOPCUA
        Subject Public Key Info:
            Public Key Algorithm: rsaEncryption
                Public-Key: (3072 bit)
                Modulus:
                    00:93:70:a3:7d:65:73:f5:c3:cf:87:e4:7b:1b:36:
                    be:c1:f6:5f:b9:02:b7:09:b0:60:3b:55:07:5c:4c:
                    b8:32:52:0f:2c:e6:6d:8d:e1:4a:86:ce:d0:be:f3:
                    8b:6f:33:4b:08:e4:93:29:8a:c5:c0:3c:07:94:29:
                    69:f5:49:1e:96:b7:e9:86:db:c3:08:11:f9:8c:43:
                    b1:73:65:6a:d0:a9:d2:29:c5:87:a4:6f:79:50:e0:
                    91:58:0c:86:a6:3b:f0:93:fe:bb:7d:01:60:65:a9:
                    b9:fa:fb:e5:8e:7a:04:70:ed:44:cd:57:bf:a7:a9:
                    55:93:dd:9d:b0:49:4b:5b:86:dd:05:52:6e:3e:4b:
                    71:64:a5:7c:8e:86:b3:76:99:f5:ec:b8:00:81:98:
                    61:f4:d0:4c:12:14:16:90:3f:29:26:05:d9:3a:e3:
                    0e:8e:9f:e1:cf:a2:8a:86:b6:20:d5:2a:2f:ad:cb:
                    4a:a7:46:10:98:f4:95:c5:25:a0:69:80:ad:47:55:
                    d1:77:c9:59:c6:be:c7:ec:a8:4a:f4:97:66:72:73:
                    cb:f3:cb:9b:3a:1c:db:38:03:90:f8:0f:2f:87:b6:
                    01:1a:fc:5d:71:b8:33:38:3c:dc:77:9e:93:5d:34:
                    60:2f:96:9d:1b:4f:4d:3f:35:75:4e:69:20:c9:9b:
                    9c:cc:1f:db:15:bc:ce:74:e3:4d:ef:12:aa:c6:5f:
                    bc:71:f2:99:03:7f:bd:df:ce:46:c7:cb:f4:9a:ed:
                    8a:11:f0:8a:8b:1c:3b:53:8b:86:39:30:c6:b9:cd:
                    71:ef:13:6a:00:52:cd:52:2f:b2:e5:a0:4a:90:9b:
                    3f:92:f9:bd:38:3e:26:0d:02:0d:d4:cd:05:74:90:
                    92:d5:c5:a6:5d:ab:0e:45:46:aa:4c:98:d6:ca:5c:
                    27:97:8f:1a:82:a7:fd:d2:9d:65:20:df:6f:59:8b:
                    ba:85:13:96:f8:36:5d:42:a9:77:6e:6f:09:ff:95:
                    d6:2b:52:98:5e:67:89:61:4e:69
                Exponent: 65537 (0x10001)
        X509v3 extensions:
            X509v3 Basic Constraints: critical
                CA:FALSE
            X509v3 Subject Key Identifier: 
                E0:B2:04:C7:15:9A:72:25:D4:D9:20:5F:73:13:AA:D1:F6:31:E0:7A
            X509v3 Authority Key Identifier: 
                keyid:40:72:30:66:AE:C7:F9:DB:9A:75:1B:99:FB:53:D6:38:EA:0C:F1:8B
                DirName:/C=FR/ST=IDF/L=Paris/O=Local NODE-OPCUA Certificate Authority/CN=NodeOPCUA-CA
                serial:72:89:60:A3:11:EF:A6:B0:54:AF:4D:2C:23:89:FC:3E:F9:84:93:A9
            X509v3 Subject Alternative Name: 
                URI:urn:e99d5466f7bb:NodeOPCUA-Client, DNS:e99d5466f7bb, IP Address:127.0.0.1
            Netscape Comment: 
                OpenSSL Generated Certificate
            X509v3 Key Usage: critical
                Digital Signature, Non Repudiation, Key Encipherment, Data Encipherment, Key Agreement, Certificate Sign
            X509v3 Extended Key Usage: critical
                TLS Web Server Authentication, TLS Web Client Authentication
    Signature Algorithm: sha256WithRSAEncryption
    Signature Value:
        1e:2e:b3:6f:1e:11:da:e4:df:bc:df:d6:ff:1c:81:f5:02:40:
        02:f1:e2:65:22:21:c8:ad:a8:46:98:11:4d:d0:fb:df:51:92:
        f8:2a:be:49:d2:33:25:73:62:71:59:b2:55:a9:38:a5:61:b2:
        3a:ac:e8:9f:4c:59:5b:41:b3:f4:c2:0d:05:24:1c:72:c3:c2:
        1e:54:ce:39:31:b5:ba:96:83:31:85:c0:5a:43:b9:1f:36:57:
        77:f3:04:cf:40:f6:31:20:2c:08:0f:47:ed:82:b9:d0:f0:69:
        ff:9b:8c:72:3e:08:73:55:53:e2:21:d1:7e:45:27:3f:5a:74:
        fd:db:aa:f6:c1:eb:b9:7d:ef:36:64:ce:fc:f1:d9:4b:ad:91:
        5d:75:16:a4:ed:8a:a0:f9:d2:df:88:95:87:4a:0b:4e:91:f2:
        32:5f:7d:1f:a4:0c:31:11:a0:36:8e:21:58:d8:9c:5e:20:a4:
        2e:e3:85:f4:c6:10:bf:ea:76:4f:85:8d:39:32:98:65:3e:e9:
        4a:09:74:0e:b2:b6:03:bf:3f:86:09:4a:ed:2e:f4:33:9f:00:
        22:ee:0d:64:f3:78:7f:64:c0:90:db:17:54:77:9a:49:a7:bb:
        5d:d4:8a:bf:53:ad:f1:28:42:4c:ad:a8:42:2b:ae:6b:0d:73:
        dd:29:89:ba
-----BEGIN CERTIFICATE-----
MIIFLDCCBBSgAwIBAgICEAwwDQYJKoZIhvcNAQELBQAwczELMAkGA1UEBhMCRlIx
DDAKBgNVBAgTA0lERjEOMAwGA1UEBxMFUGFyaXMxLzAtBgNVBAoTJkxvY2FsIE5P
REUtT1BDVUEgQ2VydGlmaWNhdGUgQXV0aG9yaXR5MRUwEwYDVQQDEwxOb2RlT1BD
VUEtQ0EwHhcNMjIwMzIxMDIzODQ3WhcNMjMwMzIxMDIzODQ3WjA1MQswCQYDVQQG
EwJGUjESMBAGA1UECgwJTm9kZU9QQ1VBMRIwEAYDVQQDDAlOb2RlT1BDVUEwggGi
MA0GCSqGSIb3DQEBAQUAA4IBjwAwggGKAoIBgQCTcKN9ZXP1w8+H5HsbNr7B9l+5
ArcJsGA7VQdcTLgyUg8s5m2N4UqGztC+84tvM0sI5JMpisXAPAeUKWn1SR6Wt+mG
28MIEfmMQ7FzZWrQqdIpxYekb3lQ4JFYDIamO/CT/rt9AWBlqbn6++WOegRw7UTN
V7+nqVWT3Z2wSUtbht0FUm4+S3FkpXyOhrN2mfXsuACBmGH00EwSFBaQPykmBdk6
4w6On+HPooqGtiDVKi+ty0qnRhCY9JXFJaBpgK1HVdF3yVnGvsfsqEr0l2Zyc8vz
y5s6HNs4A5D4Dy+HtgEa/F1xuDM4PNx3npNdNGAvlp0bT00/NXVOaSDJm5zMH9sV
vM50403vEqrGX7xx8pkDf73fzkbHy/Sa7YoR8IqLHDtTi4Y5MMa5zXHvE2oAUs1S
L7LloEqQmz+S+b04PiYNAg3UzQV0kJLVxaZdqw5FRqpMmNbKXCeXjxqCp/3SnWUg
329Zi7qFE5b4Nl1CqXdubwn/ldYrUpheZ4lhTmkCAwEAAaOCAYYwggGCMAwGA1Ud
EwEB/wQCMAAwHQYDVR0OBBYEFOCyBMcVmnIl1NkgX3MTqtH2MeB6MIGwBgNVHSME
gagwgaWAFEByMGaux/nbmnUbmftT1jjqDPGLoXekdTBzMQswCQYDVQQGEwJGUjEM
MAoGA1UECBMDSURGMQ4wDAYDVQQHEwVQYXJpczEvMC0GA1UEChMmTG9jYWwgTk9E
RS1PUENVQSBDZXJ0aWZpY2F0ZSBBdXRob3JpdHkxFTATBgNVBAMTDE5vZGVPUENV
QS1DQYIUcolgoxHvprBUr00sI4n8PvmEk6kwQAYDVR0RBDkwN4YhdXJuOmU5OWQ1
NDY2ZjdiYjpOb2RlT1BDVUEtQ2xpZW50ggxlOTlkNTQ2NmY3YmKHBH8AAAEwLAYJ
YIZIAYb4QgENBB8WHU9wZW5TU0wgR2VuZXJhdGVkIENlcnRpZmljYXRlMA4GA1Ud
DwEB/wQEAwIC/DAgBgNVHSUBAf8EFjAUBggrBgEFBQcDAQYIKwYBBQUHAwIwDQYJ
KoZIhvcNAQELBQADggEBAB4us28eEdrk37zf1v8cgfUCQALx4mUiIcitqEaYEU3Q
+99RkvgqvknSMyVzYnFZslWpOKVhsjqs6J9MWVtBs/TCDQUkHHLDwh5UzjkxtbqW
gzGFwFpDuR82V3fzBM9A9jEgLAgPR+2CudDwaf+bjHI+CHNVU+Ih0X5FJz9adP3b
qvbB67l97zZkzvzx2UutkV11FqTtiqD50t+IlYdKC06R8jJffR+kDDERoDaOIVjY
nF4gpC7jhfTGEL/qdk+FjTkymGU+6UoJdA6ytgO/P4YJSu0u9DOfACLuDWTzeH9k
wJDbF1R3mkmnu13Uir9TrfEoQkytqEIrrmsNc90pibo=
-----END CERTIFICATE-----
