Certificate:
    Data:
        Version: 3 (0x2)
        Serial Number: 4111 (0x100f)
        Signature Algorithm: sha256WithRSAEncryption
        Issuer: C=FR, ST=IDF, L=Paris, O=Local NODE-OPCUA Certificate Authority, CN=NodeOPCUA-CA
        Validity
            Not Before: Mar 19 02:38:47 2024 GMT
            Not After : Mar 19 02:38:47 2025 GMT
        Subject: C=FR, O=NodeOPCUA, CN=NodeOPCUA
        Subject Public Key Info:
            Public Key Algorithm: rsaEncryption
                Public-Key: (4096 bit)
                Modulus:
                    00:b1:7d:65:d1:6e:98:76:ac:65:7c:92:4d:7d:3d:
                    06:5a:3d:87:15:c6:e0:a9:a7:0e:40:6f:82:ed:39:
                    5f:8a:15:ef:17:7f:19:ac:ff:9d:43:2c:dc:e7:02:
                    fd:03:ce:fa:82:ad:fb:1a:c0:cf:b4:5d:45:4c:84:
                    19:69:0a:4e:9d:03:78:12:4f:20:eb:6b:6e:86:c5:
                    59:0a:e5:6b:64:26:f5:ab:6f:b0:1c:b4:ef:3b:8d:
                    82:cb:36:3e:1d:6e:d4:1f:54:f2:26:05:ff:fa:4a:
                    1b:01:4d:52:79:a0:e6:e5:bb:36:07:d7:f6:8a:bc:
                    2e:79:99:46:27:f5:a7:51:cc:5c:d8:43:ee:a7:e8:
                    1d:23:55:54:be:52:e6:55:9c:1c:c9:b6:c4:8d:28:
                    1d:21:af:d7:41:6e:45:d2:22:c7:3a:6c:97:c9:e6:
                    f1:1b:5d:13:c9:ea:f6:78:91:2e:17:60:46:d6:af:
                    20:f3:66:47:66:62:c5:7b:d9:bc:9e:54:81:93:7a:
                    ac:ed:06:ea:39:ff:61:84:e0:cc:75:47:81:d7:e0:
                    d8:ba:49:f4:d7:d5:cc:14:43:29:0b:43:6a:c6:f8:
                    ec:aa:4a:3d:a2:97:6e:58:f5:af:92:cf:54:6f:c6:
                    d1:b1:62:20:c0:62:ce:a7:19:d8:be:60:b8:98:e8:
                    2b:7a:8e:2b:85:4a:7d:fb:ec:c2:18:06:f2:1c:cd:
                    f2:d5:4b:21:9b:61:ae:94:f1:4f:9c:ca:da:3a:75:
                    f0:8a:c8:bc:65:9f:fb:4f:cf:78:05:5e:0b:3e:3b:
                    92:ac:9e:c2:d9:ba:fa:e2:2f:98:61:30:fc:fa:0f:
                    7c:95:7f:43:f8:06:9f:d7:e9:07:ba:9d:20:ce:ef:
                    10:aa:f9:03:ba:91:aa:a7:c2:6c:da:b8:6e:c4:41:
                    83:14:a3:98:45:8c:1b:04:0e:29:7d:11:91:54:a0:
                    1a:29:93:a7:7b:df:6b:41:cd:04:c6:d6:bd:81:73:
                    26:d7:94:51:41:7d:d5:4c:7c:e3:30:c1:11:24:83:
                    54:15:51:b0:e4:1d:1a:93:06:6d:c9:f1:c7:10:61:
                    4c:d4:d3:05:bf:0d:b9:ba:06:52:fe:45:55:05:d6:
                    60:23:1a:0c:d8:a3:d1:c2:dd:5a:68:4a:6c:a2:ca:
                    a6:3e:1c:52:cd:8d:9a:38:5f:64:e6:46:94:f1:a1:
                    79:c8:72:f6:8f:2c:32:3a:b4:78:b6:9d:ee:95:45:
                    ee:ee:8e:b6:d1:1e:d7:19:b5:ba:6c:64:7a:1d:89:
                    02:3b:5a:4a:f3:bf:a0:fb:ba:ee:fa:64:97:bf:07:
                    cc:13:0b:67:c1:53:3b:44:86:54:73:32:f9:61:a3:
                    77:99:59
                Exponent: 65537 (0x10001)
        X509v3 extensions:
            X509v3 Basic Constraints: critical
                CA:FALSE
            X509v3 Subject Key Identifier: 
                14:EC:00:EC:60:84:45:5F:A1:16:A1:C4:6B:3D:AD:82:9E:47:4D:0D
            X509v3 Authority Key Identifier: 
                keyid:40:72:30:66:AE:C7:F9:DB:9A:75:1B:99:FB:53:D6:38:EA:0C:F1:8B
                DirName:/C=FR/ST=IDF/L=Paris/O=Local NODE-OPCUA Certificate Authority/CN=NodeOPCUA-CA
                serial:72:89:60:A3:11:EF:A6:B0:54:AF:4D:2C:23:89:FC:3E:F9:84:93:A9
            X509v3 Subject Alternative Name: 
                URI:urn:e99d5466f7bb:NodeOPCUA-Client, DNS:e99d5466f7bb, IP Address:127.0.0.1
            Netscape Comment: 
                OpenSSL Generated Certificate
            X509v3 Key Usage: critical
                Digital Signature, Non Repudiation, Key Encipherment, Data Encipherment, Key Agreement, Certificate Sign
            X509v3 Extended Key Usage: critical
                TLS Web Server Authentication, TLS Web Client Authentication
    Signature Algorithm: sha256WithRSAEncryption
    Signature Value:
        1a:97:9e:57:b9:4c:97:c5:c0:0b:6a:ac:c8:e3:90:bc:07:e6:
        11:9d:fe:96:0f:e7:ad:df:c5:6d:2c:33:8e:e3:df:17:b9:e9:
        c9:f6:02:c8:b8:a2:19:1e:dc:23:dd:c3:2b:4e:79:3a:67:ad:
        49:c4:3b:6e:b4:f5:35:37:1f:6d:1a:25:e4:65:47:ad:d2:dd:
        ff:88:56:65:db:35:ca:34:d8:6d:f1:1a:0d:41:26:05:71:2b:
        83:1d:72:cd:c1:15:b5:d8:2d:2a:cc:c6:0b:a8:01:9c:49:80:
        d6:3b:fb:5d:eb:58:69:9c:78:10:b8:ef:23:b9:73:1d:26:71:
        01:b8:24:5d:cb:45:4a:88:e2:f0:ff:96:dc:27:1e:78:53:0a:
        b8:b0:4a:d7:93:18:00:ac:d2:68:94:8a:1e:76:c8:a1:1a:1d:
        5d:50:45:5d:22:e0:18:3a:79:38:fb:73:e0:d9:d0:e4:7b:2b:
        c2:5a:c6:ee:a6:3b:41:1a:78:48:bc:17:41:77:a7:d2:27:3d:
        02:cf:62:5e:2f:6d:5b:6e:a4:53:ca:41:98:67:e1:ed:5b:bd:
        7c:99:d9:b4:5d:d4:09:bb:a0:72:1a:f2:a5:ea:2f:0b:93:ef:
        06:23:a0:31:c3:b0:46:fe:30:c8:a7:b5:5b:9f:f7:5d:78:ae:
        5d:9a:f2:f3
-----BEGIN CERTIFICATE-----
MIIFrDCCBJSgAwIBAgICEA8wDQYJKoZIhvcNAQELBQAwczELMAkGA1UEBhMCRlIx
DDAKBgNVBAgTA0lERjEOMAwGA1UEBxMFUGFyaXMxLzAtBgNVBAoTJkxvY2FsIE5P
REUtT1BDVUEgQ2VydGlmaWNhdGUgQXV0aG9yaXR5MRUwEwYDVQQDEwxOb2RlT1BD
VUEtQ0EwHhcNMjQwMzE5MDIzODQ3WhcNMjUwMzE5MDIzODQ3WjA1MQswCQYDVQQG
EwJGUjESMBAGA1UECgwJTm9kZU9QQ1VBMRIwEAYDVQQDDAlOb2RlT1BDVUEwggIi
MA0GCSqGSIb3DQEBAQUAA4ICDwAwggIKAoICAQCxfWXRbph2rGV8kk19PQZaPYcV
xuCppw5Ab4LtOV+KFe8Xfxms/51DLNznAv0DzvqCrfsawM+0XUVMhBlpCk6dA3gS
TyDra26GxVkK5WtkJvWrb7ActO87jYLLNj4dbtQfVPImBf/6ShsBTVJ5oObluzYH
1/aKvC55mUYn9adRzFzYQ+6n6B0jVVS+UuZVnBzJtsSNKB0hr9dBbkXSIsc6bJfJ
5vEbXRPJ6vZ4kS4XYEbWryDzZkdmYsV72byeVIGTeqztBuo5/2GE4Mx1R4HX4Ni6
SfTX1cwUQykLQ2rG+OyqSj2il25Y9a+Sz1RvxtGxYiDAYs6nGdi+YLiY6Ct6jiuF
Sn377MIYBvIczfLVSyGbYa6U8U+cyto6dfCKyLxln/tPz3gFXgs+O5KsnsLZuvri
L5hhMPz6D3yVf0P4Bp/X6Qe6nSDO7xCq+QO6kaqnwmzauG7EQYMUo5hFjBsEDil9
EZFUoBopk6d732tBzQTG1r2BcybXlFFBfdVMfOMwwREkg1QVUbDkHRqTBm3J8ccQ
YUzU0wW/Dbm6BlL+RVUF1mAjGgzYo9HC3VpoSmyiyqY+HFLNjZo4X2TmRpTxoXnI
cvaPLDI6tHi2ne6VRe7ujrbRHtcZtbpsZHodiQI7Wkrzv6D7uu76ZJe/B8wTC2fB
UztEhlRzMvlho3eZWQIDAQABo4IBhjCCAYIwDAYDVR0TAQH/BAIwADAdBgNVHQ4E
FgQUFOwA7GCERV+hFqHEaz2tgp5HTQ0wgbAGA1UdIwSBqDCBpYAUQHIwZq7H+dua
dRuZ+1PWOOoM8Yuhd6R1MHMxCzAJBgNVBAYTAkZSMQwwCgYDVQQIEwNJREYxDjAM
BgNVBAcTBVBhcmlzMS8wLQYDVQQKEyZMb2NhbCBOT0RFLU9QQ1VBIENlcnRpZmlj
YXRlIEF1dGhvcml0eTEVMBMGA1UEAxMMTm9kZU9QQ1VBLUNBghRyiWCjEe+msFSv
TSwjifw++YSTqTBABgNVHREEOTA3hiF1cm46ZTk5ZDU0NjZmN2JiOk5vZGVPUENV
QS1DbGllbnSCDGU5OWQ1NDY2ZjdiYocEfwAAATAsBglghkgBhvhCAQ0EHxYdT3Bl
blNTTCBHZW5lcmF0ZWQgQ2VydGlmaWNhdGUwDgYDVR0PAQH/BAQDAgL8MCAGA1Ud
JQEB/wQWMBQGCCsGAQUFBwMBBggrBgEFBQcDAjANBgkqhkiG9w0BAQsFAAOCAQEA
GpeeV7lMl8XAC2qsyOOQvAfmEZ3+lg/nrd/FbSwzjuPfF7npyfYCyLiiGR7cI93D
K055OmetScQ7brT1NTcfbRol5GVHrdLd/4hWZds1yjTYbfEaDUEmBXErgx1yzcEV
tdgtKszGC6gBnEmA1jv7XetYaZx4ELjvI7lzHSZxAbgkXctFSoji8P+W3CceeFMK
uLBK15MYAKzSaJSKHnbIoRodXVBFXSLgGDp5OPtz4NnQ5HsrwlrG7qY7QRp4SLwX
QXen0ic9As9iXi9tW26kU8pBmGfh7Vu9fJnZtF3UCbugchrypeovC5PvBiOgMcOw
Rv4wyKe1W5/3XXiuXZry8w==
-----END CERTIFICATE-----
