Certificate:
    Data:
        Version: 3 (0x2)
        Serial Number: 4116 (0x1014)
        Signature Algorithm: sha256WithRSAEncryption
        Issuer: C=FR, ST=IDF, L=Paris, O=Local NODE-OPCUA Certificate Authority, CN=NodeOPCUA-CA
        Validity
            Not Before: Mar 19 02:38:47 2024 GMT
            Not After : Mar 19 02:38:47 2025 GMT
        Subject: C=FR, O=NodeOPCUA, CN=NodeOPCUA
        Subject Public Key Info:
            Public Key Algorithm: rsaEncryption
                Public-Key: (1024 bit)
                Modulus:
                    00:cb:ff:ad:c4:ac:cc:ab:d0:b6:a5:f0:6a:b2:dc:
                    33:97:25:52:b7:a2:3e:5a:93:b9:62:5c:da:2c:e8:
                    47:1b:36:98:2b:23:7c:91:a9:6a:05:92:24:07:60:
                    1a:16:f3:60:bc:35:2f:2a:fb:94:00:5e:42:20:79:
                    80:e1:38:e0:a5:80:27:a0:3a:b1:f7:f5:2a:1f:7c:
                    cf:2d:88:cc:94:34:df:d1:6e:b5:29:a5:58:14:18:
                    76:75:ea:68:22:00:43:72:70:75:d2:d7:e5:8c:d1:
                    d6:bb:66:e6:ec:1a:32:52:f8:6c:65:66:ec:0d:77:
                    e9:1d:dd:57:b5:87:db:67:79
                Exponent: 65537 (0x10001)
        X509v3 extensions:
            X509v3 Basic Constraints: critical
                CA:FALSE
            X509v3 Subject Key Identifier: 
                C1:0D:C0:99:77:95:53:7A:FB:43:A8:5E:38:95:FF:20:85:4F:DB:37
            X509v3 Authority Key Identifier: 
                keyid:40:72:30:66:AE:C7:F9:DB:9A:75:1B:99:FB:53:D6:38:EA:0C:F1:8B
                DirName:/C=FR/ST=IDF/L=Paris/O=Local NODE-OPCUA Certificate Authority/CN=NodeOPCUA-CA
                serial:72:89:60:A3:11:EF:A6:B0:54:AF:4D:2C:23:89:FC:3E:F9:84:93:A9
            X509v3 Subject Alternative Name: 
                URI:urn:e99d5466f7bb:NodeOPCUA-Server, DNS:e99d5466f7bb, IP Address:127.0.0.1
            Netscape Comment: 
                OpenSSL Generated Certificate
            X509v3 Key Usage: critical
                Digital Signature, Non Repudiation, Key Encipherment, Data Encipherment, Key Agreement, Certificate Sign
            X509v3 Extended Key Usage: critical
                TLS Web Server Authentication, TLS Web Client Authentication
    Signature Algorithm: sha256WithRSAEncryption
    Signature Value:
        46:a5:f1:32:21:9a:26:30:d9:07:23:35:f0:42:54:9b:90:fb:
        41:75:00:b2:75:4a:ae:d7:33:a0:1f:00:57:8e:00:ba:cd:99:
        12:93:7a:a4:67:bb:8e:e7:03:13:35:3a:9c:a3:6f:1b:a9:d6:
        d5:6a:40:34:a6:6e:4d:af:62:2f:16:4d:23:36:fb:cb:91:e8:
        4c:91:76:bd:e0:85:5f:37:c8:76:82:d8:bc:e0:60:89:60:0d:
        17:60:a6:f1:af:3a:d3:26:c1:3b:a9:26:51:a8:d2:ef:8a:c7:
        3c:3f:9d:62:b5:fd:0f:37:05:fc:2b:62:f8:5b:13:ca:a2:ea:
        4b:ee:a5:c3:49:26:5f:e1:bf:45:80:69:29:85:e6:92:e8:2c:
        e7:3d:92:c1:b1:38:cf:fa:7f:ef:54:32:70:f8:fc:9f:73:66:
        36:98:94:55:cb:09:07:92:54:b0:e9:c6:c8:d2:95:2d:b6:7d:
        42:0d:bd:73:3f:e2:84:36:f0:83:8f:c4:52:14:8c:f5:60:97:
        ca:ea:87:34:28:91:55:f9:7e:ec:71:66:da:0e:1f:37:2a:80:
        c3:b7:be:49:6b:f2:c0:11:20:5d:0b:5f:c8:15:dc:d0:bf:fd:
        2f:f3:d1:48:2d:ca:6f:89:22:ff:b4:02:f3:57:f4:90:89:d9:
        5e:3f:b4:a2
-----BEGIN CERTIFICATE-----
MIIEKDCCAxCgAwIBAgICEBQwDQYJKoZIhvcNAQELBQAwczELMAkGA1UEBhMCRlIx
DDAKBgNVBAgTA0lERjEOMAwGA1UEBxMFUGFyaXMxLzAtBgNVBAoTJkxvY2FsIE5P
REUtT1BDVUEgQ2VydGlmaWNhdGUgQXV0aG9yaXR5MRUwEwYDVQQDEwxOb2RlT1BD
VUEtQ0EwHhcNMjQwMzE5MDIzODQ3WhcNMjUwMzE5MDIzODQ3WjA1MQswCQYDVQQG
EwJGUjESMBAGA1UECgwJTm9kZU9QQ1VBMRIwEAYDVQQDDAlOb2RlT1BDVUEwgZ8w
DQYJKoZIhvcNAQEBBQADgY0AMIGJAoGBAMv/rcSszKvQtqXwarLcM5clUreiPlqT
uWJc2izoRxs2mCsjfJGpagWSJAdgGhbzYLw1Lyr7lABeQiB5gOE44KWAJ6A6sff1
Kh98zy2IzJQ039FutSmlWBQYdnXqaCIAQ3JwddLX5YzR1rtm5uwaMlL4bGVm7A13
6R3dV7WH22d5AgMBAAGjggGGMIIBgjAMBgNVHRMBAf8EAjAAMB0GA1UdDgQWBBTB
DcCZd5VTevtDqF44lf8ghU/bNzCBsAYDVR0jBIGoMIGlgBRAcjBmrsf525p1G5n7
U9Y46gzxi6F3pHUwczELMAkGA1UEBhMCRlIxDDAKBgNVBAgTA0lERjEOMAwGA1UE
BxMFUGFyaXMxLzAtBgNVBAoTJkxvY2FsIE5PREUtT1BDVUEgQ2VydGlmaWNhdGUg
QXV0aG9yaXR5MRUwEwYDVQQDEwxOb2RlT1BDVUEtQ0GCFHKJYKMR76awVK9NLCOJ
/D75hJOpMEAGA1UdEQQ5MDeGIXVybjplOTlkNTQ2NmY3YmI6Tm9kZU9QQ1VBLVNl
cnZlcoIMZTk5ZDU0NjZmN2JihwR/AAABMCwGCWCGSAGG+EIBDQQfFh1PcGVuU1NM
IEdlbmVyYXRlZCBDZXJ0aWZpY2F0ZTAOBgNVHQ8BAf8EBAMCAvwwIAYDVR0lAQH/
BBYwFAYIKwYBBQUHAwEGCCsGAQUFBwMCMA0GCSqGSIb3DQEBCwUAA4IBAQBGpfEy
IZomMNkHIzXwQlSbkPtBdQCydUqu1zOgHwBXjgC6zZkSk3qkZ7uO5wMTNTqco28b
qdbVakA0pm5Nr2IvFk0jNvvLkehMkXa94IVfN8h2gti84GCJYA0XYKbxrzrTJsE7
qSZRqNLvisc8P51itf0PNwX8K2L4WxPKoupL7qXDSSZf4b9FgGkpheaS6CznPZLB
sTjP+n/vVDJw+Pyfc2Y2mJRVywkHklSw6cbI0pUttn1CDb1zP+KENvCDj8RSFIz1
YJfK6oc0KJFV+X7scWbaDh83KoDDt75Ja/LAESBdC1/IFdzQv/0v89FILcpviSL/
tALzV/SQidleP7Si
-----END CERTIFICATE-----
