Certificate:
    Data:
        Version: 3 (0x2)
        Serial Number: 4118 (0x1016)
        Signature Algorithm: sha256WithRSAEncryption
        Issuer: C=FR, ST=IDF, L=Paris, O=Local NODE-OPCUA Certificate Authority, CN=NodeOPCUA-CA
        Validity
            Not Before: Mar 21 02:38:47 2022 GMT
            Not After : Mar 21 02:38:47 2023 GMT
        Subject: C=FR, O=NodeOPCUA, CN=NodeOPCUA
        Subject Public Key Info:
            Public Key Algorithm: rsaEncryption
                Public-Key: (1024 bit)
                Modulus:
                    00:cb:ff:ad:c4:ac:cc:ab:d0:b6:a5:f0:6a:b2:dc:
                    33:97:25:52:b7:a2:3e:5a:93:b9:62:5c:da:2c:e8:
                    47:1b:36:98:2b:23:7c:91:a9:6a:05:92:24:07:60:
                    1a:16:f3:60:bc:35:2f:2a:fb:94:00:5e:42:20:79:
                    80:e1:38:e0:a5:80:27:a0:3a:b1:f7:f5:2a:1f:7c:
                    cf:2d:88:cc:94:34:df:d1:6e:b5:29:a5:58:14:18:
                    76:75:ea:68:22:00:43:72:70:75:d2:d7:e5:8c:d1:
                    d6:bb:66:e6:ec:1a:32:52:f8:6c:65:66:ec:0d:77:
                    e9:1d:dd:57:b5:87:db:67:79
                Exponent: 65537 (0x10001)
        X509v3 extensions:
            X509v3 Basic Constraints: critical
                CA:FALSE
            X509v3 Subject Key Identifier: 
                C1:0D:C0:99:77:95:53:7A:FB:43:A8:5E:38:95:FF:20:85:4F:DB:37
            X509v3 Authority Key Identifier: 
                keyid:40:72:30:66:AE:C7:F9:DB:9A:75:1B:99:FB:53:D6:38:EA:0C:F1:8B
                DirName:/C=FR/ST=IDF/L=Paris/O=Local NODE-OPCUA Certificate Authority/CN=NodeOPCUA-CA
                serial:72:89:60:A3:11:EF:A6:B0:54:AF:4D:2C:23:89:FC:3E:F9:84:93:A9
            X509v3 Subject Alternative Name: 
                URI:urn:e99d5466f7bb:NodeOPCUA-Server, DNS:e99d5466f7bb, IP Address:127.0.0.1
            Netscape Comment: 
                OpenSSL Generated Certificate
            X509v3 Key Usage: critical
                Digital Signature, Non Repudiation, Key Encipherment, Data Encipherment, Key Agreement, Certificate Sign
            X509v3 Extended Key Usage: critical
                TLS Web Server Authentication, TLS Web Client Authentication
    Signature Algorithm: sha256WithRSAEncryption
    Signature Value:
        8a:05:dd:aa:23:67:0c:0a:42:38:63:2d:4f:a2:71:b9:b8:0b:
        ee:18:58:d8:a6:10:c0:34:06:cd:a2:eb:5b:57:a2:6a:b0:3e:
        50:50:61:01:ee:d4:09:6c:2a:3d:1e:f3:39:97:1c:47:8d:4e:
        47:7f:b3:f4:75:ed:1b:39:d8:c4:f7:1d:4a:11:cb:0e:8f:3a:
        3d:7d:7c:2f:d4:4b:24:8c:ce:fe:5c:a0:0f:2f:ef:24:2a:e8:
        97:6c:4c:ba:ce:fe:f6:01:93:08:83:ce:68:19:9d:b4:ff:8a:
        39:b7:5a:13:93:30:48:73:85:0f:53:6d:70:f6:b3:e9:60:28:
        ea:05:03:73:ee:05:28:32:45:d6:f3:52:2e:50:c0:dc:31:82:
        97:20:18:f8:16:f1:6d:13:74:1d:ad:a6:c1:a4:9f:82:d1:24:
        b5:59:59:4d:a3:c8:08:1e:5c:97:6c:c7:f5:53:fb:92:d2:d1:
        c4:bb:63:9a:b7:b7:8d:b1:64:da:d7:27:94:28:64:14:67:3a:
        0f:36:e7:32:87:1d:46:fc:7c:67:68:9e:22:0d:7f:69:6a:bb:
        a8:db:2f:9c:e7:3f:1b:c3:e6:73:46:aa:f2:28:87:0c:87:a7:
        05:95:35:43:d7:77:93:df:43:55:27:e9:7e:d4:e8:ed:bd:61:
        20:c6:77:74
-----BEGIN CERTIFICATE-----
MIIEKDCCAxCgAwIBAgICEBYwDQYJKoZIhvcNAQELBQAwczELMAkGA1UEBhMCRlIx
DDAKBgNVBAgTA0lERjEOMAwGA1UEBxMFUGFyaXMxLzAtBgNVBAoTJkxvY2FsIE5P
REUtT1BDVUEgQ2VydGlmaWNhdGUgQXV0aG9yaXR5MRUwEwYDVQQDEwxOb2RlT1BD
VUEtQ0EwHhcNMjIwMzIxMDIzODQ3WhcNMjMwMzIxMDIzODQ3WjA1MQswCQYDVQQG
EwJGUjESMBAGA1UECgwJTm9kZU9QQ1VBMRIwEAYDVQQDDAlOb2RlT1BDVUEwgZ8w
DQYJKoZIhvcNAQEBBQADgY0AMIGJAoGBAMv/rcSszKvQtqXwarLcM5clUreiPlqT
uWJc2izoRxs2mCsjfJGpagWSJAdgGhbzYLw1Lyr7lABeQiB5gOE44KWAJ6A6sff1
Kh98zy2IzJQ039FutSmlWBQYdnXqaCIAQ3JwddLX5YzR1rtm5uwaMlL4bGVm7A13
6R3dV7WH22d5AgMBAAGjggGGMIIBgjAMBgNVHRMBAf8EAjAAMB0GA1UdDgQWBBTB
DcCZd5VTevtDqF44lf8ghU/bNzCBsAYDVR0jBIGoMIGlgBRAcjBmrsf525p1G5n7
U9Y46gzxi6F3pHUwczELMAkGA1UEBhMCRlIxDDAKBgNVBAgTA0lERjEOMAwGA1UE
BxMFUGFyaXMxLzAtBgNVBAoTJkxvY2FsIE5PREUtT1BDVUEgQ2VydGlmaWNhdGUg
QXV0aG9yaXR5MRUwEwYDVQQDEwxOb2RlT1BDVUEtQ0GCFHKJYKMR76awVK9NLCOJ
/D75hJOpMEAGA1UdEQQ5MDeGIXVybjplOTlkNTQ2NmY3YmI6Tm9kZU9QQ1VBLVNl
cnZlcoIMZTk5ZDU0NjZmN2JihwR/AAABMCwGCWCGSAGG+EIBDQQfFh1PcGVuU1NM
IEdlbmVyYXRlZCBDZXJ0aWZpY2F0ZTAOBgNVHQ8BAf8EBAMCAvwwIAYDVR0lAQH/
BBYwFAYIKwYBBQUHAwEGCCsGAQUFBwMCMA0GCSqGSIb3DQEBCwUAA4IBAQCKBd2q
I2cMCkI4Yy1PonG5uAvuGFjYphDANAbNoutbV6JqsD5QUGEB7tQJbCo9HvM5lxxH
jU5Hf7P0de0bOdjE9x1KEcsOjzo9fXwv1EskjM7+XKAPL+8kKuiXbEy6zv72AZMI
g85oGZ20/4o5t1oTkzBIc4UPU21w9rPpYCjqBQNz7gUoMkXW81IuUMDcMYKXIBj4
FvFtE3QdrabBpJ+C0SS1WVlNo8gIHlyXbMf1U/uS0tHEu2Oat7eNsWTa1yeUKGQU
ZzoPNucyhx1G/HxnaJ4iDX9paruo2y+c5z8bw+ZzRqryKIcMh6cFlTVD13eT30NV
J+l+1OjtvWEgxnd0
-----END CERTIFICATE-----
