Certificate:
    Data:
        Version: 3 (0x2)
        Serial Number: 4119 (0x1017)
        Signature Algorithm: sha256WithRSAEncryption
        Issuer: C=FR, ST=IDF, L=Paris, O=Local NODE-OPCUA Certificate Authority, CN=NodeOPCUA-CA
        Validity
            Not Before: Mar 20 02:38:47 2025 GMT
            Not After : Mar 20 02:38:47 2026 GMT
        Subject: C=FR, O=NodeOPCUA, CN=NodeOPCUA
        Subject Public Key Info:
            Public Key Algorithm: rsaEncryption
                Public-Key: (1024 bit)
                Modulus:
                    00:cb:ff:ad:c4:ac:cc:ab:d0:b6:a5:f0:6a:b2:dc:
                    33:97:25:52:b7:a2:3e:5a:93:b9:62:5c:da:2c:e8:
                    47:1b:36:98:2b:23:7c:91:a9:6a:05:92:24:07:60:
                    1a:16:f3:60:bc:35:2f:2a:fb:94:00:5e:42:20:79:
                    80:e1:38:e0:a5:80:27:a0:3a:b1:f7:f5:2a:1f:7c:
                    cf:2d:88:cc:94:34:df:d1:6e:b5:29:a5:58:14:18:
                    76:75:ea:68:22:00:43:72:70:75:d2:d7:e5:8c:d1:
                    d6:bb:66:e6:ec:1a:32:52:f8:6c:65:66:ec:0d:77:
                    e9:1d:dd:57:b5:87:db:67:79
                Exponent: 65537 (0x10001)
        X509v3 extensions:
            X509v3 Basic Constraints: critical
                CA:FALSE
            X509v3 Subject Key Identifier: 
                C1:0D:C0:99:77:95:53:7A:FB:43:A8:5E:38:95:FF:20:85:4F:DB:37
            X509v3 Authority Key Identifier: 
                keyid:40:72:30:66:AE:C7:F9:DB:9A:75:1B:99:FB:53:D6:38:EA:0C:F1:8B
                DirName:/C=FR/ST=IDF/L=Paris/O=Local NODE-OPCUA Certificate Authority/CN=NodeOPCUA-CA
                serial:72:89:60:A3:11:EF:A6:B0:54:AF:4D:2C:23:89:FC:3E:F9:84:93:A9
            X509v3 Subject Alternative Name: 
                URI:urn:e99d5466f7bb:NodeOPCUA-Server, DNS:e99d5466f7bb, IP Address:127.0.0.1
            Netscape Comment: 
                OpenSSL Generated Certificate
            X509v3 Key Usage: critical
                Digital Signature, Non Repudiation, Key Encipherment, Data Encipherment, Key Agreement, Certificate Sign
            X509v3 Extended Key Usage: critical
                TLS Web Server Authentication, TLS Web Client Authentication
    Signature Algorithm: sha256WithRSAEncryption
    Signature Value:
        a4:ae:81:25:f1:e7:54:e6:28:17:c0:36:2c:7f:f8:95:97:70:
        fd:52:4c:aa:83:ee:ef:42:be:36:b6:54:d3:78:da:66:b5:a5:
        cf:60:0b:12:da:01:d8:32:8c:f9:b3:0b:18:a9:61:35:8e:98:
        23:e3:0c:ba:a9:49:81:74:a2:e8:a0:5f:9f:56:82:ed:97:c4:
        84:0f:53:a4:42:fd:ca:8d:f2:5e:64:d2:1c:b6:ba:4b:16:bf:
        05:59:c5:13:45:20:7c:0a:9a:58:57:3f:da:8a:66:43:0b:f1:
        14:62:ea:21:cd:a1:a5:5c:b0:db:c4:47:20:ab:57:e2:3e:5d:
        41:11:1b:af:94:09:45:fc:d3:14:18:97:e8:8c:02:cb:d5:0d:
        d9:16:5e:ed:46:09:63:22:b1:9a:5a:a5:53:65:6a:61:17:03:
        6d:03:f3:44:b8:55:f3:f5:90:57:f3:9f:69:5f:ae:ad:b2:ea:
        2c:45:e4:0e:dc:71:75:a6:a0:83:53:a1:c7:04:f7:b1:77:fb:
        95:fe:f7:6f:c0:ea:d5:9e:c5:6b:f5:2a:d4:cb:e7:03:5e:45:
        07:99:c3:7e:a9:cb:9d:07:26:8d:c9:63:29:e2:e3:02:ba:e1:
        37:5e:7f:98:fe:62:f0:33:03:da:e4:33:aa:b4:1d:ee:23:24:
        b4:93:64:35
-----BEGIN CERTIFICATE-----
MIIEKDCCAxCgAwIBAgICEBcwDQYJKoZIhvcNAQELBQAwczELMAkGA1UEBhMCRlIx
DDAKBgNVBAgTA0lERjEOMAwGA1UEBxMFUGFyaXMxLzAtBgNVBAoTJkxvY2FsIE5P
REUtT1BDVUEgQ2VydGlmaWNhdGUgQXV0aG9yaXR5MRUwEwYDVQQDEwxOb2RlT1BD
VUEtQ0EwHhcNMjUwMzIwMDIzODQ3WhcNMjYwMzIwMDIzODQ3WjA1MQswCQYDVQQG
EwJGUjESMBAGA1UECgwJTm9kZU9QQ1VBMRIwEAYDVQQDDAlOb2RlT1BDVUEwgZ8w
DQYJKoZIhvcNAQEBBQADgY0AMIGJAoGBAMv/rcSszKvQtqXwarLcM5clUreiPlqT
uWJc2izoRxs2mCsjfJGpagWSJAdgGhbzYLw1Lyr7lABeQiB5gOE44KWAJ6A6sff1
Kh98zy2IzJQ039FutSmlWBQYdnXqaCIAQ3JwddLX5YzR1rtm5uwaMlL4bGVm7A13
6R3dV7WH22d5AgMBAAGjggGGMIIBgjAMBgNVHRMBAf8EAjAAMB0GA1UdDgQWBBTB
DcCZd5VTevtDqF44lf8ghU/bNzCBsAYDVR0jBIGoMIGlgBRAcjBmrsf525p1G5n7
U9Y46gzxi6F3pHUwczELMAkGA1UEBhMCRlIxDDAKBgNVBAgTA0lERjEOMAwGA1UE
BxMFUGFyaXMxLzAtBgNVBAoTJkxvY2FsIE5PREUtT1BDVUEgQ2VydGlmaWNhdGUg
QXV0aG9yaXR5MRUwEwYDVQQDEwxOb2RlT1BDVUEtQ0GCFHKJYKMR76awVK9NLCOJ
/D75hJOpMEAGA1UdEQQ5MDeGIXVybjplOTlkNTQ2NmY3YmI6Tm9kZU9QQ1VBLVNl
cnZlcoIMZTk5ZDU0NjZmN2JihwR/AAABMCwGCWCGSAGG+EIBDQQfFh1PcGVuU1NM
IEdlbmVyYXRlZCBDZXJ0aWZpY2F0ZTAOBgNVHQ8BAf8EBAMCAvwwIAYDVR0lAQH/
BBYwFAYIKwYBBQUHAwEGCCsGAQUFBwMCMA0GCSqGSIb3DQEBCwUAA4IBAQCkroEl
8edU5igXwDYsf/iVl3D9Ukyqg+7vQr42tlTTeNpmtaXPYAsS2gHYMoz5swsYqWE1
jpgj4wy6qUmBdKLooF+fVoLtl8SED1OkQv3KjfJeZNIctrpLFr8FWcUTRSB8CppY
Vz/aimZDC/EUYuohzaGlXLDbxEcgq1fiPl1BERuvlAlF/NMUGJfojALL1Q3ZFl7t
RgljIrGaWqVTZWphFwNtA/NEuFXz9ZBX859pX66tsuosReQO3HF1pqCDU6HHBPex
d/uV/vdvwOrVnsVr9SrUy+cDXkUHmcN+qcudByaNyWMp4uMCuuE3Xn+Y/mLwMwPa
5DOqtB3uIyS0k2Q1
-----END CERTIFICATE-----
