Certificate:
    Data:
        Version: 3 (0x2)
        Serial Number: 4120 (0x1018)
        Signature Algorithm: sha256WithRSAEncryption
        Issuer: C=FR, ST=IDF, L=Paris, O=Local NODE-OPCUA Certificate Authority, CN=NodeOPCUA-CA
        Validity
            Not Before: Mar 19 02:38:47 2024 GMT
            Not After : Mar 19 02:38:47 2025 GMT
        Subject: C=FR, O=NodeOPCUA, CN=NodeOPCUA
        Subject Public Key Info:
            Public Key Algorithm: rsaEncryption
                Public-Key: (1024 bit)
                Modulus:
                    00:cb:ff:ad:c4:ac:cc:ab:d0:b6:a5:f0:6a:b2:dc:
                    33:97:25:52:b7:a2:3e:5a:93:b9:62:5c:da:2c:e8:
                    47:1b:36:98:2b:23:7c:91:a9:6a:05:92:24:07:60:
                    1a:16:f3:60:bc:35:2f:2a:fb:94:00:5e:42:20:79:
                    80:e1:38:e0:a5:80:27:a0:3a:b1:f7:f5:2a:1f:7c:
                    cf:2d:88:cc:94:34:df:d1:6e:b5:29:a5:58:14:18:
                    76:75:ea:68:22:00:43:72:70:75:d2:d7:e5:8c:d1:
                    d6:bb:66:e6:ec:1a:32:52:f8:6c:65:66:ec:0d:77:
                    e9:1d:dd:57:b5:87:db:67:79
                Exponent: 65537 (0x10001)
        X509v3 extensions:
            X509v3 Basic Constraints: critical
                CA:FALSE
            X509v3 Subject Key Identifier: 
                C1:0D:C0:99:77:95:53:7A:FB:43:A8:5E:38:95:FF:20:85:4F:DB:37
            X509v3 Authority Key Identifier: 
                keyid:40:72:30:66:AE:C7:F9:DB:9A:75:1B:99:FB:53:D6:38:EA:0C:F1:8B
                DirName:/C=FR/ST=IDF/L=Paris/O=Local NODE-OPCUA Certificate Authority/CN=NodeOPCUA-CA
                serial:72:89:60:A3:11:EF:A6:B0:54:AF:4D:2C:23:89:FC:3E:F9:84:93:A9
            X509v3 Subject Alternative Name: 
                URI:urn:e99d5466f7bb:NodeOPCUA-ServerRevoked, DNS:e99d5466f7bb, IP Address:127.0.0.1
            Netscape Comment: 
                OpenSSL Generated Certificate
            X509v3 Key Usage: critical
                Digital Signature, Non Repudiation, Key Encipherment, Data Encipherment, Key Agreement, Certificate Sign
            X509v3 Extended Key Usage: critical
                TLS Web Server Authentication, TLS Web Client Authentication
    Signature Algorithm: sha256WithRSAEncryption
    Signature Value:
        1f:02:6d:dc:61:60:73:46:4a:f1:7f:6a:45:20:8c:63:12:32:
        aa:c8:42:d7:a7:ed:e3:bc:ac:9f:9d:a5:f3:cd:ca:db:ef:3b:
        b9:d6:2d:83:8a:a6:ee:58:e0:37:0f:d6:ed:4a:f5:5f:9e:d0:
        7f:fc:5d:72:7d:72:fa:52:0c:3e:68:e9:c3:49:f1:f4:ac:76:
        5a:d2:20:f6:26:2e:f0:ee:31:69:83:40:52:fe:59:16:8c:d7:
        56:72:1a:d1:65:ea:9b:73:04:4d:9d:2a:ab:17:85:b9:7f:94:
        13:7c:88:5f:04:ef:39:38:04:36:5a:b1:82:83:c4:4b:aa:33:
        fa:16:90:6e:20:5a:b8:a6:9c:9b:cf:46:50:1f:51:95:88:e1:
        ab:bd:60:0c:dd:85:3e:a1:ec:fd:0c:25:0c:c3:e7:79:e4:cd:
        43:71:ec:e5:97:e9:e0:91:21:bb:5b:25:13:c3:ed:65:ba:3f:
        c7:02:fc:4c:7d:b4:c6:b6:39:ec:ac:0d:83:46:01:4c:78:de:
        9c:c4:35:a1:f8:55:b1:6f:64:60:d6:63:a0:14:b4:f2:17:3e:
        28:65:a9:66:0e:99:3d:c9:6e:63:42:33:cf:a2:50:20:50:88:
        aa:1c:c0:d1:dc:61:69:e6:6b:77:0f:a6:a7:68:72:7e:cf:b0:
        6c:5f:98:b1
-----BEGIN CERTIFICATE-----
MIIELzCCAxegAwIBAgICEBgwDQYJKoZIhvcNAQELBQAwczELMAkGA1UEBhMCRlIx
DDAKBgNVBAgTA0lERjEOMAwGA1UEBxMFUGFyaXMxLzAtBgNVBAoTJkxvY2FsIE5P
REUtT1BDVUEgQ2VydGlmaWNhdGUgQXV0aG9yaXR5MRUwEwYDVQQDEwxOb2RlT1BD
VUEtQ0EwHhcNMjQwMzE5MDIzODQ3WhcNMjUwMzE5MDIzODQ3WjA1MQswCQYDVQQG
EwJGUjESMBAGA1UECgwJTm9kZU9QQ1VBMRIwEAYDVQQDDAlOb2RlT1BDVUEwgZ8w
DQYJKoZIhvcNAQEBBQADgY0AMIGJAoGBAMv/rcSszKvQtqXwarLcM5clUreiPlqT
uWJc2izoRxs2mCsjfJGpagWSJAdgGhbzYLw1Lyr7lABeQiB5gOE44KWAJ6A6sff1
Kh98zy2IzJQ039FutSmlWBQYdnXqaCIAQ3JwddLX5YzR1rtm5uwaMlL4bGVm7A13
6R3dV7WH22d5AgMBAAGjggGNMIIBiTAMBgNVHRMBAf8EAjAAMB0GA1UdDgQWBBTB
DcCZd5VTevtDqF44lf8ghU/bNzCBsAYDVR0jBIGoMIGlgBRAcjBmrsf525p1G5n7
U9Y46gzxi6F3pHUwczELMAkGA1UEBhMCRlIxDDAKBgNVBAgTA0lERjEOMAwGA1UE
BxMFUGFyaXMxLzAtBgNVBAoTJkxvY2FsIE5PREUtT1BDVUEgQ2VydGlmaWNhdGUg
QXV0aG9yaXR5MRUwEwYDVQQDEwxOb2RlT1BDVUEtQ0GCFHKJYKMR76awVK9NLCOJ
/D75hJOpMEcGA1UdEQRAMD6GKHVybjplOTlkNTQ2NmY3YmI6Tm9kZU9QQ1VBLVNl
cnZlclJldm9rZWSCDGU5OWQ1NDY2ZjdiYocEfwAAATAsBglghkgBhvhCAQ0EHxYd
T3BlblNTTCBHZW5lcmF0ZWQgQ2VydGlmaWNhdGUwDgYDVR0PAQH/BAQDAgL8MCAG
A1UdJQEB/wQWMBQGCCsGAQUFBwMBBggrBgEFBQcDAjANBgkqhkiG9w0BAQsFAAOC
AQEAHwJt3GFgc0ZK8X9qRSCMYxIyqshC16ft47ysn52l883K2+87udYtg4qm7ljg
Nw/W7Ur1X57Qf/xdcn1y+lIMPmjpw0nx9Kx2WtIg9iYu8O4xaYNAUv5ZFozXVnIa
0WXqm3METZ0qqxeFuX+UE3yIXwTvOTgENlqxgoPES6oz+haQbiBauKacm89GUB9R
lYjhq71gDN2FPqHs/QwlDMPneeTNQ3Hs5Zfp4JEhu1slE8PtZbo/xwL8TH20xrY5
7KwNg0YBTHjenMQ1ofhVsW9kYNZjoBS08hc+KGWpZg6ZPcluY0Izz6JQIFCIqhzA
0dxhaeZrdw+mp2hyfs+wbF+YsQ==
-----END CERTIFICATE-----
