Certificate:
    Data:
        Version: 3 (0x2)
        Serial Number: 4125 (0x101d)
        Signature Algorithm: sha256WithRSAEncryption
        Issuer: C=FR, ST=IDF, L=Paris, O=Local NODE-OPCUA Certificate Authority, CN=NodeOPCUA-CA
        Validity
            Not Before: Mar 19 02:38:47 2024 GMT
            Not After : Mar 19 02:38:47 2025 GMT
        Subject: C=FR, O=NodeOPCUA, CN=NodeOPCUA
        Subject Public Key Info:
            Public Key Algorithm: rsaEncryption
                Public-Key: (2048 bit)
                Modulus:
                    00:bf:b6:4b:d0:b6:6d:a0:cb:06:27:79:cc:e0:21:
                    7f:8b:7f:ef:da:76:dc:66:46:18:7f:97:b9:52:5a:
                    d5:a9:f5:8d:2b:ec:c2:0b:ad:d8:dc:c4:b2:62:21:
                    96:01:ca:33:2a:e5:d8:1d:b1:04:13:7b:69:19:37:
                    42:4b:6c:39:86:f9:66:8f:83:5d:d3:5e:73:35:20:
                    e2:73:87:ac:39:e8:8a:df:f2:ad:a0:12:b1:50:b2:
                    10:79:6e:4a:bc:bb:b3:49:b3:04:fd:7e:ae:00:da:
                    1f:7e:1b:5a:b8:30:ec:fe:07:32:38:df:83:0a:ce:
                    a3:f9:fd:4b:6a:25:41:b2:f7:81:cf:74:30:61:31:
                    50:e3:cd:07:28:dd:a1:1b:0e:4e:dd:5c:2b:2a:a1:
                    8d:c8:ba:59:59:53:7a:41:e1:93:65:26:70:e4:56:
                    36:7b:67:8f:ba:92:b7:5d:d5:30:58:5e:63:7e:a7:
                    a8:eb:c0:33:3c:85:5c:d4:85:a8:66:a0:66:a9:6d:
                    4c:d7:ec:58:eb:02:d0:c8:34:dc:14:5e:6a:c4:85:
                    d0:e2:54:bb:b4:80:c1:3b:c6:a0:5e:d9:f2:3c:80:
                    89:dc:83:4f:e3:83:4b:1c:63:9c:07:0d:9f:11:51:
                    62:d5:7b:7a:83:dc:04:4c:4e:52:7f:d0:8c:a5:d8:
                    f1:53
                Exponent: 65537 (0x10001)
        X509v3 extensions:
            X509v3 Basic Constraints: critical
                CA:FALSE
            X509v3 Subject Key Identifier: 
                97:7C:FB:56:8C:9B:B5:73:A9:67:3E:DF:AB:15:E7:CA:C5:47:A8:A9
            X509v3 Authority Key Identifier: 
                keyid:40:72:30:66:AE:C7:F9:DB:9A:75:1B:99:FB:53:D6:38:EA:0C:F1:8B
                DirName:/C=FR/ST=IDF/L=Paris/O=Local NODE-OPCUA Certificate Authority/CN=NodeOPCUA-CA
                serial:72:89:60:A3:11:EF:A6:B0:54:AF:4D:2C:23:89:FC:3E:F9:84:93:A9
            X509v3 Subject Alternative Name: 
                URI:urn:e99d5466f7bb:NodeOPCUA-ServerRevoked, DNS:e99d5466f7bb, IP Address:127.0.0.1
            Netscape Comment: 
                OpenSSL Generated Certificate
            X509v3 Key Usage: critical
                Digital Signature, Non Repudiation, Key Encipherment, Data Encipherment, Key Agreement, Certificate Sign
            X509v3 Extended Key Usage: critical
                TLS Web Server Authentication, TLS Web Client Authentication
    Signature Algorithm: sha256WithRSAEncryption
    Signature Value:
        26:57:00:14:ee:aa:4c:80:dc:cd:40:19:33:12:31:82:22:e1:
        ac:cb:41:cc:62:78:46:61:29:a0:8d:03:da:8a:97:64:b6:3b:
        fe:f0:08:73:b4:64:27:59:b9:f7:c2:da:39:b4:a5:31:23:54:
        9d:be:2f:6d:ca:89:79:b5:00:27:f5:6d:e2:9c:66:bf:34:3f:
        cc:85:9e:0b:8f:6f:06:2c:40:d8:30:84:34:e4:d7:ae:95:30:
        80:bf:30:74:c2:2b:bd:b2:93:ce:00:aa:cf:64:13:b8:b6:1b:
        e9:13:90:47:0f:9b:66:84:99:8e:15:5f:4a:ba:15:c4:9d:23:
        e6:41:c4:02:66:da:cf:5e:1d:83:44:1e:3c:b4:54:0a:c5:da:
        bf:9c:5f:cf:03:74:4e:00:d6:1f:54:8f:4a:67:d6:ad:30:e3:
        09:d1:b7:e5:4c:01:0e:4d:24:31:6d:57:c2:12:05:00:64:22:
        56:cf:19:2c:77:d8:7b:8f:dc:26:47:79:bf:52:51:d8:e0:9f:
        98:33:e8:8f:b7:3a:57:ae:59:e8:20:cb:8d:9f:6b:e8:91:36:
        fc:cc:43:12:89:58:78:a1:bd:f3:69:b2:c6:27:49:96:95:39:
        b1:04:a5:e2:7a:d7:8a:da:c7:64:29:14:6b:47:f9:eb:5d:5d:
        f6:61:22:60
-----BEGIN CERTIFICATE-----
MIIEszCCA5ugAwIBAgICEB0wDQYJKoZIhvcNAQELBQAwczELMAkGA1UEBhMCRlIx
DDAKBgNVBAgTA0lERjEOMAwGA1UEBxMFUGFyaXMxLzAtBgNVBAoTJkxvY2FsIE5P
REUtT1BDVUEgQ2VydGlmaWNhdGUgQXV0aG9yaXR5MRUwEwYDVQQDEwxOb2RlT1BD
VUEtQ0EwHhcNMjQwMzE5MDIzODQ3WhcNMjUwMzE5MDIzODQ3WjA1MQswCQYDVQQG
EwJGUjESMBAGA1UECgwJTm9kZU9QQ1VBMRIwEAYDVQQDDAlOb2RlT1BDVUEwggEi
MA0GCSqGSIb3DQEBAQUAA4IBDwAwggEKAoIBAQC/tkvQtm2gywYneczgIX+Lf+/a
dtxmRhh/l7lSWtWp9Y0r7MILrdjcxLJiIZYByjMq5dgdsQQTe2kZN0JLbDmG+WaP
g13TXnM1IOJzh6w56Irf8q2gErFQshB5bkq8u7NJswT9fq4A2h9+G1q4MOz+BzI4
34MKzqP5/UtqJUGy94HPdDBhMVDjzQco3aEbDk7dXCsqoY3IullZU3pB4ZNlJnDk
VjZ7Z4+6krdd1TBYXmN+p6jrwDM8hVzUhahmoGapbUzX7FjrAtDINNwUXmrEhdDi
VLu0gME7xqBe2fI8gIncg0/jg0scY5wHDZ8RUWLVe3qD3ARMTlJ/0Iyl2PFTAgMB
AAGjggGNMIIBiTAMBgNVHRMBAf8EAjAAMB0GA1UdDgQWBBSXfPtWjJu1c6lnPt+r
FefKxUeoqTCBsAYDVR0jBIGoMIGlgBRAcjBmrsf525p1G5n7U9Y46gzxi6F3pHUw
czELMAkGA1UEBhMCRlIxDDAKBgNVBAgTA0lERjEOMAwGA1UEBxMFUGFyaXMxLzAt
BgNVBAoTJkxvY2FsIE5PREUtT1BDVUEgQ2VydGlmaWNhdGUgQXV0aG9yaXR5MRUw
EwYDVQQDEwxOb2RlT1BDVUEtQ0GCFHKJYKMR76awVK9NLCOJ/D75hJOpMEcGA1Ud
EQRAMD6GKHVybjplOTlkNTQ2NmY3YmI6Tm9kZU9QQ1VBLVNlcnZlclJldm9rZWSC
DGU5OWQ1NDY2ZjdiYocEfwAAATAsBglghkgBhvhCAQ0EHxYdT3BlblNTTCBHZW5l
cmF0ZWQgQ2VydGlmaWNhdGUwDgYDVR0PAQH/BAQDAgL8MCAGA1UdJQEB/wQWMBQG
CCsGAQUFBwMBBggrBgEFBQcDAjANBgkqhkiG9w0BAQsFAAOCAQEAJlcAFO6qTIDc
zUAZMxIxgiLhrMtBzGJ4RmEpoI0D2oqXZLY7/vAIc7RkJ1m598LaObSlMSNUnb4v
bcqJebUAJ/Vt4pxmvzQ/zIWeC49vBixA2DCENOTXrpUwgL8wdMIrvbKTzgCqz2QT
uLYb6ROQRw+bZoSZjhVfSroVxJ0j5kHEAmbaz14dg0QePLRUCsXav5xfzwN0TgDW
H1SPSmfWrTDjCdG35UwBDk0kMW1XwhIFAGQiVs8ZLHfYe4/cJkd5v1JR2OCfmDPo
j7c6V65Z6CDLjZ9r6JE2/MxDEolYeKG982myxidJlpU5sQSl4nrXitrHZCkUa0f5
611d9mEiYA==
-----END CERTIFICATE-----
