Certificate:
    Data:
        Version: 3 (0x2)
        Serial Number: 4126 (0x101e)
        Signature Algorithm: sha256WithRSAEncryption
        Issuer: C=FR, ST=IDF, L=Paris, O=Local NODE-OPCUA Certificate Authority, CN=NodeOPCUA-CA
        Validity
            Not Before: Mar 19 02:38:47 2024 GMT
            Not After : Mar 19 02:38:47 2025 GMT
        Subject: C=FR, O=NodeOPCUA, CN=NodeOPCUA
        Subject Public Key Info:
            Public Key Algorithm: rsaEncryption
                Public-Key: (3072 bit)
                Modulus:
                    00:b1:34:6d:f2:cc:a2:f5:5a:b2:6c:57:75:28:8c:
                    10:70:71:8b:d8:05:05:eb:25:c6:ee:29:53:db:6a:
                    5e:ee:aa:81:2e:99:e7:12:16:b8:ac:1e:18:fc:fa:
                    1e:14:eb:56:66:33:70:c1:11:36:75:4b:9c:24:a2:
                    0c:84:7b:6a:4b:d5:7f:e3:18:b9:6b:55:f2:57:8d:
                    d5:da:72:1b:ab:c8:6b:e3:57:3a:f5:56:c2:87:2e:
                    3b:ea:ce:ea:4c:67:d1:93:46:a3:6b:c1:b5:74:1c:
                    b3:98:ba:61:72:29:4e:ee:4c:7c:5a:e9:12:9a:c0:
                    3d:a3:fc:d6:17:80:af:f5:a6:46:ef:01:12:db:a1:
                    d3:4a:f2:de:18:0c:69:96:7a:f4:65:41:6d:f3:95:
                    9e:4f:32:15:5c:be:f9:3c:f2:20:c7:23:bd:82:ed:
                    bc:d1:9a:f3:d1:87:d3:e0:1b:1c:eb:af:e3:28:05:
                    6f:34:ef:18:36:c5:ed:fc:10:61:f8:0b:b4:70:7d:
                    7b:bc:9a:aa:13:9b:a5:b8:bf:bf:6b:0e:b0:52:30:
                    43:1f:37:bb:24:6a:1f:55:ed:a5:e5:de:47:29:ce:
                    94:ff:76:68:d7:a8:e2:b6:89:9a:16:9a:d4:a8:75:
                    9d:8c:39:6d:f5:78:07:77:40:c8:19:ca:b0:9d:50:
                    51:28:00:ef:e7:06:ba:1d:5d:61:7a:71:82:2f:a6:
                    46:ff:e0:25:57:0f:c0:0b:ce:73:8e:f8:8e:5a:ac:
                    97:5f:70:06:15:ff:56:a5:c6:d4:0c:60:b3:35:b5:
                    54:9f:4a:84:c5:b7:40:77:ea:e9:26:79:ab:94:79:
                    88:ea:04:08:12:02:88:7f:c1:ba:82:0e:6d:66:61:
                    7f:78:90:84:89:b3:66:de:18:62:9a:fb:a8:61:cf:
                    1f:45:91:aa:d0:92:39:8a:33:9c:13:34:55:44:5d:
                    cf:92:52:4e:ef:49:35:3a:32:36:a8:ac:af:a9:f7:
                    89:42:45:58:92:6d:38:a7:29:cd
                Exponent: 65537 (0x10001)
        X509v3 extensions:
            X509v3 Basic Constraints: critical
                CA:FALSE
            X509v3 Subject Key Identifier: 
                5C:10:B6:C9:72:18:D5:D5:5B:9A:B1:4D:25:BA:61:51:A6:45:48:F4
            X509v3 Authority Key Identifier: 
                keyid:40:72:30:66:AE:C7:F9:DB:9A:75:1B:99:FB:53:D6:38:EA:0C:F1:8B
                DirName:/C=FR/ST=IDF/L=Paris/O=Local NODE-OPCUA Certificate Authority/CN=NodeOPCUA-CA
                serial:72:89:60:A3:11:EF:A6:B0:54:AF:4D:2C:23:89:FC:3E:F9:84:93:A9
            X509v3 Subject Alternative Name: 
                URI:urn:e99d5466f7bb:NodeOPCUA-Server, DNS:e99d5466f7bb, IP Address:127.0.0.1
            Netscape Comment: 
                OpenSSL Generated Certificate
            X509v3 Key Usage: critical
                Digital Signature, Non Repudiation, Key Encipherment, Data Encipherment, Key Agreement, Certificate Sign
            X509v3 Extended Key Usage: critical
                TLS Web Server Authentication, TLS Web Client Authentication
    Signature Algorithm: sha256WithRSAEncryption
    Signature Value:
        6f:70:72:47:4d:ae:2b:33:a1:c7:ce:14:71:5a:5b:fa:de:d9:
        67:60:1f:20:d4:b8:44:54:22:ee:e1:5c:04:ff:96:13:f3:bb:
        b5:db:cb:6f:6b:eb:cc:c7:1f:ee:78:a1:9a:38:97:e3:85:45:
        f1:b0:18:2b:e6:fc:08:d1:f6:df:b2:a0:47:9b:a1:4e:10:c7:
        e6:10:72:2d:47:59:b1:8a:4f:dd:68:9a:24:a0:d3:9f:7a:62:
        be:a8:94:c8:b4:fd:c4:15:3c:94:94:94:b0:a8:53:5f:92:ca:
        d8:7f:2d:09:46:c6:44:9f:2a:b6:fb:c6:a3:97:c5:f1:c0:b3:
        2d:1c:32:fc:39:d8:1e:df:58:c8:1e:ac:d2:5e:40:01:01:5f:
        d5:e0:b1:8f:6c:fe:28:c7:61:2a:74:9e:19:5b:28:f4:52:67:
        36:40:c9:40:a1:ee:14:af:95:dc:fa:3a:f5:e5:39:2d:8f:ce:
        fa:3d:2e:b8:84:fe:7f:1f:d7:08:b3:d9:4c:69:c6:60:b7:a4:
        15:5b:23:00:8d:7b:6c:79:fe:ee:fc:b5:a7:68:54:c0:f9:b9:
        25:fe:72:7d:92:22:fb:d6:d8:f9:4e:7f:30:06:ef:76:ba:8b:
        c6:9b:db:10:4d:b5:7b:d1:60:7f:5e:bf:97:da:05:74:40:bf:
        14:c0:ab:2f
-----BEGIN CERTIFICATE-----
MIIFLDCCBBSgAwIBAgICEB4wDQYJKoZIhvcNAQELBQAwczELMAkGA1UEBhMCRlIx
DDAKBgNVBAgTA0lERjEOMAwGA1UEBxMFUGFyaXMxLzAtBgNVBAoTJkxvY2FsIE5P
REUtT1BDVUEgQ2VydGlmaWNhdGUgQXV0aG9yaXR5MRUwEwYDVQQDEwxOb2RlT1BD
VUEtQ0EwHhcNMjQwMzE5MDIzODQ3WhcNMjUwMzE5MDIzODQ3WjA1MQswCQYDVQQG
EwJGUjESMBAGA1UECgwJTm9kZU9QQ1VBMRIwEAYDVQQDDAlOb2RlT1BDVUEwggGi
MA0GCSqGSIb3DQEBAQUAA4IBjwAwggGKAoIBgQCxNG3yzKL1WrJsV3UojBBwcYvY
BQXrJcbuKVPbal7uqoEumecSFrisHhj8+h4U61ZmM3DBETZ1S5wkogyEe2pL1X/j
GLlrVfJXjdXachuryGvjVzr1VsKHLjvqzupMZ9GTRqNrwbV0HLOYumFyKU7uTHxa
6RKawD2j/NYXgK/1pkbvARLbodNK8t4YDGmWevRlQW3zlZ5PMhVcvvk88iDHI72C
7bzRmvPRh9PgGxzrr+MoBW807xg2xe38EGH4C7RwfXu8mqoTm6W4v79rDrBSMEMf
N7skah9V7aXl3kcpzpT/dmjXqOK2iZoWmtSodZ2MOW31eAd3QMgZyrCdUFEoAO/n
BrodXWF6cYIvpkb/4CVXD8ALznOO+I5arJdfcAYV/1alxtQMYLM1tVSfSoTFt0B3
6ukmeauUeYjqBAgSAoh/wbqCDm1mYX94kISJs2beGGKa+6hhzx9FkarQkjmKM5wT
NFVEXc+SUk7vSTU6MjaorK+p94lCRViSbTinKc0CAwEAAaOCAYYwggGCMAwGA1Ud
EwEB/wQCMAAwHQYDVR0OBBYEFFwQtslyGNXVW5qxTSW6YVGmRUj0MIGwBgNVHSME
gagwgaWAFEByMGaux/nbmnUbmftT1jjqDPGLoXekdTBzMQswCQYDVQQGEwJGUjEM
MAoGA1UECBMDSURGMQ4wDAYDVQQHEwVQYXJpczEvMC0GA1UEChMmTG9jYWwgTk9E
RS1PUENVQSBDZXJ0aWZpY2F0ZSBBdXRob3JpdHkxFTATBgNVBAMTDE5vZGVPUENV
QS1DQYIUcolgoxHvprBUr00sI4n8PvmEk6kwQAYDVR0RBDkwN4YhdXJuOmU5OWQ1
NDY2ZjdiYjpOb2RlT1BDVUEtU2VydmVyggxlOTlkNTQ2NmY3YmKHBH8AAAEwLAYJ
YIZIAYb4QgENBB8WHU9wZW5TU0wgR2VuZXJhdGVkIENlcnRpZmljYXRlMA4GA1Ud
DwEB/wQEAwIC/DAgBgNVHSUBAf8EFjAUBggrBgEFBQcDAQYIKwYBBQUHAwIwDQYJ
KoZIhvcNAQELBQADggEBAG9wckdNriszocfOFHFaW/re2WdgHyDUuERUIu7hXAT/
lhPzu7Xby29r68zHH+54oZo4l+OFRfGwGCvm/AjR9t+yoEeboU4Qx+YQci1HWbGK
T91omiSg0596Yr6olMi0/cQVPJSUlLCoU1+Syth/LQlGxkSfKrb7xqOXxfHAsy0c
Mvw52B7fWMgerNJeQAEBX9XgsY9s/ijHYSp0nhlbKPRSZzZAyUCh7hSvldz6OvXl
OS2Pzvo9LriE/n8f1wiz2UxpxmC3pBVbIwCNe2x5/u78tadoVMD5uSX+cn2SIvvW
2PlOfzAG73a6i8ab2xBNtXvRYH9ev5faBXRAvxTAqy8=
-----END CERTIFICATE-----
