Certificate:
    Data:
        Version: 3 (0x2)
        Serial Number: 4128 (0x1020)
        Signature Algorithm: sha256WithRSAEncryption
        Issuer: C=FR, ST=IDF, L=Paris, O=Local NODE-OPCUA Certificate Authority, CN=NodeOPCUA-CA
        Validity
            Not Before: Mar 21 02:38:47 2022 GMT
            Not After : Mar 21 02:38:47 2023 GMT
        Subject: C=FR, O=NodeOPCUA, CN=NodeOPCUA
        Subject Public Key Info:
            Public Key Algorithm: rsaEncryption
                Public-Key: (3072 bit)
                Modulus:
                    00:b1:34:6d:f2:cc:a2:f5:5a:b2:6c:57:75:28:8c:
                    10:70:71:8b:d8:05:05:eb:25:c6:ee:29:53:db:6a:
                    5e:ee:aa:81:2e:99:e7:12:16:b8:ac:1e:18:fc:fa:
                    1e:14:eb:56:66:33:70:c1:11:36:75:4b:9c:24:a2:
                    0c:84:7b:6a:4b:d5:7f:e3:18:b9:6b:55:f2:57:8d:
                    d5:da:72:1b:ab:c8:6b:e3:57:3a:f5:56:c2:87:2e:
                    3b:ea:ce:ea:4c:67:d1:93:46:a3:6b:c1:b5:74:1c:
                    b3:98:ba:61:72:29:4e:ee:4c:7c:5a:e9:12:9a:c0:
                    3d:a3:fc:d6:17:80:af:f5:a6:46:ef:01:12:db:a1:
                    d3:4a:f2:de:18:0c:69:96:7a:f4:65:41:6d:f3:95:
                    9e:4f:32:15:5c:be:f9:3c:f2:20:c7:23:bd:82:ed:
                    bc:d1:9a:f3:d1:87:d3:e0:1b:1c:eb:af:e3:28:05:
                    6f:34:ef:18:36:c5:ed:fc:10:61:f8:0b:b4:70:7d:
                    7b:bc:9a:aa:13:9b:a5:b8:bf:bf:6b:0e:b0:52:30:
                    43:1f:37:bb:24:6a:1f:55:ed:a5:e5:de:47:29:ce:
                    94:ff:76:68:d7:a8:e2:b6:89:9a:16:9a:d4:a8:75:
                    9d:8c:39:6d:f5:78:07:77:40:c8:19:ca:b0:9d:50:
                    51:28:00:ef:e7:06:ba:1d:5d:61:7a:71:82:2f:a6:
                    46:ff:e0:25:57:0f:c0:0b:ce:73:8e:f8:8e:5a:ac:
                    97:5f:70:06:15:ff:56:a5:c6:d4:0c:60:b3:35:b5:
                    54:9f:4a:84:c5:b7:40:77:ea:e9:26:79:ab:94:79:
                    88:ea:04:08:12:02:88:7f:c1:ba:82:0e:6d:66:61:
                    7f:78:90:84:89:b3:66:de:18:62:9a:fb:a8:61:cf:
                    1f:45:91:aa:d0:92:39:8a:33:9c:13:34:55:44:5d:
                    cf:92:52:4e:ef:49:35:3a:32:36:a8:ac:af:a9:f7:
                    89:42:45:58:92:6d:38:a7:29:cd
                Exponent: 65537 (0x10001)
        X509v3 extensions:
            X509v3 Basic Constraints: critical
                CA:FALSE
            X509v3 Subject Key Identifier: 
                5C:10:B6:C9:72:18:D5:D5:5B:9A:B1:4D:25:BA:61:51:A6:45:48:F4
            X509v3 Authority Key Identifier: 
                keyid:40:72:30:66:AE:C7:F9:DB:9A:75:1B:99:FB:53:D6:38:EA:0C:F1:8B
                DirName:/C=FR/ST=IDF/L=Paris/O=Local NODE-OPCUA Certificate Authority/CN=NodeOPCUA-CA
                serial:72:89:60:A3:11:EF:A6:B0:54:AF:4D:2C:23:89:FC:3E:F9:84:93:A9
            X509v3 Subject Alternative Name: 
                URI:urn:e99d5466f7bb:NodeOPCUA-Server, DNS:e99d5466f7bb, IP Address:127.0.0.1
            Netscape Comment: 
                OpenSSL Generated Certificate
            X509v3 Key Usage: critical
                Digital Signature, Non Repudiation, Key Encipherment, Data Encipherment, Key Agreement, Certificate Sign
            X509v3 Extended Key Usage: critical
                TLS Web Server Authentication, TLS Web Client Authentication
    Signature Algorithm: sha256WithRSAEncryption
    Signature Value:
        36:0d:44:17:d7:6a:88:6b:e7:ac:11:5f:52:25:5f:62:15:2f:
        34:f4:99:37:90:17:0a:34:03:11:97:c8:55:5f:06:59:98:6d:
        3e:f0:64:02:32:94:83:2d:da:08:1a:c6:26:8a:b0:07:e8:32:
        45:5e:55:f9:f0:21:90:0e:e8:ed:71:9a:49:c4:81:21:cc:b8:
        e2:1e:4a:3e:09:b6:2e:ea:f7:a4:98:bd:b7:93:ac:07:ef:db:
        9a:fd:84:ed:30:bc:5a:3b:04:81:a6:c8:58:12:bd:27:91:2b:
        39:80:e8:54:b1:75:a1:7e:41:b1:45:1e:27:eb:dd:a4:58:7d:
        58:08:e9:6a:5e:5a:b7:c8:21:83:39:43:29:74:6a:b2:f7:f3:
        71:85:01:20:64:cd:4d:be:39:70:a6:69:3b:2c:5c:c4:33:c8:
        2d:3c:a9:5c:00:bd:74:c9:41:9b:a0:76:97:bd:ec:0d:b0:5b:
        8e:5e:76:8a:b4:c8:e3:19:12:e9:30:2b:d1:d8:9f:43:ac:9c:
        99:72:b5:8b:44:b6:65:3f:04:17:31:f1:79:e1:2d:80:bc:2a:
        91:b1:a3:c7:23:89:92:3c:07:df:c1:96:29:43:5f:ba:87:9e:
        15:3f:bf:f1:33:84:b5:fd:3d:ab:28:4a:13:cb:cf:2a:20:2c:
        fc:a8:aa:02
-----BEGIN CERTIFICATE-----
MIIFLDCCBBSgAwIBAgICECAwDQYJKoZIhvcNAQELBQAwczELMAkGA1UEBhMCRlIx
DDAKBgNVBAgTA0lERjEOMAwGA1UEBxMFUGFyaXMxLzAtBgNVBAoTJkxvY2FsIE5P
REUtT1BDVUEgQ2VydGlmaWNhdGUgQXV0aG9yaXR5MRUwEwYDVQQDEwxOb2RlT1BD
VUEtQ0EwHhcNMjIwMzIxMDIzODQ3WhcNMjMwMzIxMDIzODQ3WjA1MQswCQYDVQQG
EwJGUjESMBAGA1UECgwJTm9kZU9QQ1VBMRIwEAYDVQQDDAlOb2RlT1BDVUEwggGi
MA0GCSqGSIb3DQEBAQUAA4IBjwAwggGKAoIBgQCxNG3yzKL1WrJsV3UojBBwcYvY
BQXrJcbuKVPbal7uqoEumecSFrisHhj8+h4U61ZmM3DBETZ1S5wkogyEe2pL1X/j
GLlrVfJXjdXachuryGvjVzr1VsKHLjvqzupMZ9GTRqNrwbV0HLOYumFyKU7uTHxa
6RKawD2j/NYXgK/1pkbvARLbodNK8t4YDGmWevRlQW3zlZ5PMhVcvvk88iDHI72C
7bzRmvPRh9PgGxzrr+MoBW807xg2xe38EGH4C7RwfXu8mqoTm6W4v79rDrBSMEMf
N7skah9V7aXl3kcpzpT/dmjXqOK2iZoWmtSodZ2MOW31eAd3QMgZyrCdUFEoAO/n
BrodXWF6cYIvpkb/4CVXD8ALznOO+I5arJdfcAYV/1alxtQMYLM1tVSfSoTFt0B3
6ukmeauUeYjqBAgSAoh/wbqCDm1mYX94kISJs2beGGKa+6hhzx9FkarQkjmKM5wT
NFVEXc+SUk7vSTU6MjaorK+p94lCRViSbTinKc0CAwEAAaOCAYYwggGCMAwGA1Ud
EwEB/wQCMAAwHQYDVR0OBBYEFFwQtslyGNXVW5qxTSW6YVGmRUj0MIGwBgNVHSME
gagwgaWAFEByMGaux/nbmnUbmftT1jjqDPGLoXekdTBzMQswCQYDVQQGEwJGUjEM
MAoGA1UECBMDSURGMQ4wDAYDVQQHEwVQYXJpczEvMC0GA1UEChMmTG9jYWwgTk9E
RS1PUENVQSBDZXJ0aWZpY2F0ZSBBdXRob3JpdHkxFTATBgNVBAMTDE5vZGVPUENV
QS1DQYIUcolgoxHvprBUr00sI4n8PvmEk6kwQAYDVR0RBDkwN4YhdXJuOmU5OWQ1
NDY2ZjdiYjpOb2RlT1BDVUEtU2VydmVyggxlOTlkNTQ2NmY3YmKHBH8AAAEwLAYJ
YIZIAYb4QgENBB8WHU9wZW5TU0wgR2VuZXJhdGVkIENlcnRpZmljYXRlMA4GA1Ud
DwEB/wQEAwIC/DAgBgNVHSUBAf8EFjAUBggrBgEFBQcDAQYIKwYBBQUHAwIwDQYJ
KoZIhvcNAQELBQADggEBADYNRBfXaohr56wRX1IlX2IVLzT0mTeQFwo0AxGXyFVf
BlmYbT7wZAIylIMt2ggaxiaKsAfoMkVeVfnwIZAO6O1xmknEgSHMuOIeSj4Jti7q
96SYvbeTrAfv25r9hO0wvFo7BIGmyFgSvSeRKzmA6FSxdaF+QbFFHifr3aRYfVgI
6WpeWrfIIYM5Qyl0arL383GFASBkzU2+OXCmaTssXMQzyC08qVwAvXTJQZugdpe9
7A2wW45edoq0yOMZEukwK9HYn0OsnJlytYtEtmU/BBcx8XnhLYC8KpGxo8cjiZI8
B9/BlilDX7qHnhU/v/EzhLX9PasoShPLzyogLPyoqgI=
-----END CERTIFICATE-----
