Certificate:
    Data:
        Version: 3 (0x2)
        Serial Number: 4130 (0x1022)
        Signature Algorithm: sha256WithRSAEncryption
        Issuer: C=FR, ST=IDF, L=Paris, O=Local NODE-OPCUA Certificate Authority, CN=NodeOPCUA-CA
        Validity
            Not Before: Mar 19 02:38:47 2024 GMT
            Not After : Mar 19 02:38:47 2025 GMT
        Subject: C=FR, O=NodeOPCUA, CN=NodeOPCUA
        Subject Public Key Info:
            Public Key Algorithm: rsaEncryption
                Public-Key: (3072 bit)
                Modulus:
                    00:b1:34:6d:f2:cc:a2:f5:5a:b2:6c:57:75:28:8c:
                    10:70:71:8b:d8:05:05:eb:25:c6:ee:29:53:db:6a:
                    5e:ee:aa:81:2e:99:e7:12:16:b8:ac:1e:18:fc:fa:
                    1e:14:eb:56:66:33:70:c1:11:36:75:4b:9c:24:a2:
                    0c:84:7b:6a:4b:d5:7f:e3:18:b9:6b:55:f2:57:8d:
                    d5:da:72:1b:ab:c8:6b:e3:57:3a:f5:56:c2:87:2e:
                    3b:ea:ce:ea:4c:67:d1:93:46:a3:6b:c1:b5:74:1c:
                    b3:98:ba:61:72:29:4e:ee:4c:7c:5a:e9:12:9a:c0:
                    3d:a3:fc:d6:17:80:af:f5:a6:46:ef:01:12:db:a1:
                    d3:4a:f2:de:18:0c:69:96:7a:f4:65:41:6d:f3:95:
                    9e:4f:32:15:5c:be:f9:3c:f2:20:c7:23:bd:82:ed:
                    bc:d1:9a:f3:d1:87:d3:e0:1b:1c:eb:af:e3:28:05:
                    6f:34:ef:18:36:c5:ed:fc:10:61:f8:0b:b4:70:7d:
                    7b:bc:9a:aa:13:9b:a5:b8:bf:bf:6b:0e:b0:52:30:
                    43:1f:37:bb:24:6a:1f:55:ed:a5:e5:de:47:29:ce:
                    94:ff:76:68:d7:a8:e2:b6:89:9a:16:9a:d4:a8:75:
                    9d:8c:39:6d:f5:78:07:77:40:c8:19:ca:b0:9d:50:
                    51:28:00:ef:e7:06:ba:1d:5d:61:7a:71:82:2f:a6:
                    46:ff:e0:25:57:0f:c0:0b:ce:73:8e:f8:8e:5a:ac:
                    97:5f:70:06:15:ff:56:a5:c6:d4:0c:60:b3:35:b5:
                    54:9f:4a:84:c5:b7:40:77:ea:e9:26:79:ab:94:79:
                    88:ea:04:08:12:02:88:7f:c1:ba:82:0e:6d:66:61:
                    7f:78:90:84:89:b3:66:de:18:62:9a:fb:a8:61:cf:
                    1f:45:91:aa:d0:92:39:8a:33:9c:13:34:55:44:5d:
                    cf:92:52:4e:ef:49:35:3a:32:36:a8:ac:af:a9:f7:
                    89:42:45:58:92:6d:38:a7:29:cd
                Exponent: 65537 (0x10001)
        X509v3 extensions:
            X509v3 Basic Constraints: critical
                CA:FALSE
            X509v3 Subject Key Identifier: 
                5C:10:B6:C9:72:18:D5:D5:5B:9A:B1:4D:25:BA:61:51:A6:45:48:F4
            X509v3 Authority Key Identifier: 
                keyid:40:72:30:66:AE:C7:F9:DB:9A:75:1B:99:FB:53:D6:38:EA:0C:F1:8B
                DirName:/C=FR/ST=IDF/L=Paris/O=Local NODE-OPCUA Certificate Authority/CN=NodeOPCUA-CA
                serial:72:89:60:A3:11:EF:A6:B0:54:AF:4D:2C:23:89:FC:3E:F9:84:93:A9
            X509v3 Subject Alternative Name: 
                URI:urn:e99d5466f7bb:NodeOPCUA-ServerRevoked, DNS:e99d5466f7bb, IP Address:127.0.0.1
            Netscape Comment: 
                OpenSSL Generated Certificate
            X509v3 Key Usage: critical
                Digital Signature, Non Repudiation, Key Encipherment, Data Encipherment, Key Agreement, Certificate Sign
            X509v3 Extended Key Usage: critical
                TLS Web Server Authentication, TLS Web Client Authentication
    Signature Algorithm: sha256WithRSAEncryption
    Signature Value:
        12:4f:c7:ac:38:6e:13:90:29:b6:10:9f:e8:e8:e5:62:6f:b3:
        36:8f:54:7e:1c:b9:03:e6:31:b9:32:2c:9b:af:c0:dd:26:32:
        a1:20:7f:2a:9b:ed:7c:e1:37:66:a9:d1:7e:0a:35:fc:f5:e0:
        e5:62:f1:93:fd:2b:16:f4:62:fa:6c:c8:da:b6:77:d9:09:f5:
        49:dd:e0:b4:a3:a0:f3:fb:d3:61:ba:a9:13:4f:43:f8:16:fe:
        18:68:ad:32:34:75:a1:6b:c0:94:7c:8d:95:00:3a:c7:04:59:
        cf:32:59:02:a0:65:5c:d7:27:f9:e7:14:48:2b:7c:f5:a0:3e:
        c4:b7:1a:db:33:fc:e4:f0:2e:03:53:43:ce:09:1a:a9:dd:8d:
        19:ed:e6:48:4a:bc:03:2f:e6:2a:1f:cc:c9:7e:07:06:63:8a:
        59:5a:2e:37:a4:39:18:d9:a6:33:f8:17:ea:84:cc:9c:1b:70:
        06:fc:e2:0f:bb:d8:1c:dc:ae:38:01:e2:79:19:66:5d:da:b2:
        ca:9f:5b:54:f7:cd:a8:4c:08:ca:91:99:8c:c6:1e:5d:26:07:
        79:59:77:9a:56:7c:12:8f:d7:53:60:20:be:67:f4:1e:b7:92:
        53:16:7b:e8:64:a1:44:99:eb:ad:b9:ff:f9:88:c7:27:6a:0d:
        7c:89:ac:95
-----BEGIN CERTIFICATE-----
MIIFMzCCBBugAwIBAgICECIwDQYJKoZIhvcNAQELBQAwczELMAkGA1UEBhMCRlIx
DDAKBgNVBAgTA0lERjEOMAwGA1UEBxMFUGFyaXMxLzAtBgNVBAoTJkxvY2FsIE5P
REUtT1BDVUEgQ2VydGlmaWNhdGUgQXV0aG9yaXR5MRUwEwYDVQQDEwxOb2RlT1BD
VUEtQ0EwHhcNMjQwMzE5MDIzODQ3WhcNMjUwMzE5MDIzODQ3WjA1MQswCQYDVQQG
EwJGUjESMBAGA1UECgwJTm9kZU9QQ1VBMRIwEAYDVQQDDAlOb2RlT1BDVUEwggGi
MA0GCSqGSIb3DQEBAQUAA4IBjwAwggGKAoIBgQCxNG3yzKL1WrJsV3UojBBwcYvY
BQXrJcbuKVPbal7uqoEumecSFrisHhj8+h4U61ZmM3DBETZ1S5wkogyEe2pL1X/j
GLlrVfJXjdXachuryGvjVzr1VsKHLjvqzupMZ9GTRqNrwbV0HLOYumFyKU7uTHxa
6RKawD2j/NYXgK/1pkbvARLbodNK8t4YDGmWevRlQW3zlZ5PMhVcvvk88iDHI72C
7bzRmvPRh9PgGxzrr+MoBW807xg2xe38EGH4C7RwfXu8mqoTm6W4v79rDrBSMEMf
N7skah9V7aXl3kcpzpT/dmjXqOK2iZoWmtSodZ2MOW31eAd3QMgZyrCdUFEoAO/n
BrodXWF6cYIvpkb/4CVXD8ALznOO+I5arJdfcAYV/1alxtQMYLM1tVSfSoTFt0B3
6ukmeauUeYjqBAgSAoh/wbqCDm1mYX94kISJs2beGGKa+6hhzx9FkarQkjmKM5wT
NFVEXc+SUk7vSTU6MjaorK+p94lCRViSbTinKc0CAwEAAaOCAY0wggGJMAwGA1Ud
EwEB/wQCMAAwHQYDVR0OBBYEFFwQtslyGNXVW5qxTSW6YVGmRUj0MIGwBgNVHSME
gagwgaWAFEByMGaux/nbmnUbmftT1jjqDPGLoXekdTBzMQswCQYDVQQGEwJGUjEM
MAoGA1UECBMDSURGMQ4wDAYDVQQHEwVQYXJpczEvMC0GA1UEChMmTG9jYWwgTk9E
RS1PUENVQSBDZXJ0aWZpY2F0ZSBBdXRob3JpdHkxFTATBgNVBAMTDE5vZGVPUENV
QS1DQYIUcolgoxHvprBUr00sI4n8PvmEk6kwRwYDVR0RBEAwPoYodXJuOmU5OWQ1
NDY2ZjdiYjpOb2RlT1BDVUEtU2VydmVyUmV2b2tlZIIMZTk5ZDU0NjZmN2JihwR/
AAABMCwGCWCGSAGG+EIBDQQfFh1PcGVuU1NMIEdlbmVyYXRlZCBDZXJ0aWZpY2F0
ZTAOBgNVHQ8BAf8EBAMCAvwwIAYDVR0lAQH/BBYwFAYIKwYBBQUHAwEGCCsGAQUF
BwMCMA0GCSqGSIb3DQEBCwUAA4IBAQAST8esOG4TkCm2EJ/o6OVib7M2j1R+HLkD
5jG5Miybr8DdJjKhIH8qm+184TdmqdF+CjX89eDlYvGT/SsW9GL6bMjatnfZCfVJ
3eC0o6Dz+9NhuqkTT0P4Fv4YaK0yNHWha8CUfI2VADrHBFnPMlkCoGVc1yf55xRI
K3z1oD7EtxrbM/zk8C4DU0POCRqp3Y0Z7eZISrwDL+YqH8zJfgcGY4pZWi43pDkY
2aYz+BfqhMycG3AG/OIPu9gc3K44AeJ5GWZd2rLKn1tU982oTAjKkZmMxh5dJgd5
WXeaVnwSj9dTYCC+Z/Qet5JTFnvoZKFEmeutuf/5iMcnag18iayV
-----END CERTIFICATE-----
