Certificate:
    Data:
        Version: 3 (0x2)
        Serial Number: 4132 (0x1024)
        Signature Algorithm: sha256WithRSAEncryption
        Issuer: O=NodeOPCUA, CN=NodeOPCUA
        Validity
            Not Before: Mar 19 02:38:47 2024 GMT
            Not After : Mar 19 02:38:47 2025 GMT
        Subject: O=NodeOPCUA, CN=NodeOPCUA
        Subject Public Key Info:
            Public Key Algorithm: rsaEncryption
                Public-Key: (4096 bit)
                Modulus:
                    00:bb:0a:96:21:83:d3:20:17:44:46:02:49:e7:03:
                    a1:4d:6a:9c:23:52:43:b1:93:34:03:b6:aa:41:9e:
                    d4:75:56:af:24:fb:7a:c1:87:88:23:e5:50:be:25:
                    c4:6b:b7:7b:28:26:61:25:62:bd:26:e8:63:8b:91:
                    ec:e2:01:88:f2:22:e8:72:73:70:a3:54:1c:33:49:
                    49:77:6a:b6:e0:b5:ac:d2:8e:25:d5:1c:71:a4:fd:
                    ad:1a:2b:39:2e:5b:f6:59:4a:ef:e6:cc:5a:fa:97:
                    08:df:76:4d:6d:34:b7:00:d7:25:fc:99:57:36:d8:
                    91:ed:bb:1b:ae:11:e7:77:25:34:cf:98:2e:03:a9:
                    c1:58:1c:99:ea:4a:92:1d:e5:cb:93:62:4e:33:2d:
                    af:9b:7b:51:82:a2:5a:24:fc:67:7d:4e:dc:d5:01:
                    40:11:43:ab:4f:a7:a6:9c:b7:6d:b5:f5:60:ab:84:
                    00:64:9f:dc:6b:c3:51:6b:a4:5d:6d:21:cb:e3:2e:
                    88:ba:64:11:24:df:f3:cd:9c:e8:34:1b:a4:10:a6:
                    80:59:48:dc:ba:2a:9d:a7:50:2d:f5:92:6f:eb:43:
                    4d:5f:ed:d3:10:31:6a:d4:62:8a:d9:dd:bb:b5:67:
                    9e:83:05:79:83:19:fb:d6:76:02:18:3b:1e:e1:ce:
                    4b:43:9b:19:7c:99:9a:3d:92:fc:d7:05:70:0a:56:
                    cd:89:e9:44:2e:83:d4:7b:a5:aa:4b:da:e2:3e:7b:
                    3b:ee:0f:d9:49:18:78:29:18:81:b0:20:a4:d5:7a:
                    6e:78:a3:bc:c0:97:64:a5:84:64:7a:63:a1:e6:ca:
                    21:e8:3c:81:02:91:49:0c:0b:3b:da:f5:0c:6e:54:
                    41:0f:cd:39:ea:d0:3c:a4:b8:71:42:47:ea:d6:a9:
                    c8:d9:8a:6b:e1:2d:af:77:1c:6b:63:b8:4a:aa:4e:
                    03:5b:1d:c8:58:01:09:9d:eb:d7:4b:53:22:05:9b:
                    cf:31:e2:d3:39:a3:cc:02:5c:b0:f0:07:a3:36:28:
                    6f:f0:33:2a:77:2f:b2:9a:30:e5:2e:a5:17:5c:92:
                    e8:b6:1a:58:28:4d:63:4e:5d:26:ee:8d:0b:e2:3b:
                    a2:f3:cc:64:3f:91:4b:a0:ad:e7:4d:6d:95:e9:49:
                    aa:9f:60:00:74:c3:72:b0:40:4a:86:78:50:ce:24:
                    18:22:af:20:97:54:7a:a0:e2:e2:59:b0:66:e3:30:
                    61:91:66:cf:ae:6b:35:e8:76:36:68:f6:a3:bd:47:
                    70:f6:c8:87:36:cc:b3:eb:2b:ff:ac:0d:96:ae:4e:
                    1f:f9:bc:19:5d:5d:76:f0:59:68:5b:cf:41:96:0a:
                    1d:4b:3f
                Exponent: 65537 (0x10001)
        X509v3 extensions:
            X509v3 Basic Constraints: critical
                CA:FALSE
            X509v3 Subject Key Identifier: 
                0F:D8:CE:95:53:65:58:AE:C1:32:F5:BA:52:78:E0:40:30:90:29:E1
            X509v3 Authority Key Identifier: 
                DirName:/O=NodeOPCUA/CN=NodeOPCUA
                serial:10:24
            X509v3 Subject Alternative Name: 
                URI:urn:e99d5466f7bb:NodeOPCUA-Server, DNS:e99d5466f7bb
            Netscape Comment: 
                OpenSSL Generated Certificate
            X509v3 Key Usage: critical
                Digital Signature, Non Repudiation, Key Encipherment, Data Encipherment, Key Agreement, Certificate Sign
            X509v3 Extended Key Usage: critical
                TLS Web Server Authentication, TLS Web Client Authentication
    Signature Algorithm: sha256WithRSAEncryption
    Signature Value:
        89:f8:a6:3b:b2:12:57:ce:6d:06:b0:44:ad:26:57:08:5c:02:
        14:69:f2:44:9b:d8:ea:4c:83:62:6d:35:f1:9f:51:14:7c:99:
        af:6f:ea:c4:42:40:1e:45:7e:fd:fc:e6:72:61:3c:54:5d:cc:
        96:40:60:d2:ec:27:b5:85:1d:17:2e:8d:62:70:aa:c3:6b:c1:
        36:ff:5a:4a:dc:3b:5b:9a:22:26:59:a0:18:9d:c0:8a:b7:72:
        f5:2f:13:a9:e6:77:4b:a8:40:bf:70:07:10:58:3a:3f:33:ff:
        ba:d8:b0:0f:19:ff:1d:42:27:c3:88:ea:d8:d7:b0:a8:e8:39:
        1b:cd:ea:00:11:8b:24:da:00:92:46:e2:46:c4:11:64:bb:84:
        01:c9:86:58:44:59:d2:7d:90:42:6f:de:b6:6a:ca:07:fc:ea:
        4b:92:2b:3e:3b:03:03:1a:dc:86:ac:89:9b:a2:e9:00:ab:f3:
        15:74:41:42:c7:55:22:fd:15:d5:52:8f:41:68:4d:60:16:15:
        72:b1:59:a0:cd:64:a5:eb:ee:53:20:35:15:c4:61:6b:09:9c:
        26:93:98:ff:4d:2f:a9:79:33:82:26:62:dd:a5:6f:52:47:2a:
        b3:7b:0f:bf:86:0d:f6:0d:23:24:8b:1b:af:0f:09:62:7d:a7:
        1e:24:2b:c1:fa:d1:96:fe:22:9b:46:98:98:49:44:0a:fe:47:
        15:40:ab:02:1c:54:09:73:a7:39:1b:bc:a8:e9:aa:16:31:61:
        1b:db:b5:b9:1e:8a:ab:f8:b5:02:16:5f:fd:f2:55:0e:fc:7d:
        7f:39:5a:ac:8c:64:29:9e:69:3d:45:66:14:cb:5d:e3:20:c1:
        69:ce:da:fb:af:17:ee:35:7f:74:41:7e:16:26:c9:1f:b2:f4:
        fb:7b:60:a3:23:eb:ab:86:12:51:a4:71:f1:d4:1f:7f:d9:33:
        c5:ad:b8:1e:c1:26:dc:b9:48:51:8d:b2:40:7b:b5:5d:fb:c3:
        6d:87:18:bf:cf:71:74:a6:68:1d:dc:1b:74:5c:13:dc:5b:39:
        2a:9d:43:2a:79:8c:ac:9f:a2:6d:ed:7f:29:a8:4f:13:b6:fe:
        4a:65:06:2b:0e:a8:f0:5e:d7:d3:51:0c:95:b5:62:03:f5:b8:
        e8:34:37:53:09:b7:d7:8e:a4:4f:ce:13:64:f1:cc:23:63:70:
        e3:3f:14:b3:5f:98:ba:94:03:0f:ae:0d:47:4c:17:53:db:16:
        58:95:92:20:de:a9:04:b1:52:b0:21:73:5d:9b:4f:0b:76:93:
        e9:ca:d0:49:9d:2f:55:e4:0d:cd:3a:cc:a7:25:a1:85:2c:4d:
        9c:5c:77:c8:b9:ef:a8:78
-----BEGIN CERTIFICATE-----
MIIF2DCCA8CgAwIBAgICECQwDQYJKoZIhvcNAQELBQAwKDESMBAGA1UEChMJTm9k
ZU9QQ1VBMRIwEAYDVQQDEwlOb2RlT1BDVUEwHhcNMjQwMzE5MDIzODQ3WhcNMjUw
MzE5MDIzODQ3WjAoMRIwEAYDVQQKEwlOb2RlT1BDVUExEjAQBgNVBAMTCU5vZGVP
UENVQTCCAiIwDQYJKoZIhvcNAQEBBQADggIPADCCAgoCggIBALsKliGD0yAXREYC
SecDoU1qnCNSQ7GTNAO2qkGe1HVWryT7esGHiCPlUL4lxGu3eygmYSVivSboY4uR
7OIBiPIi6HJzcKNUHDNJSXdqtuC1rNKOJdUccaT9rRorOS5b9llK7+bMWvqXCN92
TW00twDXJfyZVzbYke27G64R53clNM+YLgOpwVgcmepKkh3ly5NiTjMtr5t7UYKi
WiT8Z31O3NUBQBFDq0+nppy3bbX1YKuEAGSf3GvDUWukXW0hy+MuiLpkESTf882c
6DQbpBCmgFlI3LoqnadQLfWSb+tDTV/t0xAxatRiitndu7VnnoMFeYMZ+9Z2Ahg7
HuHOS0ObGXyZmj2S/NcFcApWzYnpRC6D1Hulqkva4j57O+4P2UkYeCkYgbAgpNV6
bnijvMCXZKWEZHpjoebKIeg8gQKRSQwLO9r1DG5UQQ/NOerQPKS4cUJH6tapyNmK
a+Etr3cca2O4SqpOA1sdyFgBCZ3r10tTIgWbzzHi0zmjzAJcsPAHozYob/AzKncv
spow5S6lF1yS6LYaWChNY05dJu6NC+I7ovPMZD+RS6Ct501tlelJqp9gAHTDcrBA
SoZ4UM4kGCKvIJdUeqDi4lmwZuMwYZFmz65rNeh2Nmj2o71HcPbIhzbMs+sr/6wN
lq5OH/m8GV1ddvBZaFvPQZYKHUs/AgMBAAGjggEKMIIBBjAMBgNVHRMBAf8EAjAA
MB0GA1UdDgQWBBQP2M6VU2VYrsEy9bpSeOBAMJAp4TA7BgNVHSMENDAyoSykKjAo
MRIwEAYDVQQKEwlOb2RlT1BDVUExEjAQBgNVBAMTCU5vZGVPUENVQYICECQwOgYD
VR0RBDMwMYYhdXJuOmU5OWQ1NDY2ZjdiYjpOb2RlT1BDVUEtU2VydmVyggxlOTlk
NTQ2NmY3YmIwLAYJYIZIAYb4QgENBB8WHU9wZW5TU0wgR2VuZXJhdGVkIENlcnRp
ZmljYXRlMA4GA1UdDwEB/wQEAwIC/DAgBgNVHSUBAf8EFjAUBggrBgEFBQcDAQYI
KwYBBQUHAwIwDQYJKoZIhvcNAQELBQADggIBAIn4pjuyElfObQawRK0mVwhcAhRp
8kSb2OpMg2JtNfGfURR8ma9v6sRCQB5Ffv385nJhPFRdzJZAYNLsJ7WFHRcujWJw
qsNrwTb/WkrcO1uaIiZZoBidwIq3cvUvE6nmd0uoQL9wBxBYOj8z/7rYsA8Z/x1C
J8OI6tjXsKjoORvN6gARiyTaAJJG4kbEEWS7hAHJhlhEWdJ9kEJv3rZqygf86kuS
Kz47AwMa3IasiZui6QCr8xV0QULHVSL9FdVSj0FoTWAWFXKxWaDNZKXr7lMgNRXE
YWsJnCaTmP9NL6l5M4ImYt2lb1JHKrN7D7+GDfYNIySLG68PCWJ9px4kK8H60Zb+
IptGmJhJRAr+RxVAqwIcVAlzpzkbvKjpqhYxYRvbtbkeiqv4tQIWX/3yVQ78fX85
WqyMZCmeaT1FZhTLXeMgwWnO2vuvF+41f3RBfhYmyR+y9Pt7YKMj66uGElGkcfHU
H3/ZM8WtuB7BJty5SFGNskB7tV37w22HGL/PcXSmaB3cG3RcE9xbOSqdQyp5jKyf
om3tfymoTxO2/kplBisOqPBe19NRDJW1YgP1uOg0N1MJt9eOpE/OE2TxzCNjcOM/
FLNfmLqUAw+uDUdMF1PbFliVkiDeqQSxUrAhc12bTwt2k+nK0EmdL1XkDc06zKcl
oYUsTZxcd8i576h4
-----END CERTIFICATE-----
