Certificate:
    Data:
        Version: 3 (0x2)
        Serial Number: 4134 (0x1026)
        Signature Algorithm: sha256WithRSAEncryption
        Issuer: C=FR, ST=IDF, L=Paris, O=Local NODE-OPCUA Certificate Authority, CN=NodeOPCUA-CA
        Validity
            Not Before: Mar 20 02:38:47 2025 GMT
            Not After : Mar 20 02:38:47 2026 GMT
        Subject: C=FR, O=NodeOPCUA, CN=NodeOPCUA
        Subject Public Key Info:
            Public Key Algorithm: rsaEncryption
                Public-Key: (4096 bit)
                Modulus:
                    00:bb:0a:96:21:83:d3:20:17:44:46:02:49:e7:03:
                    a1:4d:6a:9c:23:52:43:b1:93:34:03:b6:aa:41:9e:
                    d4:75:56:af:24:fb:7a:c1:87:88:23:e5:50:be:25:
                    c4:6b:b7:7b:28:26:61:25:62:bd:26:e8:63:8b:91:
                    ec:e2:01:88:f2:22:e8:72:73:70:a3:54:1c:33:49:
                    49:77:6a:b6:e0:b5:ac:d2:8e:25:d5:1c:71:a4:fd:
                    ad:1a:2b:39:2e:5b:f6:59:4a:ef:e6:cc:5a:fa:97:
                    08:df:76:4d:6d:34:b7:00:d7:25:fc:99:57:36:d8:
                    91:ed:bb:1b:ae:11:e7:77:25:34:cf:98:2e:03:a9:
                    c1:58:1c:99:ea:4a:92:1d:e5:cb:93:62:4e:33:2d:
                    af:9b:7b:51:82:a2:5a:24:fc:67:7d:4e:dc:d5:01:
                    40:11:43:ab:4f:a7:a6:9c:b7:6d:b5:f5:60:ab:84:
                    00:64:9f:dc:6b:c3:51:6b:a4:5d:6d:21:cb:e3:2e:
                    88:ba:64:11:24:df:f3:cd:9c:e8:34:1b:a4:10:a6:
                    80:59:48:dc:ba:2a:9d:a7:50:2d:f5:92:6f:eb:43:
                    4d:5f:ed:d3:10:31:6a:d4:62:8a:d9:dd:bb:b5:67:
                    9e:83:05:79:83:19:fb:d6:76:02:18:3b:1e:e1:ce:
                    4b:43:9b:19:7c:99:9a:3d:92:fc:d7:05:70:0a:56:
                    cd:89:e9:44:2e:83:d4:7b:a5:aa:4b:da:e2:3e:7b:
                    3b:ee:0f:d9:49:18:78:29:18:81:b0:20:a4:d5:7a:
                    6e:78:a3:bc:c0:97:64:a5:84:64:7a:63:a1:e6:ca:
                    21:e8:3c:81:02:91:49:0c:0b:3b:da:f5:0c:6e:54:
                    41:0f:cd:39:ea:d0:3c:a4:b8:71:42:47:ea:d6:a9:
                    c8:d9:8a:6b:e1:2d:af:77:1c:6b:63:b8:4a:aa:4e:
                    03:5b:1d:c8:58:01:09:9d:eb:d7:4b:53:22:05:9b:
                    cf:31:e2:d3:39:a3:cc:02:5c:b0:f0:07:a3:36:28:
                    6f:f0:33:2a:77:2f:b2:9a:30:e5:2e:a5:17:5c:92:
                    e8:b6:1a:58:28:4d:63:4e:5d:26:ee:8d:0b:e2:3b:
                    a2:f3:cc:64:3f:91:4b:a0:ad:e7:4d:6d:95:e9:49:
                    aa:9f:60:00:74:c3:72:b0:40:4a:86:78:50:ce:24:
                    18:22:af:20:97:54:7a:a0:e2:e2:59:b0:66:e3:30:
                    61:91:66:cf:ae:6b:35:e8:76:36:68:f6:a3:bd:47:
                    70:f6:c8:87:36:cc:b3:eb:2b:ff:ac:0d:96:ae:4e:
                    1f:f9:bc:19:5d:5d:76:f0:59:68:5b:cf:41:96:0a:
                    1d:4b:3f
                Exponent: 65537 (0x10001)
        X509v3 extensions:
            X509v3 Basic Constraints: critical
                CA:FALSE
            X509v3 Subject Key Identifier: 
                0F:D8:CE:95:53:65:58:AE:C1:32:F5:BA:52:78:E0:40:30:90:29:E1
            X509v3 Authority Key Identifier: 
                keyid:40:72:30:66:AE:C7:F9:DB:9A:75:1B:99:FB:53:D6:38:EA:0C:F1:8B
                DirName:/C=FR/ST=IDF/L=Paris/O=Local NODE-OPCUA Certificate Authority/CN=NodeOPCUA-CA
                serial:72:89:60:A3:11:EF:A6:B0:54:AF:4D:2C:23:89:FC:3E:F9:84:93:A9
            X509v3 Subject Alternative Name: 
                URI:urn:e99d5466f7bb:NodeOPCUA-Server, DNS:e99d5466f7bb, IP Address:127.0.0.1
            Netscape Comment: 
                OpenSSL Generated Certificate
            X509v3 Key Usage: critical
                Digital Signature, Non Repudiation, Key Encipherment, Data Encipherment, Key Agreement, Certificate Sign
            X509v3 Extended Key Usage: critical
                TLS Web Server Authentication, TLS Web Client Authentication
    Signature Algorithm: sha256WithRSAEncryption
    Signature Value:
        7b:10:db:3d:d8:fd:66:c7:61:7a:be:a7:93:a2:77:2a:39:df:
        37:c6:bd:bb:13:3d:2f:9a:4a:cc:26:e7:10:d0:70:d3:6f:b1:
        c7:a0:02:7d:3b:96:36:01:10:73:ed:60:14:70:09:2f:9e:5e:
        ea:c6:55:71:4d:b2:68:d1:dc:a9:29:be:2d:a6:ce:fa:5e:92:
        b6:fe:d1:b8:16:cf:36:29:e7:a7:75:de:04:83:df:db:4d:04:
        dd:97:12:71:9f:d0:2f:70:58:c4:6c:b1:17:05:35:e0:f1:04:
        4e:3e:6f:ef:a9:06:aa:94:2a:38:0b:12:ee:02:78:be:12:c1:
        d2:f1:9e:59:be:91:25:48:4e:76:b6:08:8f:8f:f1:0a:c3:78:
        81:7c:9e:0c:dc:a5:fb:d9:f3:9a:18:50:96:98:6b:12:3e:a7:
        48:95:62:f7:44:cf:f2:e8:e9:f5:3b:59:01:96:b5:b6:6b:ec:
        3a:18:cd:fd:d5:22:b2:56:c1:21:59:06:3b:8b:c8:f9:f0:b3:
        8c:74:08:e7:fa:79:29:ef:fc:7c:15:d6:1b:9c:19:03:0d:d6:
        51:44:b3:eb:06:45:1b:6a:87:fb:c3:75:63:80:69:74:d3:e3:
        33:8d:67:37:ef:f3:64:01:8d:49:49:df:95:e7:7b:94:56:85:
        77:02:fd:5b
-----BEGIN CERTIFICATE-----
MIIFrDCCBJSgAwIBAgICECYwDQYJKoZIhvcNAQELBQAwczELMAkGA1UEBhMCRlIx
DDAKBgNVBAgTA0lERjEOMAwGA1UEBxMFUGFyaXMxLzAtBgNVBAoTJkxvY2FsIE5P
REUtT1BDVUEgQ2VydGlmaWNhdGUgQXV0aG9yaXR5MRUwEwYDVQQDEwxOb2RlT1BD
VUEtQ0EwHhcNMjUwMzIwMDIzODQ3WhcNMjYwMzIwMDIzODQ3WjA1MQswCQYDVQQG
EwJGUjESMBAGA1UECgwJTm9kZU9QQ1VBMRIwEAYDVQQDDAlOb2RlT1BDVUEwggIi
MA0GCSqGSIb3DQEBAQUAA4ICDwAwggIKAoICAQC7CpYhg9MgF0RGAknnA6FNapwj
UkOxkzQDtqpBntR1Vq8k+3rBh4gj5VC+JcRrt3soJmElYr0m6GOLkeziAYjyIuhy
c3CjVBwzSUl3arbgtazSjiXVHHGk/a0aKzkuW/ZZSu/mzFr6lwjfdk1tNLcA1yX8
mVc22JHtuxuuEed3JTTPmC4DqcFYHJnqSpId5cuTYk4zLa+be1GColok/Gd9TtzV
AUARQ6tPp6act2219WCrhABkn9xrw1FrpF1tIcvjLoi6ZBEk3/PNnOg0G6QQpoBZ
SNy6Kp2nUC31km/rQ01f7dMQMWrUYorZ3bu1Z56DBXmDGfvWdgIYOx7hzktDmxl8
mZo9kvzXBXAKVs2J6UQug9R7papL2uI+ezvuD9lJGHgpGIGwIKTVem54o7zAl2Sl
hGR6Y6HmyiHoPIECkUkMCzva9QxuVEEPzTnq0DykuHFCR+rWqcjZimvhLa93HGtj
uEqqTgNbHchYAQmd69dLUyIFm88x4tM5o8wCXLDwB6M2KG/wMyp3L7KaMOUupRdc
kui2GlgoTWNOXSbujQviO6LzzGQ/kUugredNbZXpSaqfYAB0w3KwQEqGeFDOJBgi
ryCXVHqg4uJZsGbjMGGRZs+uazXodjZo9qO9R3D2yIc2zLPrK/+sDZauTh/5vBld
XXbwWWhbz0GWCh1LPwIDAQABo4IBhjCCAYIwDAYDVR0TAQH/BAIwADAdBgNVHQ4E
FgQUD9jOlVNlWK7BMvW6UnjgQDCQKeEwgbAGA1UdIwSBqDCBpYAUQHIwZq7H+dua
dRuZ+1PWOOoM8Yuhd6R1MHMxCzAJBgNVBAYTAkZSMQwwCgYDVQQIEwNJREYxDjAM
BgNVBAcTBVBhcmlzMS8wLQYDVQQKEyZMb2NhbCBOT0RFLU9QQ1VBIENlcnRpZmlj
YXRlIEF1dGhvcml0eTEVMBMGA1UEAxMMTm9kZU9QQ1VBLUNBghRyiWCjEe+msFSv
TSwjifw++YSTqTBABgNVHREEOTA3hiF1cm46ZTk5ZDU0NjZmN2JiOk5vZGVPUENV
QS1TZXJ2ZXKCDGU5OWQ1NDY2ZjdiYocEfwAAATAsBglghkgBhvhCAQ0EHxYdT3Bl
blNTTCBHZW5lcmF0ZWQgQ2VydGlmaWNhdGUwDgYDVR0PAQH/BAQDAgL8MCAGA1Ud
JQEB/wQWMBQGCCsGAQUFBwMBBggrBgEFBQcDAjANBgkqhkiG9w0BAQsFAAOCAQEA
exDbPdj9Zsdher6nk6J3KjnfN8a9uxM9L5pKzCbnENBw02+xx6ACfTuWNgEQc+1g
FHAJL55e6sZVcU2yaNHcqSm+LabO+l6Stv7RuBbPNinnp3XeBIPf200E3ZcScZ/Q
L3BYxGyxFwU14PEETj5v76kGqpQqOAsS7gJ4vhLB0vGeWb6RJUhOdrYIj4/xCsN4
gXyeDNyl+9nzmhhQlphrEj6nSJVi90TP8ujp9TtZAZa1tmvsOhjN/dUislbBIVkG
O4vI+fCzjHQI5/p5Ke/8fBXWG5wZAw3WUUSz6wZFG2qH+8N1Y4BpdNPjM41nN+/z
ZAGNSUnfled7lFaFdwL9Ww==
-----END CERTIFICATE-----
