Certificate:
    Data:
        Version: 3 (0x2)
        Serial Number: 4135 (0x1027)
        Signature Algorithm: sha256WithRSAEncryption
        Issuer: C=FR, ST=IDF, L=Paris, O=Local NODE-OPCUA Certificate Authority, CN=NodeOPCUA-CA
        Validity
            Not Before: Mar 19 02:38:47 2024 GMT
            Not After : Mar 19 02:38:47 2025 GMT
        Subject: C=FR, O=NodeOPCUA, CN=NodeOPCUA
        Subject Public Key Info:
            Public Key Algorithm: rsaEncryption
                Public-Key: (4096 bit)
                Modulus:
                    00:bb:0a:96:21:83:d3:20:17:44:46:02:49:e7:03:
                    a1:4d:6a:9c:23:52:43:b1:93:34:03:b6:aa:41:9e:
                    d4:75:56:af:24:fb:7a:c1:87:88:23:e5:50:be:25:
                    c4:6b:b7:7b:28:26:61:25:62:bd:26:e8:63:8b:91:
                    ec:e2:01:88:f2:22:e8:72:73:70:a3:54:1c:33:49:
                    49:77:6a:b6:e0:b5:ac:d2:8e:25:d5:1c:71:a4:fd:
                    ad:1a:2b:39:2e:5b:f6:59:4a:ef:e6:cc:5a:fa:97:
                    08:df:76:4d:6d:34:b7:00:d7:25:fc:99:57:36:d8:
                    91:ed:bb:1b:ae:11:e7:77:25:34:cf:98:2e:03:a9:
                    c1:58:1c:99:ea:4a:92:1d:e5:cb:93:62:4e:33:2d:
                    af:9b:7b:51:82:a2:5a:24:fc:67:7d:4e:dc:d5:01:
                    40:11:43:ab:4f:a7:a6:9c:b7:6d:b5:f5:60:ab:84:
                    00:64:9f:dc:6b:c3:51:6b:a4:5d:6d:21:cb:e3:2e:
                    88:ba:64:11:24:df:f3:cd:9c:e8:34:1b:a4:10:a6:
                    80:59:48:dc:ba:2a:9d:a7:50:2d:f5:92:6f:eb:43:
                    4d:5f:ed:d3:10:31:6a:d4:62:8a:d9:dd:bb:b5:67:
                    9e:83:05:79:83:19:fb:d6:76:02:18:3b:1e:e1:ce:
                    4b:43:9b:19:7c:99:9a:3d:92:fc:d7:05:70:0a:56:
                    cd:89:e9:44:2e:83:d4:7b:a5:aa:4b:da:e2:3e:7b:
                    3b:ee:0f:d9:49:18:78:29:18:81:b0:20:a4:d5:7a:
                    6e:78:a3:bc:c0:97:64:a5:84:64:7a:63:a1:e6:ca:
                    21:e8:3c:81:02:91:49:0c:0b:3b:da:f5:0c:6e:54:
                    41:0f:cd:39:ea:d0:3c:a4:b8:71:42:47:ea:d6:a9:
                    c8:d9:8a:6b:e1:2d:af:77:1c:6b:63:b8:4a:aa:4e:
                    03:5b:1d:c8:58:01:09:9d:eb:d7:4b:53:22:05:9b:
                    cf:31:e2:d3:39:a3:cc:02:5c:b0:f0:07:a3:36:28:
                    6f:f0:33:2a:77:2f:b2:9a:30:e5:2e:a5:17:5c:92:
                    e8:b6:1a:58:28:4d:63:4e:5d:26:ee:8d:0b:e2:3b:
                    a2:f3:cc:64:3f:91:4b:a0:ad:e7:4d:6d:95:e9:49:
                    aa:9f:60:00:74:c3:72:b0:40:4a:86:78:50:ce:24:
                    18:22:af:20:97:54:7a:a0:e2:e2:59:b0:66:e3:30:
                    61:91:66:cf:ae:6b:35:e8:76:36:68:f6:a3:bd:47:
                    70:f6:c8:87:36:cc:b3:eb:2b:ff:ac:0d:96:ae:4e:
                    1f:f9:bc:19:5d:5d:76:f0:59:68:5b:cf:41:96:0a:
                    1d:4b:3f
                Exponent: 65537 (0x10001)
        X509v3 extensions:
            X509v3 Basic Constraints: critical
                CA:FALSE
            X509v3 Subject Key Identifier: 
                0F:D8:CE:95:53:65:58:AE:C1:32:F5:BA:52:78:E0:40:30:90:29:E1
            X509v3 Authority Key Identifier: 
                keyid:40:72:30:66:AE:C7:F9:DB:9A:75:1B:99:FB:53:D6:38:EA:0C:F1:8B
                DirName:/C=FR/ST=IDF/L=Paris/O=Local NODE-OPCUA Certificate Authority/CN=NodeOPCUA-CA
                serial:72:89:60:A3:11:EF:A6:B0:54:AF:4D:2C:23:89:FC:3E:F9:84:93:A9
            X509v3 Subject Alternative Name: 
                URI:urn:e99d5466f7bb:NodeOPCUA-ServerRevoked, DNS:e99d5466f7bb, IP Address:127.0.0.1
            Netscape Comment: 
                OpenSSL Generated Certificate
            X509v3 Key Usage: critical
                Digital Signature, Non Repudiation, Key Encipherment, Data Encipherment, Key Agreement, Certificate Sign
            X509v3 Extended Key Usage: critical
                TLS Web Server Authentication, TLS Web Client Authentication
    Signature Algorithm: sha256WithRSAEncryption
    Signature Value:
        23:b3:67:1f:32:37:b7:fb:54:77:e7:f4:86:6f:21:e2:2c:94:
        84:ab:19:6f:f7:19:e3:ac:f5:17:5b:e2:15:f2:dc:15:e5:15:
        3b:31:8d:d5:28:02:4b:2c:fd:50:d5:6b:6f:54:f5:d5:67:6e:
        c7:33:02:41:09:da:fc:5f:93:3a:a6:36:5a:fa:81:01:ed:b7:
        0d:8b:7e:2f:1f:50:85:ec:b4:66:5d:2b:eb:de:cc:b1:8c:26:
        17:a7:ec:88:92:cd:d8:3e:3e:c7:3d:38:d8:bf:21:47:35:2c:
        fc:39:b8:bd:fc:97:26:6f:62:45:8d:19:a3:ef:92:fd:c9:7f:
        46:61:c1:f0:00:41:b9:30:fe:ed:4f:cc:06:e2:1b:0f:4e:9b:
        ba:b8:82:cb:99:b5:df:f9:0a:89:c1:02:0b:da:e8:b7:e5:ff:
        76:68:fd:a0:d4:79:0f:0a:bd:ae:e3:ec:be:e2:2b:86:2f:cd:
        c4:4a:68:5a:08:82:f9:6f:36:06:fa:c3:56:c5:b2:99:70:ba:
        10:35:62:22:da:3b:c6:f4:80:c2:5c:5c:a5:43:43:dd:45:7f:
        a6:e5:9c:6f:25:b2:90:c4:63:6c:2e:55:b9:0e:70:de:8b:1f:
        d8:0b:5f:f6:60:0f:2e:c2:a1:0e:b5:80:1c:a5:99:0f:eb:4a:
        94:a3:2b:ee
-----BEGIN CERTIFICATE-----
MIIFszCCBJugAwIBAgICECcwDQYJKoZIhvcNAQELBQAwczELMAkGA1UEBhMCRlIx
DDAKBgNVBAgTA0lERjEOMAwGA1UEBxMFUGFyaXMxLzAtBgNVBAoTJkxvY2FsIE5P
REUtT1BDVUEgQ2VydGlmaWNhdGUgQXV0aG9yaXR5MRUwEwYDVQQDEwxOb2RlT1BD
VUEtQ0EwHhcNMjQwMzE5MDIzODQ3WhcNMjUwMzE5MDIzODQ3WjA1MQswCQYDVQQG
EwJGUjESMBAGA1UECgwJTm9kZU9QQ1VBMRIwEAYDVQQDDAlOb2RlT1BDVUEwggIi
MA0GCSqGSIb3DQEBAQUAA4ICDwAwggIKAoICAQC7CpYhg9MgF0RGAknnA6FNapwj
UkOxkzQDtqpBntR1Vq8k+3rBh4gj5VC+JcRrt3soJmElYr0m6GOLkeziAYjyIuhy
c3CjVBwzSUl3arbgtazSjiXVHHGk/a0aKzkuW/ZZSu/mzFr6lwjfdk1tNLcA1yX8
mVc22JHtuxuuEed3JTTPmC4DqcFYHJnqSpId5cuTYk4zLa+be1GColok/Gd9TtzV
AUARQ6tPp6act2219WCrhABkn9xrw1FrpF1tIcvjLoi6ZBEk3/PNnOg0G6QQpoBZ
SNy6Kp2nUC31km/rQ01f7dMQMWrUYorZ3bu1Z56DBXmDGfvWdgIYOx7hzktDmxl8
mZo9kvzXBXAKVs2J6UQug9R7papL2uI+ezvuD9lJGHgpGIGwIKTVem54o7zAl2Sl
hGR6Y6HmyiHoPIECkUkMCzva9QxuVEEPzTnq0DykuHFCR+rWqcjZimvhLa93HGtj
uEqqTgNbHchYAQmd69dLUyIFm88x4tM5o8wCXLDwB6M2KG/wMyp3L7KaMOUupRdc
kui2GlgoTWNOXSbujQviO6LzzGQ/kUugredNbZXpSaqfYAB0w3KwQEqGeFDOJBgi
ryCXVHqg4uJZsGbjMGGRZs+uazXodjZo9qO9R3D2yIc2zLPrK/+sDZauTh/5vBld
XXbwWWhbz0GWCh1LPwIDAQABo4IBjTCCAYkwDAYDVR0TAQH/BAIwADAdBgNVHQ4E
FgQUD9jOlVNlWK7BMvW6UnjgQDCQKeEwgbAGA1UdIwSBqDCBpYAUQHIwZq7H+dua
dRuZ+1PWOOoM8Yuhd6R1MHMxCzAJBgNVBAYTAkZSMQwwCgYDVQQIEwNJREYxDjAM
BgNVBAcTBVBhcmlzMS8wLQYDVQQKEyZMb2NhbCBOT0RFLU9QQ1VBIENlcnRpZmlj
YXRlIEF1dGhvcml0eTEVMBMGA1UEAxMMTm9kZU9QQ1VBLUNBghRyiWCjEe+msFSv
TSwjifw++YSTqTBHBgNVHREEQDA+hih1cm46ZTk5ZDU0NjZmN2JiOk5vZGVPUENV
QS1TZXJ2ZXJSZXZva2VkggxlOTlkNTQ2NmY3YmKHBH8AAAEwLAYJYIZIAYb4QgEN
BB8WHU9wZW5TU0wgR2VuZXJhdGVkIENlcnRpZmljYXRlMA4GA1UdDwEB/wQEAwIC
/DAgBgNVHSUBAf8EFjAUBggrBgEFBQcDAQYIKwYBBQUHAwIwDQYJKoZIhvcNAQEL
BQADggEBACOzZx8yN7f7VHfn9IZvIeIslISrGW/3GeOs9Rdb4hXy3BXlFTsxjdUo
Akss/VDVa29U9dVnbsczAkEJ2vxfkzqmNlr6gQHttw2Lfi8fUIXstGZdK+vezLGM
Jhen7IiSzdg+Psc9ONi/IUc1LPw5uL38lyZvYkWNGaPvkv3Jf0ZhwfAAQbkw/u1P
zAbiGw9Om7q4gsuZtd/5ConBAgva6Lfl/3Zo/aDUeQ8Kva7j7L7iK4YvzcRKaFoI
gvlvNgb6w1bFsplwuhA1YiLaO8b0gMJcXKVDQ91Ff6blnG8lspDEY2wuVbkOcN6L
H9gLX/ZgDy7CoQ61gBylmQ/rSpSjK+4=
-----END CERTIFICATE-----
