Certificate:
    Data:
        Version: 3 (0x2)
        Serial Number: 4136 (0x1028)
        Signature Algorithm: sha256WithRSAEncryption
        Issuer: C=FR, ST=IDF, L=Paris, O=Local NODE-OPCUA Certificate Authority, CN=NodeOPCUA-CA
        Validity
            Not Before: Mar 19 02:38:47 2024 GMT
            Not After : Mar 19 02:38:47 2025 GMT
        Subject: C=FR, O=NodeOPCUA, CN=NodeOPCUA
        Subject Public Key Info:
            Public Key Algorithm: rsaEncryption
                Public-Key: (1024 bit)
                Modulus:
                    00:d5:11:01:e6:25:f2:a0:72:f9:d9:18:bc:83:3a:
                    59:1f:c1:9e:03:36:14:03:72:a2:54:f5:b1:51:ac:
                    3b:8e:53:61:dc:f7:b9:bf:3c:fe:5c:b6:98:91:ba:
                    55:6e:3c:39:ca:48:b9:8a:00:0d:b1:71:f4:07:65:
                    80:e8:b3:0c:49:d2:55:6d:8e:c2:f9:19:42:35:85:
                    55:49:d8:e1:98:ea:37:51:40:e6:31:f9:b6:d2:28:
                    be:f0:5b:89:be:90:df:df:fb:82:cb:06:79:a2:0c:
                    da:df:e1:b1:de:76:ad:a5:60:73:ad:f2:d2:85:7d:
                    e3:81:4d:25:53:75:20:bb:49
                Exponent: 65537 (0x10001)
        X509v3 extensions:
            X509v3 Basic Constraints: critical
                CA:FALSE
            X509v3 Subject Key Identifier: 
                F3:B2:06:27:20:0E:5A:3F:0B:8E:73:32:66:09:19:CE:B0:F8:85:80
            X509v3 Authority Key Identifier: 
                keyid:40:72:30:66:AE:C7:F9:DB:9A:75:1B:99:FB:53:D6:38:EA:0C:F1:8B
                DirName:/C=FR/ST=IDF/L=Paris/O=Local NODE-OPCUA Certificate Authority/CN=NodeOPCUA-CA
                serial:72:89:60:A3:11:EF:A6:B0:54:AF:4D:2C:23:89:FC:3E:F9:84:93:A9
            X509v3 Subject Alternative Name: 
                URI:urn:e99d5466f7bb:NodeOPCUA-DiscoveryServer, DNS:e99d5466f7bb, IP Address:127.0.0.1
            Netscape Comment: 
                OpenSSL Generated Certificate
            X509v3 Key Usage: critical
                Digital Signature, Non Repudiation, Key Encipherment, Data Encipherment, Key Agreement, Certificate Sign
            X509v3 Extended Key Usage: critical
                TLS Web Server Authentication, TLS Web Client Authentication
    Signature Algorithm: sha256WithRSAEncryption
    Signature Value:
        56:05:0f:a3:6b:00:19:69:90:c6:ed:3c:ae:60:21:63:a2:2c:
        65:ce:dd:dc:28:af:62:f9:4f:1d:42:4f:d8:5e:b8:ad:ce:9b:
        99:e8:3d:80:63:55:68:3f:25:30:b5:d6:74:36:a1:82:bd:dd:
        f2:da:3e:f1:25:de:3f:d4:e2:b0:f4:13:56:05:c4:68:7c:f1:
        67:ca:78:43:73:9d:84:41:0c:93:98:3d:94:20:09:86:65:30:
        2b:07:d1:cf:4e:f3:9d:58:26:e4:70:c8:61:0e:8a:61:54:ef:
        5f:7b:ae:bd:2f:09:2a:0f:6f:06:cd:cc:a1:2b:d9:54:70:98:
        a6:20:14:2d:42:64:2c:4e:76:39:ad:74:0d:7b:72:85:91:50:
        95:2b:cc:2b:7c:c7:e3:8d:32:d2:e6:53:25:43:a1:87:29:00:
        91:f0:5f:0e:f4:65:8f:ba:04:2f:6f:2b:c6:93:39:80:91:03:
        ec:e3:ee:dd:cc:5d:ad:2d:88:cc:52:28:ed:4c:a5:c7:e4:af:
        1b:c6:08:02:24:c4:13:07:18:1b:3d:8c:01:4b:f0:2b:0b:b3:
        7d:17:65:27:07:2a:a0:3d:37:d2:15:e7:2f:40:95:61:44:40:
        b5:cc:82:3a:cc:0e:6a:d8:6f:e0:3c:db:aa:12:81:fa:67:68:
        5b:3e:06:ce
-----BEGIN CERTIFICATE-----
MIIEMTCCAxmgAwIBAgICECgwDQYJKoZIhvcNAQELBQAwczELMAkGA1UEBhMCRlIx
DDAKBgNVBAgTA0lERjEOMAwGA1UEBxMFUGFyaXMxLzAtBgNVBAoTJkxvY2FsIE5P
REUtT1BDVUEgQ2VydGlmaWNhdGUgQXV0aG9yaXR5MRUwEwYDVQQDEwxOb2RlT1BD
VUEtQ0EwHhcNMjQwMzE5MDIzODQ3WhcNMjUwMzE5MDIzODQ3WjA1MQswCQYDVQQG
EwJGUjESMBAGA1UECgwJTm9kZU9QQ1VBMRIwEAYDVQQDDAlOb2RlT1BDVUEwgZ8w
DQYJKoZIhvcNAQEBBQADgY0AMIGJAoGBANURAeYl8qBy+dkYvIM6WR/BngM2FANy
olT1sVGsO45TYdz3ub88/ly2mJG6VW48OcpIuYoADbFx9AdlgOizDEnSVW2OwvkZ
QjWFVUnY4ZjqN1FA5jH5ttIovvBbib6Q39/7gssGeaIM2t/hsd52raVgc63y0oV9
44FNJVN1ILtJAgMBAAGjggGPMIIBizAMBgNVHRMBAf8EAjAAMB0GA1UdDgQWBBTz
sgYnIA5aPwuOczJmCRnOsPiFgDCBsAYDVR0jBIGoMIGlgBRAcjBmrsf525p1G5n7
U9Y46gzxi6F3pHUwczELMAkGA1UEBhMCRlIxDDAKBgNVBAgTA0lERjEOMAwGA1UE
BxMFUGFyaXMxLzAtBgNVBAoTJkxvY2FsIE5PREUtT1BDVUEgQ2VydGlmaWNhdGUg
QXV0aG9yaXR5MRUwEwYDVQQDEwxOb2RlT1BDVUEtQ0GCFHKJYKMR76awVK9NLCOJ
/D75hJOpMEkGA1UdEQRCMECGKnVybjplOTlkNTQ2NmY3YmI6Tm9kZU9QQ1VBLURp
c2NvdmVyeVNlcnZlcoIMZTk5ZDU0NjZmN2JihwR/AAABMCwGCWCGSAGG+EIBDQQf
Fh1PcGVuU1NMIEdlbmVyYXRlZCBDZXJ0aWZpY2F0ZTAOBgNVHQ8BAf8EBAMCAvww
IAYDVR0lAQH/BBYwFAYIKwYBBQUHAwEGCCsGAQUFBwMCMA0GCSqGSIb3DQEBCwUA
A4IBAQBWBQ+jawAZaZDG7TyuYCFjoixlzt3cKK9i+U8dQk/YXritzpuZ6D2AY1Vo
PyUwtdZ0NqGCvd3y2j7xJd4/1OKw9BNWBcRofPFnynhDc52EQQyTmD2UIAmGZTAr
B9HPTvOdWCbkcMhhDophVO9fe669LwkqD28GzcyhK9lUcJimIBQtQmQsTnY5rXQN
e3KFkVCVK8wrfMfjjTLS5lMlQ6GHKQCR8F8O9GWPugQvbyvGkzmAkQPs4+7dzF2t
LYjMUijtTKXH5K8bxggCJMQTBxgbPYwBS/ArC7N9F2UnByqgPTfSFecvQJVhREC1
zII6zA5q2G/gPNuqEoH6Z2hbPgbO
-----END CERTIFICATE-----
