Certificate:
    Data:
        Version: 3 (0x2)
        Serial Number: 4138 (0x102a)
        Signature Algorithm: sha256WithRSAEncryption
        Issuer: C=FR, ST=IDF, L=Paris, O=Local NODE-OPCUA Certificate Authority, CN=NodeOPCUA-CA
        Validity
            Not Before: Mar 21 02:38:47 2022 GMT
            Not After : Mar 21 02:38:47 2023 GMT
        Subject: C=FR, O=NodeOPCUA, CN=NodeOPCUA
        Subject Public Key Info:
            Public Key Algorithm: rsaEncryption
                Public-Key: (1024 bit)
                Modulus:
                    00:d5:11:01:e6:25:f2:a0:72:f9:d9:18:bc:83:3a:
                    59:1f:c1:9e:03:36:14:03:72:a2:54:f5:b1:51:ac:
                    3b:8e:53:61:dc:f7:b9:bf:3c:fe:5c:b6:98:91:ba:
                    55:6e:3c:39:ca:48:b9:8a:00:0d:b1:71:f4:07:65:
                    80:e8:b3:0c:49:d2:55:6d:8e:c2:f9:19:42:35:85:
                    55:49:d8:e1:98:ea:37:51:40:e6:31:f9:b6:d2:28:
                    be:f0:5b:89:be:90:df:df:fb:82:cb:06:79:a2:0c:
                    da:df:e1:b1:de:76:ad:a5:60:73:ad:f2:d2:85:7d:
                    e3:81:4d:25:53:75:20:bb:49
                Exponent: 65537 (0x10001)
        X509v3 extensions:
            X509v3 Basic Constraints: critical
                CA:FALSE
            X509v3 Subject Key Identifier: 
                F3:B2:06:27:20:0E:5A:3F:0B:8E:73:32:66:09:19:CE:B0:F8:85:80
            X509v3 Authority Key Identifier: 
                keyid:40:72:30:66:AE:C7:F9:DB:9A:75:1B:99:FB:53:D6:38:EA:0C:F1:8B
                DirName:/C=FR/ST=IDF/L=Paris/O=Local NODE-OPCUA Certificate Authority/CN=NodeOPCUA-CA
                serial:72:89:60:A3:11:EF:A6:B0:54:AF:4D:2C:23:89:FC:3E:F9:84:93:A9
            X509v3 Subject Alternative Name: 
                URI:urn:e99d5466f7bb:NodeOPCUA-DiscoveryServer, DNS:e99d5466f7bb, IP Address:127.0.0.1
            Netscape Comment: 
                OpenSSL Generated Certificate
            X509v3 Key Usage: critical
                Digital Signature, Non Repudiation, Key Encipherment, Data Encipherment, Key Agreement, Certificate Sign
            X509v3 Extended Key Usage: critical
                TLS Web Server Authentication, TLS Web Client Authentication
    Signature Algorithm: sha256WithRSAEncryption
    Signature Value:
        93:c8:45:7d:c6:9c:63:25:41:15:39:65:6f:67:3d:99:54:fc:
        da:af:99:13:73:2f:02:fd:90:61:c9:2f:0a:88:60:b5:d7:8b:
        76:91:e2:ff:cf:1d:c5:f5:0b:58:03:72:f9:19:4d:e9:8f:bf:
        cb:b0:00:aa:40:54:66:a9:e6:a6:4c:20:3e:7b:e3:6f:bf:81:
        63:6b:c9:fc:c2:32:98:08:3a:38:ea:bb:59:cf:44:c9:f3:a5:
        2d:7b:81:75:7e:ad:07:0e:55:7d:dc:80:e0:b4:4d:7a:de:57:
        ae:09:01:18:d7:9b:92:b1:00:a7:c7:2d:0a:4c:a6:0a:9f:d7:
        95:0f:5f:c1:c5:c6:5a:9a:64:1e:2b:d4:a1:b0:e4:4f:01:de:
        8e:6c:c4:85:6c:4c:89:dc:7e:b8:0a:d6:2a:be:cf:ba:2c:c6:
        ae:fa:ce:78:30:ea:00:ed:d2:46:36:bf:dd:63:81:01:31:f9:
        d5:80:88:2d:f4:7b:31:fd:0f:ef:ee:c6:a8:80:c1:ed:d4:a9:
        b5:f3:8d:ab:f6:47:bc:b1:17:96:e3:91:95:4a:64:89:12:46:
        6b:49:87:c5:0e:6a:92:6f:8c:c8:2b:e7:fb:12:b8:ef:b8:c8:
        9c:14:23:9e:c2:70:e3:20:f5:b6:0f:4a:5f:5f:72:04:9b:90:
        76:d3:3c:10
-----BEGIN CERTIFICATE-----
MIIEMTCCAxmgAwIBAgICECowDQYJKoZIhvcNAQELBQAwczELMAkGA1UEBhMCRlIx
DDAKBgNVBAgTA0lERjEOMAwGA1UEBxMFUGFyaXMxLzAtBgNVBAoTJkxvY2FsIE5P
REUtT1BDVUEgQ2VydGlmaWNhdGUgQXV0aG9yaXR5MRUwEwYDVQQDEwxOb2RlT1BD
VUEtQ0EwHhcNMjIwMzIxMDIzODQ3WhcNMjMwMzIxMDIzODQ3WjA1MQswCQYDVQQG
EwJGUjESMBAGA1UECgwJTm9kZU9QQ1VBMRIwEAYDVQQDDAlOb2RlT1BDVUEwgZ8w
DQYJKoZIhvcNAQEBBQADgY0AMIGJAoGBANURAeYl8qBy+dkYvIM6WR/BngM2FANy
olT1sVGsO45TYdz3ub88/ly2mJG6VW48OcpIuYoADbFx9AdlgOizDEnSVW2OwvkZ
QjWFVUnY4ZjqN1FA5jH5ttIovvBbib6Q39/7gssGeaIM2t/hsd52raVgc63y0oV9
44FNJVN1ILtJAgMBAAGjggGPMIIBizAMBgNVHRMBAf8EAjAAMB0GA1UdDgQWBBTz
sgYnIA5aPwuOczJmCRnOsPiFgDCBsAYDVR0jBIGoMIGlgBRAcjBmrsf525p1G5n7
U9Y46gzxi6F3pHUwczELMAkGA1UEBhMCRlIxDDAKBgNVBAgTA0lERjEOMAwGA1UE
BxMFUGFyaXMxLzAtBgNVBAoTJkxvY2FsIE5PREUtT1BDVUEgQ2VydGlmaWNhdGUg
QXV0aG9yaXR5MRUwEwYDVQQDEwxOb2RlT1BDVUEtQ0GCFHKJYKMR76awVK9NLCOJ
/D75hJOpMEkGA1UdEQRCMECGKnVybjplOTlkNTQ2NmY3YmI6Tm9kZU9QQ1VBLURp
c2NvdmVyeVNlcnZlcoIMZTk5ZDU0NjZmN2JihwR/AAABMCwGCWCGSAGG+EIBDQQf
Fh1PcGVuU1NMIEdlbmVyYXRlZCBDZXJ0aWZpY2F0ZTAOBgNVHQ8BAf8EBAMCAvww
IAYDVR0lAQH/BBYwFAYIKwYBBQUHAwEGCCsGAQUFBwMCMA0GCSqGSIb3DQEBCwUA
A4IBAQCTyEV9xpxjJUEVOWVvZz2ZVPzar5kTcy8C/ZBhyS8KiGC114t2keL/zx3F
9QtYA3L5GU3pj7/LsACqQFRmqeamTCA+e+Nvv4Fja8n8wjKYCDo46rtZz0TJ86Ut
e4F1fq0HDlV93IDgtE163leuCQEY15uSsQCnxy0KTKYKn9eVD1/BxcZammQeK9Sh
sORPAd6ObMSFbEyJ3H64CtYqvs+6LMau+s54MOoA7dJGNr/dY4EBMfnVgIgt9Hsx
/Q/v7saogMHt1Km1842r9ke8sReW45GVSmSJEkZrSYfFDmqSb4zIK+f7ErjvuMic
FCOewnDjIPW2D0pfX3IEm5B20zwQ
-----END CERTIFICATE-----
