Certificate:
    Data:
        Version: 3 (0x2)
        Serial Number: 4139 (0x102b)
        Signature Algorithm: sha256WithRSAEncryption
        Issuer: C=FR, ST=IDF, L=Paris, O=Local NODE-OPCUA Certificate Authority, CN=NodeOPCUA-CA
        Validity
            Not Before: Mar 20 02:38:47 2025 GMT
            Not After : Mar 20 02:38:47 2026 GMT
        Subject: C=FR, O=NodeOPCUA, CN=NodeOPCUA
        Subject Public Key Info:
            Public Key Algorithm: rsaEncryption
                Public-Key: (1024 bit)
                Modulus:
                    00:d5:11:01:e6:25:f2:a0:72:f9:d9:18:bc:83:3a:
                    59:1f:c1:9e:03:36:14:03:72:a2:54:f5:b1:51:ac:
                    3b:8e:53:61:dc:f7:b9:bf:3c:fe:5c:b6:98:91:ba:
                    55:6e:3c:39:ca:48:b9:8a:00:0d:b1:71:f4:07:65:
                    80:e8:b3:0c:49:d2:55:6d:8e:c2:f9:19:42:35:85:
                    55:49:d8:e1:98:ea:37:51:40:e6:31:f9:b6:d2:28:
                    be:f0:5b:89:be:90:df:df:fb:82:cb:06:79:a2:0c:
                    da:df:e1:b1:de:76:ad:a5:60:73:ad:f2:d2:85:7d:
                    e3:81:4d:25:53:75:20:bb:49
                Exponent: 65537 (0x10001)
        X509v3 extensions:
            X509v3 Basic Constraints: critical
                CA:FALSE
            X509v3 Subject Key Identifier: 
                F3:B2:06:27:20:0E:5A:3F:0B:8E:73:32:66:09:19:CE:B0:F8:85:80
            X509v3 Authority Key Identifier: 
                keyid:40:72:30:66:AE:C7:F9:DB:9A:75:1B:99:FB:53:D6:38:EA:0C:F1:8B
                DirName:/C=FR/ST=IDF/L=Paris/O=Local NODE-OPCUA Certificate Authority/CN=NodeOPCUA-CA
                serial:72:89:60:A3:11:EF:A6:B0:54:AF:4D:2C:23:89:FC:3E:F9:84:93:A9
            X509v3 Subject Alternative Name: 
                URI:urn:e99d5466f7bb:NodeOPCUA-DiscoveryServer, DNS:e99d5466f7bb, IP Address:127.0.0.1
            Netscape Comment: 
                OpenSSL Generated Certificate
            X509v3 Key Usage: critical
                Digital Signature, Non Repudiation, Key Encipherment, Data Encipherment, Key Agreement, Certificate Sign
            X509v3 Extended Key Usage: critical
                TLS Web Server Authentication, TLS Web Client Authentication
    Signature Algorithm: sha256WithRSAEncryption
    Signature Value:
        67:f1:3c:9a:8f:6d:a2:65:73:53:a3:37:7f:6e:e0:f0:74:c7:
        3c:81:e2:d1:ef:60:42:64:ab:82:0f:c0:44:16:27:03:46:70:
        f8:a0:8a:38:fa:27:f1:9f:09:d2:47:36:7b:84:e3:cb:ff:b1:
        1d:7e:1e:42:80:bb:2a:ec:56:24:cd:26:1c:7a:15:90:18:76:
        a7:31:5f:1a:f5:83:db:f5:b3:40:97:c0:94:69:fa:59:dd:26:
        7b:2c:f1:b5:57:2d:fa:46:16:7d:b2:c7:78:a8:01:26:1c:79:
        e4:9c:86:a6:84:2d:0c:d2:08:59:6a:bf:d2:a3:0a:71:43:39:
        08:f9:5c:31:89:38:2f:72:a6:2b:24:28:6d:b1:f4:9e:26:7b:
        d8:a4:22:9e:97:db:0a:ec:43:ca:a2:d1:29:b1:b1:b3:71:39:
        31:ac:d9:d9:7b:23:70:c6:de:ad:8f:67:79:ca:62:74:f4:ff:
        ab:1b:73:5d:72:c9:8c:e9:97:6a:62:1b:d1:2e:4e:14:f8:47:
        23:c0:94:c9:bb:69:9c:c3:c8:42:14:3b:40:a1:e3:75:bb:80:
        e9:05:b4:ac:d8:e2:b9:92:7b:b4:6c:c0:81:8d:a4:15:94:e9:
        e2:94:10:7a:20:d5:73:64:85:b7:ad:14:d8:d1:6a:3b:4d:e4:
        eb:54:d9:c4
-----BEGIN CERTIFICATE-----
MIIEMTCCAxmgAwIBAgICECswDQYJKoZIhvcNAQELBQAwczELMAkGA1UEBhMCRlIx
DDAKBgNVBAgTA0lERjEOMAwGA1UEBxMFUGFyaXMxLzAtBgNVBAoTJkxvY2FsIE5P
REUtT1BDVUEgQ2VydGlmaWNhdGUgQXV0aG9yaXR5MRUwEwYDVQQDEwxOb2RlT1BD
VUEtQ0EwHhcNMjUwMzIwMDIzODQ3WhcNMjYwMzIwMDIzODQ3WjA1MQswCQYDVQQG
EwJGUjESMBAGA1UECgwJTm9kZU9QQ1VBMRIwEAYDVQQDDAlOb2RlT1BDVUEwgZ8w
DQYJKoZIhvcNAQEBBQADgY0AMIGJAoGBANURAeYl8qBy+dkYvIM6WR/BngM2FANy
olT1sVGsO45TYdz3ub88/ly2mJG6VW48OcpIuYoADbFx9AdlgOizDEnSVW2OwvkZ
QjWFVUnY4ZjqN1FA5jH5ttIovvBbib6Q39/7gssGeaIM2t/hsd52raVgc63y0oV9
44FNJVN1ILtJAgMBAAGjggGPMIIBizAMBgNVHRMBAf8EAjAAMB0GA1UdDgQWBBTz
sgYnIA5aPwuOczJmCRnOsPiFgDCBsAYDVR0jBIGoMIGlgBRAcjBmrsf525p1G5n7
U9Y46gzxi6F3pHUwczELMAkGA1UEBhMCRlIxDDAKBgNVBAgTA0lERjEOMAwGA1UE
BxMFUGFyaXMxLzAtBgNVBAoTJkxvY2FsIE5PREUtT1BDVUEgQ2VydGlmaWNhdGUg
QXV0aG9yaXR5MRUwEwYDVQQDEwxOb2RlT1BDVUEtQ0GCFHKJYKMR76awVK9NLCOJ
/D75hJOpMEkGA1UdEQRCMECGKnVybjplOTlkNTQ2NmY3YmI6Tm9kZU9QQ1VBLURp
c2NvdmVyeVNlcnZlcoIMZTk5ZDU0NjZmN2JihwR/AAABMCwGCWCGSAGG+EIBDQQf
Fh1PcGVuU1NMIEdlbmVyYXRlZCBDZXJ0aWZpY2F0ZTAOBgNVHQ8BAf8EBAMCAvww
IAYDVR0lAQH/BBYwFAYIKwYBBQUHAwEGCCsGAQUFBwMCMA0GCSqGSIb3DQEBCwUA
A4IBAQBn8Tyaj22iZXNTozd/buDwdMc8geLR72BCZKuCD8BEFicDRnD4oIo4+ifx
nwnSRzZ7hOPL/7Edfh5CgLsq7FYkzSYcehWQGHanMV8a9YPb9bNAl8CUafpZ3SZ7
LPG1Vy36RhZ9ssd4qAEmHHnknIamhC0M0ghZar/SowpxQzkI+VwxiTgvcqYrJCht
sfSeJnvYpCKel9sK7EPKotEpsbGzcTkxrNnZeyNwxt6tj2d5ymJ09P+rG3NdcsmM
6ZdqYhvRLk4U+EcjwJTJu2mcw8hCFDtAoeN1u4DpBbSs2OK5knu0bMCBjaQVlOni
lBB6INVzZIW3rRTY0Wo7TeTrVNnE
-----END CERTIFICATE-----
