Certificate:
    Data:
        Version: 3 (0x2)
        Serial Number: 4140 (0x102c)
        Signature Algorithm: sha256WithRSAEncryption
        Issuer: C=FR, ST=IDF, L=Paris, O=Local NODE-OPCUA Certificate Authority, CN=NodeOPCUA-CA
        Validity
            Not Before: Mar 19 02:38:47 2024 GMT
            Not After : Mar 19 02:38:47 2025 GMT
        Subject: C=FR, O=NodeOPCUA, CN=NodeOPCUA
        Subject Public Key Info:
            Public Key Algorithm: rsaEncryption
                Public-Key: (1024 bit)
                Modulus:
                    00:d5:11:01:e6:25:f2:a0:72:f9:d9:18:bc:83:3a:
                    59:1f:c1:9e:03:36:14:03:72:a2:54:f5:b1:51:ac:
                    3b:8e:53:61:dc:f7:b9:bf:3c:fe:5c:b6:98:91:ba:
                    55:6e:3c:39:ca:48:b9:8a:00:0d:b1:71:f4:07:65:
                    80:e8:b3:0c:49:d2:55:6d:8e:c2:f9:19:42:35:85:
                    55:49:d8:e1:98:ea:37:51:40:e6:31:f9:b6:d2:28:
                    be:f0:5b:89:be:90:df:df:fb:82:cb:06:79:a2:0c:
                    da:df:e1:b1:de:76:ad:a5:60:73:ad:f2:d2:85:7d:
                    e3:81:4d:25:53:75:20:bb:49
                Exponent: 65537 (0x10001)
        X509v3 extensions:
            X509v3 Basic Constraints: critical
                CA:FALSE
            X509v3 Subject Key Identifier: 
                F3:B2:06:27:20:0E:5A:3F:0B:8E:73:32:66:09:19:CE:B0:F8:85:80
            X509v3 Authority Key Identifier: 
                keyid:40:72:30:66:AE:C7:F9:DB:9A:75:1B:99:FB:53:D6:38:EA:0C:F1:8B
                DirName:/C=FR/ST=IDF/L=Paris/O=Local NODE-OPCUA Certificate Authority/CN=NodeOPCUA-CA
                serial:72:89:60:A3:11:EF:A6:B0:54:AF:4D:2C:23:89:FC:3E:F9:84:93:A9
            X509v3 Subject Alternative Name: 
                URI:urn:e99d5466f7bb:NodeOPCUA-DiscoveryServerRevoked, DNS:e99d5466f7bb, IP Address:127.0.0.1
            Netscape Comment: 
                OpenSSL Generated Certificate
            X509v3 Key Usage: critical
                Digital Signature, Non Repudiation, Key Encipherment, Data Encipherment, Key Agreement, Certificate Sign
            X509v3 Extended Key Usage: critical
                TLS Web Server Authentication, TLS Web Client Authentication
    Signature Algorithm: sha256WithRSAEncryption
    Signature Value:
        53:63:2d:d0:a0:9b:89:7a:71:76:a4:f1:16:bb:bc:45:dc:72:
        41:6b:a0:1e:dd:0f:c5:84:46:ad:ca:67:80:8f:8f:79:45:48:
        e1:7d:49:37:8f:87:59:05:25:0c:98:49:7a:4e:03:38:ba:ca:
        af:ea:a4:fc:9b:05:ed:44:b6:84:2a:e1:91:6e:d1:42:c0:16:
        5f:53:57:2e:70:89:8a:d7:0c:c5:2f:bf:8b:da:03:f5:95:86:
        72:db:8f:cd:ca:f2:81:42:30:c9:01:a6:27:e5:89:06:f6:62:
        1b:5e:0e:28:61:c2:5d:c7:24:b3:5b:23:6b:da:d3:ae:c9:2d:
        63:8b:45:70:59:25:78:37:06:b6:1a:0f:c1:db:ed:fc:d2:0f:
        c6:7d:7d:79:27:9e:ff:1d:b9:1e:eb:be:ed:19:aa:6a:29:28:
        e8:53:cb:d8:4a:3b:77:c3:b4:6f:dc:ed:49:1d:7c:b9:26:ff:
        23:49:23:07:c5:84:75:c4:8e:ce:04:5a:54:5a:f6:98:48:a0:
        06:94:52:ad:43:e8:70:83:8a:a3:da:7e:16:da:8d:2f:09:b3:
        0d:ad:3e:fa:a4:83:be:88:00:e0:a5:22:b1:d0:eb:de:89:62:
        7d:a0:45:f4:e4:ac:3b:99:ef:60:f3:90:9c:96:89:b7:10:6a:
        c8:4e:8e:b2
-----BEGIN CERTIFICATE-----
MIIEODCCAyCgAwIBAgICECwwDQYJKoZIhvcNAQELBQAwczELMAkGA1UEBhMCRlIx
DDAKBgNVBAgTA0lERjEOMAwGA1UEBxMFUGFyaXMxLzAtBgNVBAoTJkxvY2FsIE5P
REUtT1BDVUEgQ2VydGlmaWNhdGUgQXV0aG9yaXR5MRUwEwYDVQQDEwxOb2RlT1BD
VUEtQ0EwHhcNMjQwMzE5MDIzODQ3WhcNMjUwMzE5MDIzODQ3WjA1MQswCQYDVQQG
EwJGUjESMBAGA1UECgwJTm9kZU9QQ1VBMRIwEAYDVQQDDAlOb2RlT1BDVUEwgZ8w
DQYJKoZIhvcNAQEBBQADgY0AMIGJAoGBANURAeYl8qBy+dkYvIM6WR/BngM2FANy
olT1sVGsO45TYdz3ub88/ly2mJG6VW48OcpIuYoADbFx9AdlgOizDEnSVW2OwvkZ
QjWFVUnY4ZjqN1FA5jH5ttIovvBbib6Q39/7gssGeaIM2t/hsd52raVgc63y0oV9
44FNJVN1ILtJAgMBAAGjggGWMIIBkjAMBgNVHRMBAf8EAjAAMB0GA1UdDgQWBBTz
sgYnIA5aPwuOczJmCRnOsPiFgDCBsAYDVR0jBIGoMIGlgBRAcjBmrsf525p1G5n7
U9Y46gzxi6F3pHUwczELMAkGA1UEBhMCRlIxDDAKBgNVBAgTA0lERjEOMAwGA1UE
BxMFUGFyaXMxLzAtBgNVBAoTJkxvY2FsIE5PREUtT1BDVUEgQ2VydGlmaWNhdGUg
QXV0aG9yaXR5MRUwEwYDVQQDEwxOb2RlT1BDVUEtQ0GCFHKJYKMR76awVK9NLCOJ
/D75hJOpMFAGA1UdEQRJMEeGMXVybjplOTlkNTQ2NmY3YmI6Tm9kZU9QQ1VBLURp
c2NvdmVyeVNlcnZlclJldm9rZWSCDGU5OWQ1NDY2ZjdiYocEfwAAATAsBglghkgB
hvhCAQ0EHxYdT3BlblNTTCBHZW5lcmF0ZWQgQ2VydGlmaWNhdGUwDgYDVR0PAQH/
BAQDAgL8MCAGA1UdJQEB/wQWMBQGCCsGAQUFBwMBBggrBgEFBQcDAjANBgkqhkiG
9w0BAQsFAAOCAQEAU2Mt0KCbiXpxdqTxFru8RdxyQWugHt0PxYRGrcpngI+PeUVI
4X1JN4+HWQUlDJhJek4DOLrKr+qk/JsF7US2hCrhkW7RQsAWX1NXLnCJitcMxS+/
i9oD9ZWGctuPzcrygUIwyQGmJ+WJBvZiG14OKGHCXccks1sja9rTrsktY4tFcFkl
eDcGthoPwdvt/NIPxn19eSee/x25Huu+7Rmqaiko6FPL2Eo7d8O0b9ztSR18uSb/
I0kjB8WEdcSOzgRaVFr2mEigBpRSrUPocIOKo9p+FtqNLwmzDa0++qSDvogA4KUi
sdDr3olifaBF9OSsO5nvYPOQnJaJtxBqyE6Osg==
-----END CERTIFICATE-----
