Certificate:
    Data:
        Version: 3 (0x2)
        Serial Number: 4141 (0x102d)
        Signature Algorithm: sha256WithRSAEncryption
        Issuer: C=FR, ST=IDF, L=Paris, O=Local NODE-OPCUA Certificate Authority, CN=NodeOPCUA-CA
        Validity
            Not Before: Mar 19 02:38:47 2024 GMT
            Not After : Mar 19 02:38:47 2025 GMT
        Subject: C=FR, O=NodeOPCUA, CN=NodeOPCUA
        Subject Public Key Info:
            Public Key Algorithm: rsaEncryption
                Public-Key: (2048 bit)
                Modulus:
                    00:b0:fb:df:1c:d6:1b:75:d6:e7:7c:54:0c:66:54:
                    59:77:e1:af:62:a6:05:41:31:dd:38:cd:b1:34:80:
                    a2:48:68:bc:1a:72:0f:d2:28:97:58:14:ce:6c:70:
                    3b:23:43:9e:a0:94:9f:f4:81:56:14:3f:40:4f:d9:
                    ca:4a:44:40:c3:64:8a:78:47:73:a5:1f:05:b5:6a:
                    89:45:df:ae:84:cd:b5:ff:87:63:9b:bb:27:da:22:
                    87:8b:ca:e8:cc:80:e7:5e:e9:0b:2e:61:08:28:0d:
                    21:f9:a9:b2:62:5e:bc:52:8e:ac:8c:9a:6a:7b:3c:
                    1e:33:0b:4b:31:ba:10:20:0d:25:91:94:78:fc:0d:
                    40:58:9a:47:a9:dc:54:ba:7e:c9:74:58:da:30:f5:
                    dc:9b:29:93:91:b3:f3:85:66:2a:5c:d1:76:95:03:
                    6b:09:39:57:03:9c:e0:50:55:47:e7:3e:b3:d0:6f:
                    be:37:4c:9b:29:37:ac:62:d2:13:03:22:92:f7:df:
                    50:86:54:29:aa:41:aa:a2:78:32:f5:e1:4a:88:fe:
                    db:4d:4c:ac:86:5c:39:b7:e2:cd:84:36:97:de:d5:
                    09:2b:3b:73:ca:0f:40:57:44:9f:f5:b8:24:68:6e:
                    f8:f1:77:5a:7d:f4:af:eb:8f:4d:d7:90:6e:6a:dc:
                    bf:fd
                Exponent: 65537 (0x10001)
        X509v3 extensions:
            X509v3 Basic Constraints: critical
                CA:FALSE
            X509v3 Subject Key Identifier: 
                65:C5:4F:14:3C:43:08:16:7A:83:89:8C:B2:0E:A1:EB:C8:10:BA:85
            X509v3 Authority Key Identifier: 
                keyid:40:72:30:66:AE:C7:F9:DB:9A:75:1B:99:FB:53:D6:38:EA:0C:F1:8B
                DirName:/C=FR/ST=IDF/L=Paris/O=Local NODE-OPCUA Certificate Authority/CN=NodeOPCUA-CA
                serial:72:89:60:A3:11:EF:A6:B0:54:AF:4D:2C:23:89:FC:3E:F9:84:93:A9
            X509v3 Subject Alternative Name: 
                URI:urn:e99d5466f7bb:NodeOPCUA-DiscoveryServer, DNS:e99d5466f7bb, IP Address:127.0.0.1
            Netscape Comment: 
                OpenSSL Generated Certificate
            X509v3 Key Usage: critical
                Digital Signature, Non Repudiation, Key Encipherment, Data Encipherment, Key Agreement, Certificate Sign
            X509v3 Extended Key Usage: critical
                TLS Web Server Authentication, TLS Web Client Authentication
    Signature Algorithm: sha256WithRSAEncryption
    Signature Value:
        59:da:66:0c:a0:2c:f7:41:8c:03:28:e7:dd:34:3e:9c:c9:3d:
        e1:9a:58:81:99:9a:66:c0:d6:82:03:ff:22:52:ab:09:d9:0e:
        42:94:77:a8:ff:0c:3f:dc:91:0c:59:0b:60:49:34:1c:aa:e4:
        be:4a:ba:04:5c:6a:f0:ec:7d:9e:0f:79:40:06:87:d0:55:ee:
        c6:d1:fd:85:2d:05:63:83:2d:09:18:1d:0e:52:ab:bf:af:61:
        12:e8:ec:3b:76:8a:3a:39:c6:c8:63:da:8c:63:ba:5c:2a:0a:
        c2:88:d5:20:bf:83:dc:97:1f:4c:36:cb:2c:6f:d5:db:6b:f9:
        19:8b:66:02:9f:92:f6:22:c0:59:23:01:78:d8:7a:cc:a5:ae:
        10:ca:fc:ad:e3:e9:9b:b9:9f:bc:99:bb:be:34:80:9f:1e:1a:
        47:0d:6a:80:a3:e0:97:2d:e6:86:5e:7e:9a:42:91:54:2c:66:
        35:13:ad:95:cb:19:d8:a1:82:1c:10:c7:80:0f:35:fd:a8:00:
        a7:9f:10:66:43:b4:60:a0:c8:4a:ed:34:a7:aa:33:7c:8a:ca:
        e8:92:6c:04:db:9a:da:27:63:c9:f1:21:ce:7c:20:fa:45:00:
        0b:c8:83:36:01:40:29:c2:d8:0f:02:cd:58:b0:b4:44:31:20:
        a6:de:39:7d
-----BEGIN CERTIFICATE-----
MIIEtTCCA52gAwIBAgICEC0wDQYJKoZIhvcNAQELBQAwczELMAkGA1UEBhMCRlIx
DDAKBgNVBAgTA0lERjEOMAwGA1UEBxMFUGFyaXMxLzAtBgNVBAoTJkxvY2FsIE5P
REUtT1BDVUEgQ2VydGlmaWNhdGUgQXV0aG9yaXR5MRUwEwYDVQQDEwxOb2RlT1BD
VUEtQ0EwHhcNMjQwMzE5MDIzODQ3WhcNMjUwMzE5MDIzODQ3WjA1MQswCQYDVQQG
EwJGUjESMBAGA1UECgwJTm9kZU9QQ1VBMRIwEAYDVQQDDAlOb2RlT1BDVUEwggEi
MA0GCSqGSIb3DQEBAQUAA4IBDwAwggEKAoIBAQCw+98c1ht11ud8VAxmVFl34a9i
pgVBMd04zbE0gKJIaLwacg/SKJdYFM5scDsjQ56glJ/0gVYUP0BP2cpKREDDZIp4
R3OlHwW1aolF366EzbX/h2ObuyfaIoeLyujMgOde6QsuYQgoDSH5qbJiXrxSjqyM
mmp7PB4zC0sxuhAgDSWRlHj8DUBYmkep3FS6fsl0WNow9dybKZORs/OFZipc0XaV
A2sJOVcDnOBQVUfnPrPQb743TJspN6xi0hMDIpL331CGVCmqQaqieDL14UqI/ttN
TKyGXDm34s2ENpfe1QkrO3PKD0BXRJ/1uCRobvjxd1p99K/rj03XkG5q3L/9AgMB
AAGjggGPMIIBizAMBgNVHRMBAf8EAjAAMB0GA1UdDgQWBBRlxU8UPEMIFnqDiYyy
DqHryBC6hTCBsAYDVR0jBIGoMIGlgBRAcjBmrsf525p1G5n7U9Y46gzxi6F3pHUw
czELMAkGA1UEBhMCRlIxDDAKBgNVBAgTA0lERjEOMAwGA1UEBxMFUGFyaXMxLzAt
BgNVBAoTJkxvY2FsIE5PREUtT1BDVUEgQ2VydGlmaWNhdGUgQXV0aG9yaXR5MRUw
EwYDVQQDEwxOb2RlT1BDVUEtQ0GCFHKJYKMR76awVK9NLCOJ/D75hJOpMEkGA1Ud
EQRCMECGKnVybjplOTlkNTQ2NmY3YmI6Tm9kZU9QQ1VBLURpc2NvdmVyeVNlcnZl
coIMZTk5ZDU0NjZmN2JihwR/AAABMCwGCWCGSAGG+EIBDQQfFh1PcGVuU1NMIEdl
bmVyYXRlZCBDZXJ0aWZpY2F0ZTAOBgNVHQ8BAf8EBAMCAvwwIAYDVR0lAQH/BBYw
FAYIKwYBBQUHAwEGCCsGAQUFBwMCMA0GCSqGSIb3DQEBCwUAA4IBAQBZ2mYMoCz3
QYwDKOfdND6cyT3hmliBmZpmwNaCA/8iUqsJ2Q5ClHeo/ww/3JEMWQtgSTQcquS+
SroEXGrw7H2eD3lABofQVe7G0f2FLQVjgy0JGB0OUqu/r2ES6Ow7doo6OcbIY9qM
Y7pcKgrCiNUgv4Pclx9MNsssb9Xba/kZi2YCn5L2IsBZIwF42HrMpa4Qyvyt4+mb
uZ+8mbu+NICfHhpHDWqAo+CXLeaGXn6aQpFULGY1E62VyxnYoYIcEMeADzX9qACn
nxBmQ7RgoMhK7TSnqjN8isrokmwE25raJ2PJ8SHOfCD6RQALyIM2AUApwtgPAs1Y
sLREMSCm3jl9
-----END CERTIFICATE-----
