Certificate:
    Data:
        Version: 3 (0x2)
        Serial Number: 4143 (0x102f)
        Signature Algorithm: sha256WithRSAEncryption
        Issuer: C=FR, ST=IDF, L=Paris, O=Local NODE-OPCUA Certificate Authority, CN=NodeOPCUA-CA
        Validity
            Not Before: Mar 21 02:38:47 2022 GMT
            Not After : Mar 21 02:38:47 2023 GMT
        Subject: C=FR, O=NodeOPCUA, CN=NodeOPCUA
        Subject Public Key Info:
            Public Key Algorithm: rsaEncryption
                Public-Key: (2048 bit)
                Modulus:
                    00:b0:fb:df:1c:d6:1b:75:d6:e7:7c:54:0c:66:54:
                    59:77:e1:af:62:a6:05:41:31:dd:38:cd:b1:34:80:
                    a2:48:68:bc:1a:72:0f:d2:28:97:58:14:ce:6c:70:
                    3b:23:43:9e:a0:94:9f:f4:81:56:14:3f:40:4f:d9:
                    ca:4a:44:40:c3:64:8a:78:47:73:a5:1f:05:b5:6a:
                    89:45:df:ae:84:cd:b5:ff:87:63:9b:bb:27:da:22:
                    87:8b:ca:e8:cc:80:e7:5e:e9:0b:2e:61:08:28:0d:
                    21:f9:a9:b2:62:5e:bc:52:8e:ac:8c:9a:6a:7b:3c:
                    1e:33:0b:4b:31:ba:10:20:0d:25:91:94:78:fc:0d:
                    40:58:9a:47:a9:dc:54:ba:7e:c9:74:58:da:30:f5:
                    dc:9b:29:93:91:b3:f3:85:66:2a:5c:d1:76:95:03:
                    6b:09:39:57:03:9c:e0:50:55:47:e7:3e:b3:d0:6f:
                    be:37:4c:9b:29:37:ac:62:d2:13:03:22:92:f7:df:
                    50:86:54:29:aa:41:aa:a2:78:32:f5:e1:4a:88:fe:
                    db:4d:4c:ac:86:5c:39:b7:e2:cd:84:36:97:de:d5:
                    09:2b:3b:73:ca:0f:40:57:44:9f:f5:b8:24:68:6e:
                    f8:f1:77:5a:7d:f4:af:eb:8f:4d:d7:90:6e:6a:dc:
                    bf:fd
                Exponent: 65537 (0x10001)
        X509v3 extensions:
            X509v3 Basic Constraints: critical
                CA:FALSE
            X509v3 Subject Key Identifier: 
                65:C5:4F:14:3C:43:08:16:7A:83:89:8C:B2:0E:A1:EB:C8:10:BA:85
            X509v3 Authority Key Identifier: 
                keyid:40:72:30:66:AE:C7:F9:DB:9A:75:1B:99:FB:53:D6:38:EA:0C:F1:8B
                DirName:/C=FR/ST=IDF/L=Paris/O=Local NODE-OPCUA Certificate Authority/CN=NodeOPCUA-CA
                serial:72:89:60:A3:11:EF:A6:B0:54:AF:4D:2C:23:89:FC:3E:F9:84:93:A9
            X509v3 Subject Alternative Name: 
                URI:urn:e99d5466f7bb:NodeOPCUA-DiscoveryServer, DNS:e99d5466f7bb, IP Address:127.0.0.1
            Netscape Comment: 
                OpenSSL Generated Certificate
            X509v3 Key Usage: critical
                Digital Signature, Non Repudiation, Key Encipherment, Data Encipherment, Key Agreement, Certificate Sign
            X509v3 Extended Key Usage: critical
                TLS Web Server Authentication, TLS Web Client Authentication
    Signature Algorithm: sha256WithRSAEncryption
    Signature Value:
        64:85:c2:48:a6:52:49:f5:fb:a6:3e:8d:d8:da:5e:8a:2f:b8:
        e5:c7:52:31:8d:2b:94:0a:25:e6:9d:d1:7d:cf:02:f4:d4:a3:
        69:ae:fd:2a:19:d0:89:78:0c:3b:a5:d4:a0:6d:5c:de:f0:1d:
        b2:a4:c1:be:1f:81:97:2c:68:ac:6c:04:d6:65:bb:1d:94:eb:
        a2:e8:7f:04:52:67:89:a8:20:83:fd:ed:f8:24:8c:d4:3b:77:
        f5:7c:58:0a:b6:71:33:02:6f:f0:b9:d1:08:ce:25:09:de:61:
        64:dd:9b:91:c2:0b:cb:ee:7f:20:da:08:75:5e:9c:e0:8f:d7:
        7d:83:2c:54:3d:a5:a0:77:4e:c9:3c:02:64:d0:00:51:50:2f:
        b7:98:15:f5:ad:56:dc:33:e4:36:96:f6:7c:95:43:dc:02:85:
        b3:74:a9:a8:91:dc:f3:74:f0:10:65:a0:72:45:ad:00:a2:ed:
        65:30:b2:5b:30:fb:4e:4c:25:82:7f:3c:fd:f5:76:17:d4:26:
        92:9a:e2:f6:01:41:89:3b:70:54:c6:2f:80:6c:fb:39:53:35:
        af:e2:af:db:be:e9:14:92:ef:db:08:16:9a:f9:23:d3:3b:03:
        0b:be:8d:eb:68:36:f6:74:5c:2b:64:ac:5c:78:11:25:ab:e8:
        04:5e:fc:eb
-----BEGIN CERTIFICATE-----
MIIEtTCCA52gAwIBAgICEC8wDQYJKoZIhvcNAQELBQAwczELMAkGA1UEBhMCRlIx
DDAKBgNVBAgTA0lERjEOMAwGA1UEBxMFUGFyaXMxLzAtBgNVBAoTJkxvY2FsIE5P
REUtT1BDVUEgQ2VydGlmaWNhdGUgQXV0aG9yaXR5MRUwEwYDVQQDEwxOb2RlT1BD
VUEtQ0EwHhcNMjIwMzIxMDIzODQ3WhcNMjMwMzIxMDIzODQ3WjA1MQswCQYDVQQG
EwJGUjESMBAGA1UECgwJTm9kZU9QQ1VBMRIwEAYDVQQDDAlOb2RlT1BDVUEwggEi
MA0GCSqGSIb3DQEBAQUAA4IBDwAwggEKAoIBAQCw+98c1ht11ud8VAxmVFl34a9i
pgVBMd04zbE0gKJIaLwacg/SKJdYFM5scDsjQ56glJ/0gVYUP0BP2cpKREDDZIp4
R3OlHwW1aolF366EzbX/h2ObuyfaIoeLyujMgOde6QsuYQgoDSH5qbJiXrxSjqyM
mmp7PB4zC0sxuhAgDSWRlHj8DUBYmkep3FS6fsl0WNow9dybKZORs/OFZipc0XaV
A2sJOVcDnOBQVUfnPrPQb743TJspN6xi0hMDIpL331CGVCmqQaqieDL14UqI/ttN
TKyGXDm34s2ENpfe1QkrO3PKD0BXRJ/1uCRobvjxd1p99K/rj03XkG5q3L/9AgMB
AAGjggGPMIIBizAMBgNVHRMBAf8EAjAAMB0GA1UdDgQWBBRlxU8UPEMIFnqDiYyy
DqHryBC6hTCBsAYDVR0jBIGoMIGlgBRAcjBmrsf525p1G5n7U9Y46gzxi6F3pHUw
czELMAkGA1UEBhMCRlIxDDAKBgNVBAgTA0lERjEOMAwGA1UEBxMFUGFyaXMxLzAt
BgNVBAoTJkxvY2FsIE5PREUtT1BDVUEgQ2VydGlmaWNhdGUgQXV0aG9yaXR5MRUw
EwYDVQQDEwxOb2RlT1BDVUEtQ0GCFHKJYKMR76awVK9NLCOJ/D75hJOpMEkGA1Ud
EQRCMECGKnVybjplOTlkNTQ2NmY3YmI6Tm9kZU9QQ1VBLURpc2NvdmVyeVNlcnZl
coIMZTk5ZDU0NjZmN2JihwR/AAABMCwGCWCGSAGG+EIBDQQfFh1PcGVuU1NMIEdl
bmVyYXRlZCBDZXJ0aWZpY2F0ZTAOBgNVHQ8BAf8EBAMCAvwwIAYDVR0lAQH/BBYw
FAYIKwYBBQUHAwEGCCsGAQUFBwMCMA0GCSqGSIb3DQEBCwUAA4IBAQBkhcJIplJJ
9fumPo3Y2l6KL7jlx1IxjSuUCiXmndF9zwL01KNprv0qGdCJeAw7pdSgbVze8B2y
pMG+H4GXLGisbATWZbsdlOui6H8EUmeJqCCD/e34JIzUO3f1fFgKtnEzAm/wudEI
ziUJ3mFk3ZuRwgvL7n8g2gh1Xpzgj9d9gyxUPaWgd07JPAJk0ABRUC+3mBX1rVbc
M+Q2lvZ8lUPcAoWzdKmokdzzdPAQZaByRa0Aou1lMLJbMPtOTCWCfzz99XYX1CaS
muL2AUGJO3BUxi+AbPs5UzWv4q/bvukUku/bCBaa+SPTOwMLvo3raDb2dFwrZKxc
eBElq+gEXvzr
-----END CERTIFICATE-----
