Certificate:
    Data:
        Version: 3 (0x2)
        Serial Number: 4145 (0x1031)
        Signature Algorithm: sha256WithRSAEncryption
        Issuer: C=FR, ST=IDF, L=Paris, O=Local NODE-OPCUA Certificate Authority, CN=NodeOPCUA-CA
        Validity
            Not Before: Mar 19 02:38:47 2024 GMT
            Not After : Mar 19 02:38:47 2025 GMT
        Subject: C=FR, O=NodeOPCUA, CN=NodeOPCUA
        Subject Public Key Info:
            Public Key Algorithm: rsaEncryption
                Public-Key: (2048 bit)
                Modulus:
                    00:b0:fb:df:1c:d6:1b:75:d6:e7:7c:54:0c:66:54:
                    59:77:e1:af:62:a6:05:41:31:dd:38:cd:b1:34:80:
                    a2:48:68:bc:1a:72:0f:d2:28:97:58:14:ce:6c:70:
                    3b:23:43:9e:a0:94:9f:f4:81:56:14:3f:40:4f:d9:
                    ca:4a:44:40:c3:64:8a:78:47:73:a5:1f:05:b5:6a:
                    89:45:df:ae:84:cd:b5:ff:87:63:9b:bb:27:da:22:
                    87:8b:ca:e8:cc:80:e7:5e:e9:0b:2e:61:08:28:0d:
                    21:f9:a9:b2:62:5e:bc:52:8e:ac:8c:9a:6a:7b:3c:
                    1e:33:0b:4b:31:ba:10:20:0d:25:91:94:78:fc:0d:
                    40:58:9a:47:a9:dc:54:ba:7e:c9:74:58:da:30:f5:
                    dc:9b:29:93:91:b3:f3:85:66:2a:5c:d1:76:95:03:
                    6b:09:39:57:03:9c:e0:50:55:47:e7:3e:b3:d0:6f:
                    be:37:4c:9b:29:37:ac:62:d2:13:03:22:92:f7:df:
                    50:86:54:29:aa:41:aa:a2:78:32:f5:e1:4a:88:fe:
                    db:4d:4c:ac:86:5c:39:b7:e2:cd:84:36:97:de:d5:
                    09:2b:3b:73:ca:0f:40:57:44:9f:f5:b8:24:68:6e:
                    f8:f1:77:5a:7d:f4:af:eb:8f:4d:d7:90:6e:6a:dc:
                    bf:fd
                Exponent: 65537 (0x10001)
        X509v3 extensions:
            X509v3 Basic Constraints: critical
                CA:FALSE
            X509v3 Subject Key Identifier: 
                65:C5:4F:14:3C:43:08:16:7A:83:89:8C:B2:0E:A1:EB:C8:10:BA:85
            X509v3 Authority Key Identifier: 
                keyid:40:72:30:66:AE:C7:F9:DB:9A:75:1B:99:FB:53:D6:38:EA:0C:F1:8B
                DirName:/C=FR/ST=IDF/L=Paris/O=Local NODE-OPCUA Certificate Authority/CN=NodeOPCUA-CA
                serial:72:89:60:A3:11:EF:A6:B0:54:AF:4D:2C:23:89:FC:3E:F9:84:93:A9
            X509v3 Subject Alternative Name: 
                URI:urn:e99d5466f7bb:NodeOPCUA-DiscoveryServerRevoked, DNS:e99d5466f7bb, IP Address:127.0.0.1
            Netscape Comment: 
                OpenSSL Generated Certificate
            X509v3 Key Usage: critical
                Digital Signature, Non Repudiation, Key Encipherment, Data Encipherment, Key Agreement, Certificate Sign
            X509v3 Extended Key Usage: critical
                TLS Web Server Authentication, TLS Web Client Authentication
    Signature Algorithm: sha256WithRSAEncryption
    Signature Value:
        b4:15:16:59:cd:4b:d7:a9:57:a9:e5:97:86:95:d1:7e:d8:9e:
        76:0e:9b:12:05:07:88:a0:40:ce:27:65:bf:b3:dd:a8:35:5d:
        00:44:56:ad:90:d5:aa:ef:15:21:ff:64:ed:7d:2f:11:59:bd:
        26:65:77:24:c5:03:aa:94:27:10:47:f1:85:31:f4:e6:ce:f7:
        77:78:e3:d7:57:77:2f:ec:56:0a:b0:ec:7d:a2:e8:3f:c6:c0:
        97:d1:c7:ca:ac:4e:fe:20:df:cc:65:66:1a:fb:94:9f:a8:3b:
        91:1c:ac:3a:2c:99:ca:6b:ff:85:11:f1:99:3b:1f:dc:8d:e3:
        73:70:f1:de:98:7d:42:a5:c7:66:cc:7e:c7:53:31:a4:17:7c:
        3e:80:b6:3b:24:b6:c0:53:c3:02:3f:5f:2c:de:a5:4e:8c:68:
        f6:df:ef:a9:9f:28:20:8b:a0:b7:02:2c:4f:0d:52:59:ae:36:
        d0:2d:c0:19:85:97:cd:93:22:57:e5:88:e0:79:f4:65:13:4e:
        89:5d:c5:aa:b6:25:73:b8:b4:52:1c:2c:d0:12:32:dd:28:6e:
        fb:ba:77:d9:a8:90:88:a3:2e:46:5b:2c:fd:cf:05:2f:2f:74:
        7a:13:e6:fb:cf:b5:d9:bb:fb:d5:da:3c:e6:59:56:61:5f:d9:
        93:95:16:38
-----BEGIN CERTIFICATE-----
MIIEvDCCA6SgAwIBAgICEDEwDQYJKoZIhvcNAQELBQAwczELMAkGA1UEBhMCRlIx
DDAKBgNVBAgTA0lERjEOMAwGA1UEBxMFUGFyaXMxLzAtBgNVBAoTJkxvY2FsIE5P
REUtT1BDVUEgQ2VydGlmaWNhdGUgQXV0aG9yaXR5MRUwEwYDVQQDEwxOb2RlT1BD
VUEtQ0EwHhcNMjQwMzE5MDIzODQ3WhcNMjUwMzE5MDIzODQ3WjA1MQswCQYDVQQG
EwJGUjESMBAGA1UECgwJTm9kZU9QQ1VBMRIwEAYDVQQDDAlOb2RlT1BDVUEwggEi
MA0GCSqGSIb3DQEBAQUAA4IBDwAwggEKAoIBAQCw+98c1ht11ud8VAxmVFl34a9i
pgVBMd04zbE0gKJIaLwacg/SKJdYFM5scDsjQ56glJ/0gVYUP0BP2cpKREDDZIp4
R3OlHwW1aolF366EzbX/h2ObuyfaIoeLyujMgOde6QsuYQgoDSH5qbJiXrxSjqyM
mmp7PB4zC0sxuhAgDSWRlHj8DUBYmkep3FS6fsl0WNow9dybKZORs/OFZipc0XaV
A2sJOVcDnOBQVUfnPrPQb743TJspN6xi0hMDIpL331CGVCmqQaqieDL14UqI/ttN
TKyGXDm34s2ENpfe1QkrO3PKD0BXRJ/1uCRobvjxd1p99K/rj03XkG5q3L/9AgMB
AAGjggGWMIIBkjAMBgNVHRMBAf8EAjAAMB0GA1UdDgQWBBRlxU8UPEMIFnqDiYyy
DqHryBC6hTCBsAYDVR0jBIGoMIGlgBRAcjBmrsf525p1G5n7U9Y46gzxi6F3pHUw
czELMAkGA1UEBhMCRlIxDDAKBgNVBAgTA0lERjEOMAwGA1UEBxMFUGFyaXMxLzAt
BgNVBAoTJkxvY2FsIE5PREUtT1BDVUEgQ2VydGlmaWNhdGUgQXV0aG9yaXR5MRUw
EwYDVQQDEwxOb2RlT1BDVUEtQ0GCFHKJYKMR76awVK9NLCOJ/D75hJOpMFAGA1Ud
EQRJMEeGMXVybjplOTlkNTQ2NmY3YmI6Tm9kZU9QQ1VBLURpc2NvdmVyeVNlcnZl
clJldm9rZWSCDGU5OWQ1NDY2ZjdiYocEfwAAATAsBglghkgBhvhCAQ0EHxYdT3Bl
blNTTCBHZW5lcmF0ZWQgQ2VydGlmaWNhdGUwDgYDVR0PAQH/BAQDAgL8MCAGA1Ud
JQEB/wQWMBQGCCsGAQUFBwMBBggrBgEFBQcDAjANBgkqhkiG9w0BAQsFAAOCAQEA
tBUWWc1L16lXqeWXhpXRftiedg6bEgUHiKBAzidlv7PdqDVdAERWrZDVqu8VIf9k
7X0vEVm9JmV3JMUDqpQnEEfxhTH05s73d3jj11d3L+xWCrDsfaLoP8bAl9HHyqxO
/iDfzGVmGvuUn6g7kRysOiyZymv/hRHxmTsf3I3jc3Dx3ph9QqXHZsx+x1MxpBd8
PoC2OyS2wFPDAj9fLN6lToxo9t/vqZ8oIIugtwIsTw1SWa420C3AGYWXzZMiV+WI
4Hn0ZRNOiV3FqrYlc7i0Uhws0BIy3Shu+7p32aiQiKMuRlss/c8FLy90ehPm+8+1
2bv71do85llWYV/Zk5UWOA==
-----END CERTIFICATE-----
