Certificate:
    Data:
        Version: 3 (0x2)
        Serial Number: 4149 (0x1035)
        Signature Algorithm: sha256WithRSAEncryption
        Issuer: C=FR, ST=IDF, L=Paris, O=Local NODE-OPCUA Certificate Authority, CN=NodeOPCUA-CA
        Validity
            Not Before: Mar 20 02:38:47 2025 GMT
            Not After : Mar 20 02:38:47 2026 GMT
        Subject: C=FR, O=NodeOPCUA, CN=NodeOPCUA
        Subject Public Key Info:
            Public Key Algorithm: rsaEncryption
                Public-Key: (3072 bit)
                Modulus:
                    00:e5:ab:ec:d7:d5:39:8b:4e:9a:85:24:76:b7:c5:
                    11:cb:62:65:91:1d:98:c7:97:89:4a:0b:32:a9:b0:
                    c4:76:02:f4:66:29:e6:b3:70:e3:9e:8e:c5:e5:bb:
                    35:3b:c1:f0:4f:a7:89:3e:76:73:96:57:dc:76:21:
                    e4:b6:44:a0:a5:e7:fa:a5:fd:dd:27:dc:2c:01:6c:
                    6e:fc:8e:9b:d0:40:51:c2:1b:a7:e5:ee:5d:f6:51:
                    71:a0:cc:d2:99:b9:d5:e0:80:b7:50:4c:72:4b:b5:
                    0b:39:15:76:4d:78:a4:ec:13:b8:4f:cd:cc:50:2d:
                    3b:8d:8f:2e:b8:c8:a0:34:9d:67:26:e4:d0:8e:ee:
                    7c:a0:32:b7:31:fd:83:7b:f4:c0:48:c5:43:b4:1c:
                    11:14:73:4b:09:d6:ed:b1:65:c9:33:49:50:8a:0c:
                    ac:a3:a9:55:af:d7:09:40:38:53:f7:70:b5:5d:6e:
                    00:01:a4:8d:44:b2:38:60:22:a9:1f:fa:c1:21:0c:
                    72:8c:4a:cc:1d:97:ee:4c:f2:3a:2c:5c:bf:ad:1c:
                    c8:c3:77:9e:16:85:1e:83:68:43:80:f7:a5:45:9e:
                    e9:36:9b:56:f9:79:26:3d:aa:cb:00:4d:5f:53:d8:
                    3b:84:d9:47:2b:3e:c4:ae:cd:bb:b8:9c:17:c0:ee:
                    7b:ea:7d:17:09:2c:a7:d7:3b:5a:64:15:ea:e4:f5:
                    87:f0:43:d4:94:d5:70:51:46:24:d0:8c:8b:2c:f4:
                    72:4c:cd:03:fc:50:e1:ea:7d:8e:36:8e:4d:b8:de:
                    ba:e1:49:f7:9c:97:f1:de:f2:5e:a4:e1:ac:62:ae:
                    d9:a7:62:a2:63:94:cd:00:bc:14:c1:5e:85:68:45:
                    46:e9:a6:c6:49:c0:19:50:0b:9a:ae:f1:18:4e:81:
                    c2:62:66:a5:cb:23:c9:0e:f6:02:a5:33:4e:b3:a7:
                    5b:90:17:d7:27:50:2a:bf:31:99:93:be:b1:1f:83:
                    37:22:7d:e5:3e:a4:72:e8:84:33
                Exponent: 65537 (0x10001)
        X509v3 extensions:
            X509v3 Basic Constraints: critical
                CA:FALSE
            X509v3 Subject Key Identifier: 
                A3:AD:AD:94:1F:23:97:B5:CB:3A:1F:C7:35:D2:B7:5C:9A:BC:98:D4
            X509v3 Authority Key Identifier: 
                keyid:40:72:30:66:AE:C7:F9:DB:9A:75:1B:99:FB:53:D6:38:EA:0C:F1:8B
                DirName:/C=FR/ST=IDF/L=Paris/O=Local NODE-OPCUA Certificate Authority/CN=NodeOPCUA-CA
                serial:72:89:60:A3:11:EF:A6:B0:54:AF:4D:2C:23:89:FC:3E:F9:84:93:A9
            X509v3 Subject Alternative Name: 
                URI:urn:e99d5466f7bb:NodeOPCUA-DiscoveryServer, DNS:e99d5466f7bb, IP Address:127.0.0.1
            Netscape Comment: 
                OpenSSL Generated Certificate
            X509v3 Key Usage: critical
                Digital Signature, Non Repudiation, Key Encipherment, Data Encipherment, Key Agreement, Certificate Sign
            X509v3 Extended Key Usage: critical
                TLS Web Server Authentication, TLS Web Client Authentication
    Signature Algorithm: sha256WithRSAEncryption
    Signature Value:
        08:98:cc:67:fc:70:30:56:5d:0b:b4:78:4c:ad:78:a5:92:0e:
        aa:54:7e:d5:a8:1d:14:5d:2c:2a:dd:46:90:d4:c6:65:2c:27:
        ec:e2:30:09:37:8d:b4:78:84:99:3b:f0:5b:84:f5:43:6f:9d:
        a4:29:f6:e2:56:cf:33:08:9f:a8:1e:2a:29:78:07:a6:f1:c2:
        60:df:9f:34:30:a9:77:93:ed:cf:11:2f:62:b5:5c:8a:68:03:
        34:e2:13:01:cf:a4:0e:cb:e2:85:f1:0d:90:b9:9a:e3:03:27:
        fe:7c:d5:4c:32:7c:0f:96:76:a9:d8:72:bf:64:9f:0a:8e:52:
        3f:39:33:76:8a:f9:11:fc:e6:13:09:4c:72:86:1a:a2:6a:2a:
        24:2a:14:61:12:fa:2f:4a:ba:69:e9:70:ba:1a:dc:bf:a5:0d:
        6b:d4:c1:ea:4a:a5:5e:18:d4:3f:d1:2a:21:e9:bf:67:89:6c:
        4a:96:8c:1c:43:2c:df:c3:44:c7:c5:c3:28:90:05:32:04:e2:
        2b:79:6d:6f:9f:14:10:06:80:f2:d7:90:85:de:b2:84:7f:92:
        7b:97:32:e0:29:08:a3:a9:10:f1:f5:50:15:44:3f:6f:e8:23:
        2a:3c:72:44:53:45:10:b0:6f:ac:10:53:88:fc:0a:bd:fc:4e:
        bc:d9:c9:64
-----BEGIN CERTIFICATE-----
MIIFNTCCBB2gAwIBAgICEDUwDQYJKoZIhvcNAQELBQAwczELMAkGA1UEBhMCRlIx
DDAKBgNVBAgTA0lERjEOMAwGA1UEBxMFUGFyaXMxLzAtBgNVBAoTJkxvY2FsIE5P
REUtT1BDVUEgQ2VydGlmaWNhdGUgQXV0aG9yaXR5MRUwEwYDVQQDEwxOb2RlT1BD
VUEtQ0EwHhcNMjUwMzIwMDIzODQ3WhcNMjYwMzIwMDIzODQ3WjA1MQswCQYDVQQG
EwJGUjESMBAGA1UECgwJTm9kZU9QQ1VBMRIwEAYDVQQDDAlOb2RlT1BDVUEwggGi
MA0GCSqGSIb3DQEBAQUAA4IBjwAwggGKAoIBgQDlq+zX1TmLTpqFJHa3xRHLYmWR
HZjHl4lKCzKpsMR2AvRmKeazcOOejsXluzU7wfBPp4k+dnOWV9x2IeS2RKCl5/ql
/d0n3CwBbG78jpvQQFHCG6fl7l32UXGgzNKZudXggLdQTHJLtQs5FXZNeKTsE7hP
zcxQLTuNjy64yKA0nWcm5NCO7nygMrcx/YN79MBIxUO0HBEUc0sJ1u2xZckzSVCK
DKyjqVWv1wlAOFP3cLVdbgABpI1EsjhgIqkf+sEhDHKMSswdl+5M8josXL+tHMjD
d54WhR6DaEOA96VFnuk2m1b5eSY9qssATV9T2DuE2UcrPsSuzbu4nBfA7nvqfRcJ
LKfXO1pkFerk9YfwQ9SU1XBRRiTQjIss9HJMzQP8UOHqfY42jk243rrhSfecl/He
8l6k4axirtmnYqJjlM0AvBTBXoVoRUbppsZJwBlQC5qu8RhOgcJiZqXLI8kO9gKl
M06zp1uQF9cnUCq/MZmTvrEfgzcifeU+pHLohDMCAwEAAaOCAY8wggGLMAwGA1Ud
EwEB/wQCMAAwHQYDVR0OBBYEFKOtrZQfI5e1yzofxzXSt1yavJjUMIGwBgNVHSME
gagwgaWAFEByMGaux/nbmnUbmftT1jjqDPGLoXekdTBzMQswCQYDVQQGEwJGUjEM
MAoGA1UECBMDSURGMQ4wDAYDVQQHEwVQYXJpczEvMC0GA1UEChMmTG9jYWwgTk9E
RS1PUENVQSBDZXJ0aWZpY2F0ZSBBdXRob3JpdHkxFTATBgNVBAMTDE5vZGVPUENV
QS1DQYIUcolgoxHvprBUr00sI4n8PvmEk6kwSQYDVR0RBEIwQIYqdXJuOmU5OWQ1
NDY2ZjdiYjpOb2RlT1BDVUEtRGlzY292ZXJ5U2VydmVyggxlOTlkNTQ2NmY3YmKH
BH8AAAEwLAYJYIZIAYb4QgENBB8WHU9wZW5TU0wgR2VuZXJhdGVkIENlcnRpZmlj
YXRlMA4GA1UdDwEB/wQEAwIC/DAgBgNVHSUBAf8EFjAUBggrBgEFBQcDAQYIKwYB
BQUHAwIwDQYJKoZIhvcNAQELBQADggEBAAiYzGf8cDBWXQu0eEyteKWSDqpUftWo
HRRdLCrdRpDUxmUsJ+ziMAk3jbR4hJk78FuE9UNvnaQp9uJWzzMIn6geKil4B6bx
wmDfnzQwqXeT7c8RL2K1XIpoAzTiEwHPpA7L4oXxDZC5muMDJ/581UwyfA+WdqnY
cr9knwqOUj85M3aK+RH85hMJTHKGGqJqKiQqFGES+i9KumnpcLoa3L+lDWvUwepK
pV4Y1D/RKiHpv2eJbEqWjBxDLN/DRMfFwyiQBTIE4it5bW+fFBAGgPLXkIXesoR/
knuXMuApCKOpEPH1UBVEP2/oIyo8ckRTRRCwb6wQU4j8Cr38TrzZyWQ=
-----END CERTIFICATE-----
