Certificate:
    Data:
        Version: 3 (0x2)
        Serial Number: 4151 (0x1037)
        Signature Algorithm: sha256WithRSAEncryption
        Issuer: C=FR, ST=IDF, L=Paris, O=Local NODE-OPCUA Certificate Authority, CN=NodeOPCUA-CA
        Validity
            Not Before: Mar 19 02:38:47 2024 GMT
            Not After : Mar 19 02:38:47 2025 GMT
        Subject: C=FR, O=NodeOPCUA, CN=NodeOPCUA
        Subject Public Key Info:
            Public Key Algorithm: rsaEncryption
                Public-Key: (4096 bit)
                Modulus:
                    00:b3:2b:76:07:ac:0f:02:fc:8a:28:a4:38:25:eb:
                    c9:64:f8:0e:32:16:e8:c2:e8:91:52:de:e2:e8:45:
                    ee:8f:b4:05:3a:19:d4:9b:19:c2:ea:bb:24:b1:8a:
                    8c:d9:5f:aa:57:a7:cb:ee:b0:31:83:b0:02:13:26:
                    6e:39:38:44:7f:17:a3:7c:9d:35:0b:c4:85:02:da:
                    5f:5f:93:f9:75:c9:72:33:e1:60:87:65:94:15:09:
                    10:f0:ad:4a:c1:3b:8d:05:06:13:46:5f:ca:c5:cf:
                    ce:1e:ac:d9:1d:2a:d6:20:e6:20:10:ce:56:e7:d5:
                    01:8f:b6:c0:ba:28:fc:13:31:bf:ae:90:11:8c:cf:
                    9c:c6:8a:e6:02:cc:10:00:f7:58:ef:98:2f:5d:8f:
                    52:91:f0:8c:1c:67:ad:2f:08:a9:18:ad:94:11:e9:
                    1e:8e:b3:4f:55:6c:c5:c3:4d:37:ca:bd:83:2a:c8:
                    f5:d0:3b:15:a7:f7:00:e5:43:ea:f7:7b:db:89:6e:
                    04:2b:76:f8:b1:2e:f0:06:32:48:59:9e:11:24:47:
                    1d:f6:a2:42:c8:62:13:32:3a:d0:b7:af:c4:80:00:
                    15:9c:f5:c7:ac:49:29:f2:bb:88:12:ca:c1:69:6e:
                    ca:ff:f1:cd:84:71:00:89:49:ca:ca:16:38:22:45:
                    2f:48:4d:81:24:29:7e:e1:86:02:2f:af:b8:87:9e:
                    e8:01:b8:e3:6e:87:dd:e2:bb:4b:1c:61:81:1a:e1:
                    3f:f7:e9:4e:20:a6:21:c0:b2:42:26:32:e6:3e:5d:
                    ff:5f:ce:ba:b7:9f:31:0c:3b:5b:ad:69:fb:9f:b7:
                    c2:57:84:48:7b:89:08:ba:72:79:4a:fc:23:bf:fd:
                    78:8b:14:4f:4b:0a:98:d1:3a:ca:9a:d3:68:fe:2d:
                    79:0b:63:bd:91:2d:65:3c:e5:68:4f:9e:cf:fd:4a:
                    2c:6d:ca:14:55:a8:6f:f9:ab:37:1f:8f:5c:e4:07:
                    15:bb:e8:7c:3d:2b:56:bc:b5:d3:49:5f:d5:67:93:
                    60:3c:9c:7e:a1:74:f9:c2:57:34:43:bd:c1:f8:7c:
                    31:8a:a3:76:14:71:d0:94:5d:dc:4a:86:68:b4:aa:
                    bd:89:fb:e6:6d:27:1b:b4:b5:70:97:b3:d6:9a:c9:
                    a7:78:23:f7:17:4e:9c:19:6f:cd:00:5a:b7:77:5c:
                    c0:8d:a9:b2:f4:64:d1:3c:2a:cd:fb:1b:a8:f7:4f:
                    68:d0:f6:00:36:95:bb:c2:8f:a3:8a:18:a5:17:86:
                    c0:8d:b5:a6:42:2f:b8:f2:ee:82:bc:e0:b7:73:3d:
                    25:14:1f:78:07:ba:21:1f:79:bb:81:25:5d:28:13:
                    91:1c:ff
                Exponent: 65537 (0x10001)
        X509v3 extensions:
            X509v3 Basic Constraints: critical
                CA:FALSE
            X509v3 Subject Key Identifier: 
                07:9A:3B:DA:62:FB:0B:B8:A5:50:A4:BA:07:A7:03:D3:A7:07:27:A5
            X509v3 Authority Key Identifier: 
                keyid:40:72:30:66:AE:C7:F9:DB:9A:75:1B:99:FB:53:D6:38:EA:0C:F1:8B
                DirName:/C=FR/ST=IDF/L=Paris/O=Local NODE-OPCUA Certificate Authority/CN=NodeOPCUA-CA
                serial:72:89:60:A3:11:EF:A6:B0:54:AF:4D:2C:23:89:FC:3E:F9:84:93:A9
            X509v3 Subject Alternative Name: 
                URI:urn:e99d5466f7bb:NodeOPCUA-DiscoveryServer, DNS:e99d5466f7bb, IP Address:127.0.0.1
            Netscape Comment: 
                OpenSSL Generated Certificate
            X509v3 Key Usage: critical
                Digital Signature, Non Repudiation, Key Encipherment, Data Encipherment, Key Agreement, Certificate Sign
            X509v3 Extended Key Usage: critical
                TLS Web Server Authentication, TLS Web Client Authentication
    Signature Algorithm: sha256WithRSAEncryption
    Signature Value:
        53:95:89:d0:ef:4c:45:e3:b0:1e:9e:46:59:59:b6:87:96:65:
        cd:2d:5c:49:52:91:b2:e3:8c:33:7e:2f:75:26:92:43:f4:98:
        cf:fc:2b:1e:61:86:70:b0:2d:b4:db:83:ce:99:b0:d4:18:0e:
        7b:cb:ee:41:c3:b6:46:3c:f3:63:13:28:69:6f:27:13:6d:be:
        7b:37:40:45:e1:71:d6:dd:46:4d:57:a8:6a:9e:b5:a8:d2:a3:
        97:c4:2b:da:95:83:35:80:4e:af:4f:77:f3:1b:7d:bd:4f:5b:
        f0:42:49:75:2b:f3:8c:37:07:db:7d:5f:26:5f:f5:6b:53:df:
        00:a0:a7:7d:7b:10:86:dc:eb:3d:bd:07:b2:95:1a:05:6f:5a:
        e6:bc:67:92:4c:b2:a6:4b:f3:91:6f:49:a6:28:65:cf:ba:3c:
        98:5a:76:d7:d0:77:7c:2d:67:ba:a0:30:d3:60:1d:d2:96:a2:
        7f:f3:81:47:8d:44:30:59:56:ba:25:10:dc:cb:cf:d0:0b:0f:
        36:4d:b0:e4:9c:94:7c:fb:22:05:8d:38:d5:43:1f:cf:ee:92:
        11:72:df:69:c7:0c:47:9c:01:3c:0a:2a:f5:b8:47:76:31:70:
        31:aa:12:9a:7b:69:74:96:1c:b1:fe:fe:4a:9d:3f:c4:d0:ca:
        ef:9d:00:80
-----BEGIN CERTIFICATE-----
MIIFtTCCBJ2gAwIBAgICEDcwDQYJKoZIhvcNAQELBQAwczELMAkGA1UEBhMCRlIx
DDAKBgNVBAgTA0lERjEOMAwGA1UEBxMFUGFyaXMxLzAtBgNVBAoTJkxvY2FsIE5P
REUtT1BDVUEgQ2VydGlmaWNhdGUgQXV0aG9yaXR5MRUwEwYDVQQDEwxOb2RlT1BD
VUEtQ0EwHhcNMjQwMzE5MDIzODQ3WhcNMjUwMzE5MDIzODQ3WjA1MQswCQYDVQQG
EwJGUjESMBAGA1UECgwJTm9kZU9QQ1VBMRIwEAYDVQQDDAlOb2RlT1BDVUEwggIi
MA0GCSqGSIb3DQEBAQUAA4ICDwAwggIKAoICAQCzK3YHrA8C/IoopDgl68lk+A4y
FujC6JFS3uLoRe6PtAU6GdSbGcLquySxiozZX6pXp8vusDGDsAITJm45OER/F6N8
nTULxIUC2l9fk/l1yXIz4WCHZZQVCRDwrUrBO40FBhNGX8rFz84erNkdKtYg5iAQ
zlbn1QGPtsC6KPwTMb+ukBGMz5zGiuYCzBAA91jvmC9dj1KR8IwcZ60vCKkYrZQR
6R6Os09VbMXDTTfKvYMqyPXQOxWn9wDlQ+r3e9uJbgQrdvixLvAGMkhZnhEkRx32
okLIYhMyOtC3r8SAABWc9cesSSnyu4gSysFpbsr/8c2EcQCJScrKFjgiRS9ITYEk
KX7hhgIvr7iHnugBuONuh93iu0scYYEa4T/36U4gpiHAskImMuY+Xf9fzrq3nzEM
O1utafuft8JXhEh7iQi6cnlK/CO//XiLFE9LCpjROsqa02j+LXkLY72RLWU85WhP
ns/9SixtyhRVqG/5qzcfj1zkBxW76Hw9K1a8tdNJX9Vnk2A8nH6hdPnCVzRDvcH4
fDGKo3YUcdCUXdxKhmi0qr2J++ZtJxu0tXCXs9aayad4I/cXTpwZb80AWrd3XMCN
qbL0ZNE8Ks37G6j3T2jQ9gA2lbvCj6OKGKUXhsCNtaZCL7jy7oK84LdzPSUUH3gH
uiEfebuBJV0oE5Ec/wIDAQABo4IBjzCCAYswDAYDVR0TAQH/BAIwADAdBgNVHQ4E
FgQUB5o72mL7C7ilUKS6B6cD06cHJ6UwgbAGA1UdIwSBqDCBpYAUQHIwZq7H+dua
dRuZ+1PWOOoM8Yuhd6R1MHMxCzAJBgNVBAYTAkZSMQwwCgYDVQQIEwNJREYxDjAM
BgNVBAcTBVBhcmlzMS8wLQYDVQQKEyZMb2NhbCBOT0RFLU9QQ1VBIENlcnRpZmlj
YXRlIEF1dGhvcml0eTEVMBMGA1UEAxMMTm9kZU9QQ1VBLUNBghRyiWCjEe+msFSv
TSwjifw++YSTqTBJBgNVHREEQjBAhip1cm46ZTk5ZDU0NjZmN2JiOk5vZGVPUENV
QS1EaXNjb3ZlcnlTZXJ2ZXKCDGU5OWQ1NDY2ZjdiYocEfwAAATAsBglghkgBhvhC
AQ0EHxYdT3BlblNTTCBHZW5lcmF0ZWQgQ2VydGlmaWNhdGUwDgYDVR0PAQH/BAQD
AgL8MCAGA1UdJQEB/wQWMBQGCCsGAQUFBwMBBggrBgEFBQcDAjANBgkqhkiG9w0B
AQsFAAOCAQEAU5WJ0O9MReOwHp5GWVm2h5ZlzS1cSVKRsuOMM34vdSaSQ/SYz/wr
HmGGcLAttNuDzpmw1BgOe8vuQcO2RjzzYxMoaW8nE22+ezdAReFx1t1GTVeoap61
qNKjl8Qr2pWDNYBOr0938xt9vU9b8EJJdSvzjDcH231fJl/1a1PfAKCnfXsQhtzr
Pb0HspUaBW9a5rxnkkyypkvzkW9Jpihlz7o8mFp219B3fC1nuqAw02Ad0paif/OB
R41EMFlWuiUQ3MvP0AsPNk2w5JyUfPsiBY041UMfz+6SEXLfaccMR5wBPAoq9bhH
djFwMaoSmntpdJYcsf7+Sp0/xNDK750AgA==
-----END CERTIFICATE-----
