Certificate:
    Data:
        Version: 3 (0x2)
        Serial Number: 4152 (0x1038)
        Signature Algorithm: sha256WithRSAEncryption
        Issuer: O=NodeOPCUA, CN=NodeOPCUA
        Validity
            Not Before: Mar 19 02:38:47 2024 GMT
            Not After : Mar 19 02:38:47 2025 GMT
        Subject: O=NodeOPCUA, CN=NodeOPCUA
        Subject Public Key Info:
            Public Key Algorithm: rsaEncryption
                Public-Key: (4096 bit)
                Modulus:
                    00:b3:2b:76:07:ac:0f:02:fc:8a:28:a4:38:25:eb:
                    c9:64:f8:0e:32:16:e8:c2:e8:91:52:de:e2:e8:45:
                    ee:8f:b4:05:3a:19:d4:9b:19:c2:ea:bb:24:b1:8a:
                    8c:d9:5f:aa:57:a7:cb:ee:b0:31:83:b0:02:13:26:
                    6e:39:38:44:7f:17:a3:7c:9d:35:0b:c4:85:02:da:
                    5f:5f:93:f9:75:c9:72:33:e1:60:87:65:94:15:09:
                    10:f0:ad:4a:c1:3b:8d:05:06:13:46:5f:ca:c5:cf:
                    ce:1e:ac:d9:1d:2a:d6:20:e6:20:10:ce:56:e7:d5:
                    01:8f:b6:c0:ba:28:fc:13:31:bf:ae:90:11:8c:cf:
                    9c:c6:8a:e6:02:cc:10:00:f7:58:ef:98:2f:5d:8f:
                    52:91:f0:8c:1c:67:ad:2f:08:a9:18:ad:94:11:e9:
                    1e:8e:b3:4f:55:6c:c5:c3:4d:37:ca:bd:83:2a:c8:
                    f5:d0:3b:15:a7:f7:00:e5:43:ea:f7:7b:db:89:6e:
                    04:2b:76:f8:b1:2e:f0:06:32:48:59:9e:11:24:47:
                    1d:f6:a2:42:c8:62:13:32:3a:d0:b7:af:c4:80:00:
                    15:9c:f5:c7:ac:49:29:f2:bb:88:12:ca:c1:69:6e:
                    ca:ff:f1:cd:84:71:00:89:49:ca:ca:16:38:22:45:
                    2f:48:4d:81:24:29:7e:e1:86:02:2f:af:b8:87:9e:
                    e8:01:b8:e3:6e:87:dd:e2:bb:4b:1c:61:81:1a:e1:
                    3f:f7:e9:4e:20:a6:21:c0:b2:42:26:32:e6:3e:5d:
                    ff:5f:ce:ba:b7:9f:31:0c:3b:5b:ad:69:fb:9f:b7:
                    c2:57:84:48:7b:89:08:ba:72:79:4a:fc:23:bf:fd:
                    78:8b:14:4f:4b:0a:98:d1:3a:ca:9a:d3:68:fe:2d:
                    79:0b:63:bd:91:2d:65:3c:e5:68:4f:9e:cf:fd:4a:
                    2c:6d:ca:14:55:a8:6f:f9:ab:37:1f:8f:5c:e4:07:
                    15:bb:e8:7c:3d:2b:56:bc:b5:d3:49:5f:d5:67:93:
                    60:3c:9c:7e:a1:74:f9:c2:57:34:43:bd:c1:f8:7c:
                    31:8a:a3:76:14:71:d0:94:5d:dc:4a:86:68:b4:aa:
                    bd:89:fb:e6:6d:27:1b:b4:b5:70:97:b3:d6:9a:c9:
                    a7:78:23:f7:17:4e:9c:19:6f:cd:00:5a:b7:77:5c:
                    c0:8d:a9:b2:f4:64:d1:3c:2a:cd:fb:1b:a8:f7:4f:
                    68:d0:f6:00:36:95:bb:c2:8f:a3:8a:18:a5:17:86:
                    c0:8d:b5:a6:42:2f:b8:f2:ee:82:bc:e0:b7:73:3d:
                    25:14:1f:78:07:ba:21:1f:79:bb:81:25:5d:28:13:
                    91:1c:ff
                Exponent: 65537 (0x10001)
        X509v3 extensions:
            X509v3 Basic Constraints: critical
                CA:FALSE
            X509v3 Subject Key Identifier: 
                07:9A:3B:DA:62:FB:0B:B8:A5:50:A4:BA:07:A7:03:D3:A7:07:27:A5
            X509v3 Authority Key Identifier: 
                DirName:/O=NodeOPCUA/CN=NodeOPCUA
                serial:10:38
            X509v3 Subject Alternative Name: 
                URI:urn:e99d5466f7bb:NodeOPCUA-DiscoveryServer, DNS:e99d5466f7bb
            Netscape Comment: 
                OpenSSL Generated Certificate
            X509v3 Key Usage: critical
                Digital Signature, Non Repudiation, Key Encipherment, Data Encipherment, Key Agreement, Certificate Sign
            X509v3 Extended Key Usage: critical
                TLS Web Server Authentication, TLS Web Client Authentication
    Signature Algorithm: sha256WithRSAEncryption
    Signature Value:
        ae:01:84:c5:e6:f0:79:01:c8:4c:66:fa:c5:81:8a:4d:7b:7a:
        b2:26:09:75:b4:77:05:43:9d:98:6a:12:4b:4e:db:fa:9b:60:
        55:1f:28:72:64:ac:42:89:4f:9f:22:38:f0:f1:97:df:87:26:
        04:c8:4a:e9:48:d5:6b:8d:14:b5:48:62:21:7c:86:14:5f:22:
        5a:ce:55:2d:84:ad:e0:6b:5a:3d:ed:8c:72:8e:ba:71:26:6b:
        9d:72:e9:78:9d:e8:79:aa:63:e0:e5:ae:b4:4f:3a:69:72:fa:
        6f:bd:f2:99:be:11:b8:b7:eb:d7:d2:67:ad:33:ad:18:cf:91:
        e5:a9:2e:b9:6d:f7:0e:9e:03:68:02:00:82:09:15:c2:a2:16:
        62:0f:20:29:50:9f:ba:ca:39:33:17:fc:2f:3f:96:9c:5a:56:
        52:83:fc:43:34:92:f6:73:66:7b:43:f0:08:b3:d3:99:b8:ed:
        8f:41:ec:e3:ab:14:f3:de:12:d0:67:92:a5:6d:65:38:88:a9:
        ce:89:46:7a:84:98:de:98:88:0e:1b:82:b5:25:8c:c4:59:19:
        44:08:a0:3b:6a:b9:06:cc:b0:1f:ae:56:d3:d0:32:e1:d6:3b:
        13:41:e8:d4:27:b3:17:fd:50:37:46:f1:46:04:11:6d:65:76:
        a6:7c:17:1b:6b:22:7b:76:96:58:c7:d2:6e:75:56:bc:61:e2:
        72:08:04:ce:7c:77:ef:06:94:82:b2:9e:49:14:74:7b:2f:12:
        d1:9d:f7:60:c6:42:57:91:5d:0f:ce:01:a5:8c:75:8f:bf:72:
        6e:da:cf:9c:dd:7a:e3:4f:a0:1f:0f:10:f8:27:d0:74:dd:f2:
        d6:ea:c5:51:66:f1:6c:3a:97:b2:45:dc:fd:e5:c7:bc:66:7c:
        38:8c:00:26:06:6e:65:0e:e2:a5:45:20:5e:12:8b:3d:c5:67:
        cc:b4:d5:9c:8d:72:ec:a6:0f:76:41:55:f2:ec:fe:9e:fe:b9:
        9b:7c:ca:1e:09:08:86:72:16:08:8f:41:5f:7d:2b:47:d8:16:
        e2:e5:a2:32:aa:a6:79:ef:22:f5:ed:26:cb:bb:22:37:d2:b2:
        b8:a8:c1:59:8c:00:54:d6:1a:3b:e5:4c:53:05:a3:02:54:6e:
        d3:06:19:39:5b:f4:78:8a:3b:d4:49:07:c3:92:c5:f6:a2:ef:
        76:74:74:e9:d8:5e:2d:db:22:1b:ad:29:c8:ba:ee:60:f5:f2:
        60:25:f3:b0:c7:0b:fb:3e:b1:fd:98:02:96:54:9a:b0:d3:5e:
        34:f5:38:6c:8a:0a:cd:da:81:82:b3:6e:1f:0c:4e:1c:80:38:
        52:a5:96:7d:d3:f5:ea:01
-----BEGIN CERTIFICATE-----
MIIF4TCCA8mgAwIBAgICEDgwDQYJKoZIhvcNAQELBQAwKDESMBAGA1UEChMJTm9k
ZU9QQ1VBMRIwEAYDVQQDEwlOb2RlT1BDVUEwHhcNMjQwMzE5MDIzODQ3WhcNMjUw
MzE5MDIzODQ3WjAoMRIwEAYDVQQKEwlOb2RlT1BDVUExEjAQBgNVBAMTCU5vZGVP
UENVQTCCAiIwDQYJKoZIhvcNAQEBBQADggIPADCCAgoCggIBALMrdgesDwL8iiik
OCXryWT4DjIW6MLokVLe4uhF7o+0BToZ1JsZwuq7JLGKjNlfqleny+6wMYOwAhMm
bjk4RH8Xo3ydNQvEhQLaX1+T+XXJcjPhYIdllBUJEPCtSsE7jQUGE0ZfysXPzh6s
2R0q1iDmIBDOVufVAY+2wLoo/BMxv66QEYzPnMaK5gLMEAD3WO+YL12PUpHwjBxn
rS8IqRitlBHpHo6zT1VsxcNNN8q9gyrI9dA7Faf3AOVD6vd724luBCt2+LEu8AYy
SFmeESRHHfaiQshiEzI60LevxIAAFZz1x6xJKfK7iBLKwWluyv/xzYRxAIlJysoW
OCJFL0hNgSQpfuGGAi+vuIee6AG4426H3eK7SxxhgRrhP/fpTiCmIcCyQiYy5j5d
/1/OurefMQw7W61p+5+3wleESHuJCLpyeUr8I7/9eIsUT0sKmNE6yprTaP4teQtj
vZEtZTzlaE+ez/1KLG3KFFWob/mrNx+PXOQHFbvofD0rVry100lf1WeTYDycfqF0
+cJXNEO9wfh8MYqjdhRx0JRd3EqGaLSqvYn75m0nG7S1cJez1prJp3gj9xdOnBlv
zQBat3dcwI2psvRk0TwqzfsbqPdPaND2ADaVu8KPo4oYpReGwI21pkIvuPLugrzg
t3M9JRQfeAe6IR95u4ElXSgTkRz/AgMBAAGjggETMIIBDzAMBgNVHRMBAf8EAjAA
MB0GA1UdDgQWBBQHmjvaYvsLuKVQpLoHpwPTpwcnpTA7BgNVHSMENDAyoSykKjAo
MRIwEAYDVQQKEwlOb2RlT1BDVUExEjAQBgNVBAMTCU5vZGVPUENVQYICEDgwQwYD
VR0RBDwwOoYqdXJuOmU5OWQ1NDY2ZjdiYjpOb2RlT1BDVUEtRGlzY292ZXJ5U2Vy
dmVyggxlOTlkNTQ2NmY3YmIwLAYJYIZIAYb4QgENBB8WHU9wZW5TU0wgR2VuZXJh
dGVkIENlcnRpZmljYXRlMA4GA1UdDwEB/wQEAwIC/DAgBgNVHSUBAf8EFjAUBggr
BgEFBQcDAQYIKwYBBQUHAwIwDQYJKoZIhvcNAQELBQADggIBAK4BhMXm8HkByExm
+sWBik17erImCXW0dwVDnZhqEktO2/qbYFUfKHJkrEKJT58iOPDxl9+HJgTISulI
1WuNFLVIYiF8hhRfIlrOVS2EreBrWj3tjHKOunEma51y6Xid6HmqY+DlrrRPOmly
+m+98pm+Ebi369fSZ60zrRjPkeWpLrlt9w6eA2gCAIIJFcKiFmIPIClQn7rKOTMX
/C8/lpxaVlKD/EM0kvZzZntD8Aiz05m47Y9B7OOrFPPeEtBnkqVtZTiIqc6JRnqE
mN6YiA4bgrUljMRZGUQIoDtquQbMsB+uVtPQMuHWOxNB6NQnsxf9UDdG8UYEEW1l
dqZ8FxtrInt2lljH0m51Vrxh4nIIBM58d+8GlIKynkkUdHsvEtGd92DGQleRXQ/O
AaWMdY+/cm7az5zdeuNPoB8PEPgn0HTd8tbqxVFm8Ww6l7JF3P3lx7xmfDiMACYG
bmUO4qVFIF4Siz3FZ8y01ZyNcuymD3ZBVfLs/p7+uZt8yh4JCIZyFgiPQV99K0fY
FuLlojKqpnnvIvXtJsu7IjfSsriowVmMAFTWGjvlTFMFowJUbtMGGTlb9HiKO9RJ
B8OSxfai73Z0dOnYXi3bIhutKci67mD18mAl87DHC/s+sf2YApZUmrDTXjT1OGyK
Cs3agYKzbh8MThyAOFKlln3T9eoB
-----END CERTIFICATE-----
