Certificate:
    Data:
        Version: 3 (0x2)
        Serial Number: 4153 (0x1039)
        Signature Algorithm: sha256WithRSAEncryption
        Issuer: C=FR, ST=IDF, L=Paris, O=Local NODE-OPCUA Certificate Authority, CN=NodeOPCUA-CA
        Validity
            Not Before: Mar 21 02:38:47 2022 GMT
            Not After : Mar 21 02:38:47 2023 GMT
        Subject: C=FR, O=NodeOPCUA, CN=NodeOPCUA
        Subject Public Key Info:
            Public Key Algorithm: rsaEncryption
                Public-Key: (4096 bit)
                Modulus:
                    00:b3:2b:76:07:ac:0f:02:fc:8a:28:a4:38:25:eb:
                    c9:64:f8:0e:32:16:e8:c2:e8:91:52:de:e2:e8:45:
                    ee:8f:b4:05:3a:19:d4:9b:19:c2:ea:bb:24:b1:8a:
                    8c:d9:5f:aa:57:a7:cb:ee:b0:31:83:b0:02:13:26:
                    6e:39:38:44:7f:17:a3:7c:9d:35:0b:c4:85:02:da:
                    5f:5f:93:f9:75:c9:72:33:e1:60:87:65:94:15:09:
                    10:f0:ad:4a:c1:3b:8d:05:06:13:46:5f:ca:c5:cf:
                    ce:1e:ac:d9:1d:2a:d6:20:e6:20:10:ce:56:e7:d5:
                    01:8f:b6:c0:ba:28:fc:13:31:bf:ae:90:11:8c:cf:
                    9c:c6:8a:e6:02:cc:10:00:f7:58:ef:98:2f:5d:8f:
                    52:91:f0:8c:1c:67:ad:2f:08:a9:18:ad:94:11:e9:
                    1e:8e:b3:4f:55:6c:c5:c3:4d:37:ca:bd:83:2a:c8:
                    f5:d0:3b:15:a7:f7:00:e5:43:ea:f7:7b:db:89:6e:
                    04:2b:76:f8:b1:2e:f0:06:32:48:59:9e:11:24:47:
                    1d:f6:a2:42:c8:62:13:32:3a:d0:b7:af:c4:80:00:
                    15:9c:f5:c7:ac:49:29:f2:bb:88:12:ca:c1:69:6e:
                    ca:ff:f1:cd:84:71:00:89:49:ca:ca:16:38:22:45:
                    2f:48:4d:81:24:29:7e:e1:86:02:2f:af:b8:87:9e:
                    e8:01:b8:e3:6e:87:dd:e2:bb:4b:1c:61:81:1a:e1:
                    3f:f7:e9:4e:20:a6:21:c0:b2:42:26:32:e6:3e:5d:
                    ff:5f:ce:ba:b7:9f:31:0c:3b:5b:ad:69:fb:9f:b7:
                    c2:57:84:48:7b:89:08:ba:72:79:4a:fc:23:bf:fd:
                    78:8b:14:4f:4b:0a:98:d1:3a:ca:9a:d3:68:fe:2d:
                    79:0b:63:bd:91:2d:65:3c:e5:68:4f:9e:cf:fd:4a:
                    2c:6d:ca:14:55:a8:6f:f9:ab:37:1f:8f:5c:e4:07:
                    15:bb:e8:7c:3d:2b:56:bc:b5:d3:49:5f:d5:67:93:
                    60:3c:9c:7e:a1:74:f9:c2:57:34:43:bd:c1:f8:7c:
                    31:8a:a3:76:14:71:d0:94:5d:dc:4a:86:68:b4:aa:
                    bd:89:fb:e6:6d:27:1b:b4:b5:70:97:b3:d6:9a:c9:
                    a7:78:23:f7:17:4e:9c:19:6f:cd:00:5a:b7:77:5c:
                    c0:8d:a9:b2:f4:64:d1:3c:2a:cd:fb:1b:a8:f7:4f:
                    68:d0:f6:00:36:95:bb:c2:8f:a3:8a:18:a5:17:86:
                    c0:8d:b5:a6:42:2f:b8:f2:ee:82:bc:e0:b7:73:3d:
                    25:14:1f:78:07:ba:21:1f:79:bb:81:25:5d:28:13:
                    91:1c:ff
                Exponent: 65537 (0x10001)
        X509v3 extensions:
            X509v3 Basic Constraints: critical
                CA:FALSE
            X509v3 Subject Key Identifier: 
                07:9A:3B:DA:62:FB:0B:B8:A5:50:A4:BA:07:A7:03:D3:A7:07:27:A5
            X509v3 Authority Key Identifier: 
                keyid:40:72:30:66:AE:C7:F9:DB:9A:75:1B:99:FB:53:D6:38:EA:0C:F1:8B
                DirName:/C=FR/ST=IDF/L=Paris/O=Local NODE-OPCUA Certificate Authority/CN=NodeOPCUA-CA
                serial:72:89:60:A3:11:EF:A6:B0:54:AF:4D:2C:23:89:FC:3E:F9:84:93:A9
            X509v3 Subject Alternative Name: 
                URI:urn:e99d5466f7bb:NodeOPCUA-DiscoveryServer, DNS:e99d5466f7bb, IP Address:127.0.0.1
            Netscape Comment: 
                OpenSSL Generated Certificate
            X509v3 Key Usage: critical
                Digital Signature, Non Repudiation, Key Encipherment, Data Encipherment, Key Agreement, Certificate Sign
            X509v3 Extended Key Usage: critical
                TLS Web Server Authentication, TLS Web Client Authentication
    Signature Algorithm: sha256WithRSAEncryption
    Signature Value:
        2c:e8:59:6f:79:67:ee:ab:83:f4:3d:44:e5:cf:af:99:84:95:
        2f:64:86:0d:84:a8:6b:3e:f0:b3:eb:f5:0e:16:7b:04:70:43:
        87:a3:ed:db:0e:19:2b:47:7d:6b:74:27:c3:fc:3c:68:1a:12:
        b5:10:58:08:e8:ee:8a:46:66:81:4d:ec:37:b1:f5:1c:ab:1b:
        88:fd:cc:18:1f:a3:3c:71:f6:50:c4:d8:9d:38:a2:df:9e:81:
        39:3d:e0:f7:a3:d9:f4:5e:41:8c:a3:8d:70:80:bc:e3:5e:e6:
        1e:3f:51:8f:93:82:00:8c:aa:ed:da:4d:f2:b9:95:7d:b4:29:
        b5:76:f2:14:a7:7f:33:76:24:67:8e:90:3e:e2:c4:8a:3e:e1:
        db:bf:d2:9f:e1:ed:65:1f:09:ce:2c:5d:5c:06:07:ed:9c:8c:
        34:50:8c:f3:ce:41:cc:4a:2d:43:c9:57:2c:6a:39:8b:e1:f8:
        04:6c:a1:56:9e:0c:22:03:84:9b:65:b7:8e:6c:c0:6e:43:85:
        86:5a:8b:e4:a6:58:cf:a4:46:35:b3:f3:f4:31:e9:a9:ac:9c:
        cb:23:ad:87:1c:af:b2:44:ec:42:e1:ab:e0:f2:6d:fe:2f:c4:
        30:7b:df:21:bf:dd:84:4f:cc:6f:71:8f:fe:35:e1:f9:0f:f7:
        e0:fb:fd:be
-----BEGIN CERTIFICATE-----
MIIFtTCCBJ2gAwIBAgICEDkwDQYJKoZIhvcNAQELBQAwczELMAkGA1UEBhMCRlIx
DDAKBgNVBAgTA0lERjEOMAwGA1UEBxMFUGFyaXMxLzAtBgNVBAoTJkxvY2FsIE5P
REUtT1BDVUEgQ2VydGlmaWNhdGUgQXV0aG9yaXR5MRUwEwYDVQQDEwxOb2RlT1BD
VUEtQ0EwHhcNMjIwMzIxMDIzODQ3WhcNMjMwMzIxMDIzODQ3WjA1MQswCQYDVQQG
EwJGUjESMBAGA1UECgwJTm9kZU9QQ1VBMRIwEAYDVQQDDAlOb2RlT1BDVUEwggIi
MA0GCSqGSIb3DQEBAQUAA4ICDwAwggIKAoICAQCzK3YHrA8C/IoopDgl68lk+A4y
FujC6JFS3uLoRe6PtAU6GdSbGcLquySxiozZX6pXp8vusDGDsAITJm45OER/F6N8
nTULxIUC2l9fk/l1yXIz4WCHZZQVCRDwrUrBO40FBhNGX8rFz84erNkdKtYg5iAQ
zlbn1QGPtsC6KPwTMb+ukBGMz5zGiuYCzBAA91jvmC9dj1KR8IwcZ60vCKkYrZQR
6R6Os09VbMXDTTfKvYMqyPXQOxWn9wDlQ+r3e9uJbgQrdvixLvAGMkhZnhEkRx32
okLIYhMyOtC3r8SAABWc9cesSSnyu4gSysFpbsr/8c2EcQCJScrKFjgiRS9ITYEk
KX7hhgIvr7iHnugBuONuh93iu0scYYEa4T/36U4gpiHAskImMuY+Xf9fzrq3nzEM
O1utafuft8JXhEh7iQi6cnlK/CO//XiLFE9LCpjROsqa02j+LXkLY72RLWU85WhP
ns/9SixtyhRVqG/5qzcfj1zkBxW76Hw9K1a8tdNJX9Vnk2A8nH6hdPnCVzRDvcH4
fDGKo3YUcdCUXdxKhmi0qr2J++ZtJxu0tXCXs9aayad4I/cXTpwZb80AWrd3XMCN
qbL0ZNE8Ks37G6j3T2jQ9gA2lbvCj6OKGKUXhsCNtaZCL7jy7oK84LdzPSUUH3gH
uiEfebuBJV0oE5Ec/wIDAQABo4IBjzCCAYswDAYDVR0TAQH/BAIwADAdBgNVHQ4E
FgQUB5o72mL7C7ilUKS6B6cD06cHJ6UwgbAGA1UdIwSBqDCBpYAUQHIwZq7H+dua
dRuZ+1PWOOoM8Yuhd6R1MHMxCzAJBgNVBAYTAkZSMQwwCgYDVQQIEwNJREYxDjAM
BgNVBAcTBVBhcmlzMS8wLQYDVQQKEyZMb2NhbCBOT0RFLU9QQ1VBIENlcnRpZmlj
YXRlIEF1dGhvcml0eTEVMBMGA1UEAxMMTm9kZU9QQ1VBLUNBghRyiWCjEe+msFSv
TSwjifw++YSTqTBJBgNVHREEQjBAhip1cm46ZTk5ZDU0NjZmN2JiOk5vZGVPUENV
QS1EaXNjb3ZlcnlTZXJ2ZXKCDGU5OWQ1NDY2ZjdiYocEfwAAATAsBglghkgBhvhC
AQ0EHxYdT3BlblNTTCBHZW5lcmF0ZWQgQ2VydGlmaWNhdGUwDgYDVR0PAQH/BAQD
AgL8MCAGA1UdJQEB/wQWMBQGCCsGAQUFBwMBBggrBgEFBQcDAjANBgkqhkiG9w0B
AQsFAAOCAQEALOhZb3ln7quD9D1E5c+vmYSVL2SGDYSoaz7ws+v1DhZ7BHBDh6Pt
2w4ZK0d9a3Qnw/w8aBoStRBYCOjuikZmgU3sN7H1HKsbiP3MGB+jPHH2UMTYnTii
356BOT3g96PZ9F5BjKONcIC8417mHj9Rj5OCAIyq7dpN8rmVfbQptXbyFKd/M3Yk
Z46QPuLEij7h27/Sn+HtZR8JzixdXAYH7ZyMNFCM885BzEotQ8lXLGo5i+H4BGyh
Vp4MIgOEm2W3jmzAbkOFhlqL5KZYz6RGNbPz9DHpqaycyyOthxyvskTsQuGr4PJt
/i/EMHvfIb/dhE/Mb3GP/jXh+Q/34Pv9vg==
-----END CERTIFICATE-----
