Certificate:
    Data:
        Version: 3 (0x2)
        Serial Number: 4155 (0x103b)
        Signature Algorithm: sha256WithRSAEncryption
        Issuer: C=FR, ST=IDF, L=Paris, O=Local NODE-OPCUA Certificate Authority, CN=NodeOPCUA-CA
        Validity
            Not Before: Mar 19 02:38:47 2024 GMT
            Not After : Mar 19 02:38:47 2025 GMT
        Subject: C=FR, O=NodeOPCUA, CN=NodeOPCUA
        Subject Public Key Info:
            Public Key Algorithm: rsaEncryption
                Public-Key: (4096 bit)
                Modulus:
                    00:b3:2b:76:07:ac:0f:02:fc:8a:28:a4:38:25:eb:
                    c9:64:f8:0e:32:16:e8:c2:e8:91:52:de:e2:e8:45:
                    ee:8f:b4:05:3a:19:d4:9b:19:c2:ea:bb:24:b1:8a:
                    8c:d9:5f:aa:57:a7:cb:ee:b0:31:83:b0:02:13:26:
                    6e:39:38:44:7f:17:a3:7c:9d:35:0b:c4:85:02:da:
                    5f:5f:93:f9:75:c9:72:33:e1:60:87:65:94:15:09:
                    10:f0:ad:4a:c1:3b:8d:05:06:13:46:5f:ca:c5:cf:
                    ce:1e:ac:d9:1d:2a:d6:20:e6:20:10:ce:56:e7:d5:
                    01:8f:b6:c0:ba:28:fc:13:31:bf:ae:90:11:8c:cf:
                    9c:c6:8a:e6:02:cc:10:00:f7:58:ef:98:2f:5d:8f:
                    52:91:f0:8c:1c:67:ad:2f:08:a9:18:ad:94:11:e9:
                    1e:8e:b3:4f:55:6c:c5:c3:4d:37:ca:bd:83:2a:c8:
                    f5:d0:3b:15:a7:f7:00:e5:43:ea:f7:7b:db:89:6e:
                    04:2b:76:f8:b1:2e:f0:06:32:48:59:9e:11:24:47:
                    1d:f6:a2:42:c8:62:13:32:3a:d0:b7:af:c4:80:00:
                    15:9c:f5:c7:ac:49:29:f2:bb:88:12:ca:c1:69:6e:
                    ca:ff:f1:cd:84:71:00:89:49:ca:ca:16:38:22:45:
                    2f:48:4d:81:24:29:7e:e1:86:02:2f:af:b8:87:9e:
                    e8:01:b8:e3:6e:87:dd:e2:bb:4b:1c:61:81:1a:e1:
                    3f:f7:e9:4e:20:a6:21:c0:b2:42:26:32:e6:3e:5d:
                    ff:5f:ce:ba:b7:9f:31:0c:3b:5b:ad:69:fb:9f:b7:
                    c2:57:84:48:7b:89:08:ba:72:79:4a:fc:23:bf:fd:
                    78:8b:14:4f:4b:0a:98:d1:3a:ca:9a:d3:68:fe:2d:
                    79:0b:63:bd:91:2d:65:3c:e5:68:4f:9e:cf:fd:4a:
                    2c:6d:ca:14:55:a8:6f:f9:ab:37:1f:8f:5c:e4:07:
                    15:bb:e8:7c:3d:2b:56:bc:b5:d3:49:5f:d5:67:93:
                    60:3c:9c:7e:a1:74:f9:c2:57:34:43:bd:c1:f8:7c:
                    31:8a:a3:76:14:71:d0:94:5d:dc:4a:86:68:b4:aa:
                    bd:89:fb:e6:6d:27:1b:b4:b5:70:97:b3:d6:9a:c9:
                    a7:78:23:f7:17:4e:9c:19:6f:cd:00:5a:b7:77:5c:
                    c0:8d:a9:b2:f4:64:d1:3c:2a:cd:fb:1b:a8:f7:4f:
                    68:d0:f6:00:36:95:bb:c2:8f:a3:8a:18:a5:17:86:
                    c0:8d:b5:a6:42:2f:b8:f2:ee:82:bc:e0:b7:73:3d:
                    25:14:1f:78:07:ba:21:1f:79:bb:81:25:5d:28:13:
                    91:1c:ff
                Exponent: 65537 (0x10001)
        X509v3 extensions:
            X509v3 Basic Constraints: critical
                CA:FALSE
            X509v3 Subject Key Identifier: 
                07:9A:3B:DA:62:FB:0B:B8:A5:50:A4:BA:07:A7:03:D3:A7:07:27:A5
            X509v3 Authority Key Identifier: 
                keyid:40:72:30:66:AE:C7:F9:DB:9A:75:1B:99:FB:53:D6:38:EA:0C:F1:8B
                DirName:/C=FR/ST=IDF/L=Paris/O=Local NODE-OPCUA Certificate Authority/CN=NodeOPCUA-CA
                serial:72:89:60:A3:11:EF:A6:B0:54:AF:4D:2C:23:89:FC:3E:F9:84:93:A9
            X509v3 Subject Alternative Name: 
                URI:urn:e99d5466f7bb:NodeOPCUA-DiscoveryServerRevoked, DNS:e99d5466f7bb, IP Address:127.0.0.1
            Netscape Comment: 
                OpenSSL Generated Certificate
            X509v3 Key Usage: critical
                Digital Signature, Non Repudiation, Key Encipherment, Data Encipherment, Key Agreement, Certificate Sign
            X509v3 Extended Key Usage: critical
                TLS Web Server Authentication, TLS Web Client Authentication
    Signature Algorithm: sha256WithRSAEncryption
    Signature Value:
        45:96:78:9e:37:87:ed:05:17:c9:81:9c:b8:b1:13:38:62:2d:
        3d:21:0d:9f:dd:b0:a9:01:96:44:33:81:4e:ec:25:f7:5e:64:
        4a:1d:57:1d:85:90:21:7d:e4:ed:41:a5:2b:d3:78:e3:3a:f1:
        6e:ca:62:c7:27:1c:c5:d8:a4:06:58:35:37:39:80:5d:16:06:
        a1:5c:dc:04:1f:ea:20:59:9b:0f:dd:18:1d:a5:ff:5c:4b:59:
        cc:3c:b9:dc:2f:20:63:d0:1b:50:f1:85:5e:3d:22:ca:75:3b:
        ba:02:75:50:e2:c1:97:40:78:61:8e:53:45:4c:1e:6c:6f:1f:
        4e:79:40:49:3e:32:0d:cf:32:e3:e7:07:ee:36:59:b7:c0:e7:
        54:f1:ca:5a:62:17:8d:e4:e2:c0:26:90:d9:4f:87:04:dd:22:
        1a:6a:3b:09:23:93:33:59:18:e9:a4:9d:40:d5:44:0f:4f:86:
        f5:ac:ed:f0:d1:79:4c:28:9e:f4:20:1e:5e:4f:bf:7f:9f:e6:
        d4:ac:36:2e:1d:fc:a1:59:5b:f4:e0:29:7b:d2:fe:24:50:28:
        06:42:a4:ba:d9:0e:ee:8c:21:b8:d0:ed:1a:3a:76:27:7e:8c:
        3a:cb:3a:c6:35:a4:c6:f6:62:88:69:98:1a:b2:cb:59:ea:e7:
        9e:4e:71:33
-----BEGIN CERTIFICATE-----
MIIFvDCCBKSgAwIBAgICEDswDQYJKoZIhvcNAQELBQAwczELMAkGA1UEBhMCRlIx
DDAKBgNVBAgTA0lERjEOMAwGA1UEBxMFUGFyaXMxLzAtBgNVBAoTJkxvY2FsIE5P
REUtT1BDVUEgQ2VydGlmaWNhdGUgQXV0aG9yaXR5MRUwEwYDVQQDEwxOb2RlT1BD
VUEtQ0EwHhcNMjQwMzE5MDIzODQ3WhcNMjUwMzE5MDIzODQ3WjA1MQswCQYDVQQG
EwJGUjESMBAGA1UECgwJTm9kZU9QQ1VBMRIwEAYDVQQDDAlOb2RlT1BDVUEwggIi
MA0GCSqGSIb3DQEBAQUAA4ICDwAwggIKAoICAQCzK3YHrA8C/IoopDgl68lk+A4y
FujC6JFS3uLoRe6PtAU6GdSbGcLquySxiozZX6pXp8vusDGDsAITJm45OER/F6N8
nTULxIUC2l9fk/l1yXIz4WCHZZQVCRDwrUrBO40FBhNGX8rFz84erNkdKtYg5iAQ
zlbn1QGPtsC6KPwTMb+ukBGMz5zGiuYCzBAA91jvmC9dj1KR8IwcZ60vCKkYrZQR
6R6Os09VbMXDTTfKvYMqyPXQOxWn9wDlQ+r3e9uJbgQrdvixLvAGMkhZnhEkRx32
okLIYhMyOtC3r8SAABWc9cesSSnyu4gSysFpbsr/8c2EcQCJScrKFjgiRS9ITYEk
KX7hhgIvr7iHnugBuONuh93iu0scYYEa4T/36U4gpiHAskImMuY+Xf9fzrq3nzEM
O1utafuft8JXhEh7iQi6cnlK/CO//XiLFE9LCpjROsqa02j+LXkLY72RLWU85WhP
ns/9SixtyhRVqG/5qzcfj1zkBxW76Hw9K1a8tdNJX9Vnk2A8nH6hdPnCVzRDvcH4
fDGKo3YUcdCUXdxKhmi0qr2J++ZtJxu0tXCXs9aayad4I/cXTpwZb80AWrd3XMCN
qbL0ZNE8Ks37G6j3T2jQ9gA2lbvCj6OKGKUXhsCNtaZCL7jy7oK84LdzPSUUH3gH
uiEfebuBJV0oE5Ec/wIDAQABo4IBljCCAZIwDAYDVR0TAQH/BAIwADAdBgNVHQ4E
FgQUB5o72mL7C7ilUKS6B6cD06cHJ6UwgbAGA1UdIwSBqDCBpYAUQHIwZq7H+dua
dRuZ+1PWOOoM8Yuhd6R1MHMxCzAJBgNVBAYTAkZSMQwwCgYDVQQIEwNJREYxDjAM
BgNVBAcTBVBhcmlzMS8wLQYDVQQKEyZMb2NhbCBOT0RFLU9QQ1VBIENlcnRpZmlj
YXRlIEF1dGhvcml0eTEVMBMGA1UEAxMMTm9kZU9QQ1VBLUNBghRyiWCjEe+msFSv
TSwjifw++YSTqTBQBgNVHREESTBHhjF1cm46ZTk5ZDU0NjZmN2JiOk5vZGVPUENV
QS1EaXNjb3ZlcnlTZXJ2ZXJSZXZva2VkggxlOTlkNTQ2NmY3YmKHBH8AAAEwLAYJ
YIZIAYb4QgENBB8WHU9wZW5TU0wgR2VuZXJhdGVkIENlcnRpZmljYXRlMA4GA1Ud
DwEB/wQEAwIC/DAgBgNVHSUBAf8EFjAUBggrBgEFBQcDAQYIKwYBBQUHAwIwDQYJ
KoZIhvcNAQELBQADggEBAEWWeJ43h+0FF8mBnLixEzhiLT0hDZ/dsKkBlkQzgU7s
JfdeZEodVx2FkCF95O1BpSvTeOM68W7KYscnHMXYpAZYNTc5gF0WBqFc3AQf6iBZ
mw/dGB2l/1xLWcw8udwvIGPQG1DxhV49Isp1O7oCdVDiwZdAeGGOU0VMHmxvH055
QEk+Mg3PMuPnB+42WbfA51TxylpiF43k4sAmkNlPhwTdIhpqOwkjkzNZGOmknUDV
RA9PhvWs7fDReUwonvQgHl5Pv3+f5tSsNi4d/KFZW/TgKXvS/iRQKAZCpLrZDu6M
IbjQ7Ro6did+jDrLOsY1pMb2YohpmBqyy1nq555OcTM=
-----END CERTIFICATE-----
