Certificate Request:
    Data:
        Version: 1 (0x0)
        Subject: C = FR, ST = IDF, L = Paris, O = Local NODE-OPCUA Certificate Authority, CN = NodeOPCUA-CA
        Subject Public Key Info:
            Public Key Algorithm: rsaEncryption
                Public-Key: (2048 bit)
                Modulus:
                    00:b9:71:cc:db:cf:89:9d:e2:97:00:c2:e7:4b:db:
                    6c:37:ab:b0:f4:e9:dc:ef:71:1c:32:1d:c5:34:34:
                    93:22:4b:c3:fa:78:9a:f0:78:e3:f3:3e:58:09:da:
                    4f:af:dc:45:8a:9b:93:25:6f:7b:72:83:d7:a5:16:
                    b0:0c:23:e6:6b:35:8a:09:9f:84:3d:a9:43:6e:68:
                    ba:40:47:04:33:4d:6d:7f:f4:45:8d:47:24:c3:79:
                    e6:76:b2:15:6e:4c:23:51:c6:0a:6d:63:0b:f4:34:
                    b1:18:97:7a:95:22:fb:f9:8a:4a:f2:7f:0c:c3:a0:
                    71:c0:d3:16:f4:4a:4c:e2:00:12:e2:ce:d7:e9:09:
                    01:2f:7e:7b:ad:fb:ad:14:d9:10:6d:2b:b6:1b:a4:
                    45:05:40:cc:d5:04:29:04:ab:2a:80:ba:67:12:6e:
                    1a:d0:2c:d6:f2:ce:4f:1e:89:88:7e:41:8a:f6:85:
                    d3:06:58:47:94:ed:84:b1:9e:90:e9:da:cd:e4:1b:
                    df:79:b8:28:f2:5e:5f:c8:27:dc:fa:ef:f3:ee:dd:
                    2a:50:6d:7e:0a:97:05:12:f5:7b:0b:6f:d0:e0:6b:
                    da:61:0c:b3:50:ff:18:d8:c6:ca:97:73:20:fb:20:
                    93:10:df:a7:d7:d6:1a:23:2d:37:b2:eb:08:f5:5c:
                    4c:2d
                Exponent: 65537 (0x10001)
        Attributes:
            Requested Extensions:
                X509v3 Basic Constraints: critical
                    CA:FALSE
                X509v3 Key Usage: 
                    Digital Signature, Non Repudiation, Key Encipherment, Data Encipherment, Key Agreement
                X509v3 Extended Key Usage: critical
                    TLS Web Server Authentication, TLS Web Client Authentication
                X509v3 Subject Alternative Name: 
                    URI:undefined
                Netscape Comment: 
                    CA Generated by Node-OPCUA Certificate utility using openssl
    Signature Algorithm: sha256WithRSAEncryption
    Signature Value:
        95:d5:ce:4e:d6:b1:6e:b2:a5:5c:31:18:1a:2c:60:09:a8:93:
        9d:2d:cb:ee:17:93:f4:44:a1:0e:ce:0f:37:ea:09:5f:7d:c0:
        ce:4b:54:45:0f:23:41:0e:95:8b:5e:e6:81:67:09:b0:0e:25:
        34:d4:bf:51:a3:ea:b1:69:2d:5d:e9:08:9e:4a:3b:40:63:fe:
        e1:96:34:87:f4:3c:1b:f1:ae:dc:d8:13:84:7b:b5:5d:79:97:
        cc:57:1d:54:1f:34:dc:28:8d:58:bc:1e:36:e3:44:ea:25:6b:
        b0:b4:b0:11:9c:d4:c2:5c:e4:3f:81:c7:e6:99:2e:a6:4f:e1:
        88:c1:a6:d2:4f:5a:32:51:68:c2:f6:e7:4f:67:bf:69:ba:cb:
        e6:a3:0e:81:97:1a:e6:0b:63:b9:02:ad:0b:52:db:a0:3c:92:
        e3:21:de:a3:44:0f:4a:d5:38:be:81:e9:94:81:23:1d:00:38:
        5a:44:ae:e9:13:04:ed:43:31:c9:a7:84:c3:5b:3f:fd:21:a9:
        d9:57:2b:3d:fe:d1:8f:f7:02:5b:ed:5e:71:5b:29:c9:59:13:
        8a:59:b6:c1:8d:b1:f6:95:d9:06:ca:4a:23:cd:e3:39:5a:d4:
        a8:98:a7:9d:49:45:60:6e:6b:8e:cd:e9:08:2c:f6:70:85:ef:
        8d:d3:24:13
-----BEGIN CERTIFICATE REQUEST-----
MIIDbTCCAlUCAQAwczELMAkGA1UEBhMCRlIxDDAKBgNVBAgTA0lERjEOMAwGA1UE
BxMFUGFyaXMxLzAtBgNVBAoTJkxvY2FsIE5PREUtT1BDVUEgQ2VydGlmaWNhdGUg
QXV0aG9yaXR5MRUwEwYDVQQDEwxOb2RlT1BDVUEtQ0EwggEiMA0GCSqGSIb3DQEB
AQUAA4IBDwAwggEKAoIBAQC5cczbz4md4pcAwudL22w3q7D06dzvcRwyHcU0NJMi
S8P6eJrweOPzPlgJ2k+v3EWKm5Mlb3tyg9elFrAMI+ZrNYoJn4Q9qUNuaLpARwQz
TW1/9EWNRyTDeeZ2shVuTCNRxgptYwv0NLEYl3qVIvv5ikryfwzDoHHA0xb0Skzi
ABLiztfpCQEvfnut+60U2RBtK7YbpEUFQMzVBCkEqyqAumcSbhrQLNbyzk8eiYh+
QYr2hdMGWEeU7YSxnpDp2s3kG995uCjyXl/IJ9z67/Pu3SpQbX4KlwUS9XsLb9Dg
a9phDLNQ/xjYxsqXcyD7IJMQ36fX1hojLTey6wj1XEwtAgMBAAGggbQwgbEGCSqG
SIb3DQEJDjGBozCBoDAMBgNVHRMBAf8EAjAAMAsGA1UdDwQEAwID+DAgBgNVHSUB
Af8EFjAUBggrBgEFBQcDAQYIKwYBBQUHAwIwFAYDVR0RBA0wC4YJdW5kZWZpbmVk
MEsGCWCGSAGG+EIBDQQ+FjxDQSBHZW5lcmF0ZWQgYnkgTm9kZS1PUENVQSBDZXJ0
aWZpY2F0ZSB1dGlsaXR5IHVzaW5nIG9wZW5zc2wwDQYJKoZIhvcNAQELBQADggEB
AJXVzk7WsW6ypVwxGBosYAmok50ty+4Xk/REoQ7ODzfqCV99wM5LVEUPI0EOlYte
5oFnCbAOJTTUv1Gj6rFpLV3pCJ5KO0Bj/uGWNIf0PBvxrtzYE4R7tV15l8xXHVQf
NNwojVi8HjbjROola7C0sBGc1MJc5D+Bx+aZLqZP4YjBptJPWjJRaML2509nv2m6
y+ajDoGXGuYLY7kCrQtS26A8kuMh3qNED0rVOL6B6ZSBIx0AOFpErukTBO1DMcmn
hMNbP/0hqdlXKz3+0Y/3AlvtXnFbKclZE4pZtsGNsfaV2QbKSiPN4zla1KiYp51J
RWBua47N6Qgs9nCF743TJBM=
-----END CERTIFICATE REQUEST-----
