Certificate:
    Data:
        Version: 3 (0x2)
        Serial Number: 4115 (0x1013)
        Signature Algorithm: sha256WithRSAEncryption
        Issuer: C=FR, ST=IDF, L=Paris, O=Local NODE-OPCUA Certificate Authority, CN=NodeOPCUA-CA
        Validity
            Not Before: Mar 19 02:38:47 2024 GMT
            Not After : Mar 19 02:38:47 2025 GMT
        Subject: C=FR, O=NodeOPCUA, CN=NodeOPCUA
        Subject Public Key Info:
            Public Key Algorithm: rsaEncryption
                Public-Key: (4096 bit)
                Modulus:
                    00:b1:7d:65:d1:6e:98:76:ac:65:7c:92:4d:7d:3d:
                    06:5a:3d:87:15:c6:e0:a9:a7:0e:40:6f:82:ed:39:
                    5f:8a:15:ef:17:7f:19:ac:ff:9d:43:2c:dc:e7:02:
                    fd:03:ce:fa:82:ad:fb:1a:c0:cf:b4:5d:45:4c:84:
                    19:69:0a:4e:9d:03:78:12:4f:20:eb:6b:6e:86:c5:
                    59:0a:e5:6b:64:26:f5:ab:6f:b0:1c:b4:ef:3b:8d:
                    82:cb:36:3e:1d:6e:d4:1f:54:f2:26:05:ff:fa:4a:
                    1b:01:4d:52:79:a0:e6:e5:bb:36:07:d7:f6:8a:bc:
                    2e:79:99:46:27:f5:a7:51:cc:5c:d8:43:ee:a7:e8:
                    1d:23:55:54:be:52:e6:55:9c:1c:c9:b6:c4:8d:28:
                    1d:21:af:d7:41:6e:45:d2:22:c7:3a:6c:97:c9:e6:
                    f1:1b:5d:13:c9:ea:f6:78:91:2e:17:60:46:d6:af:
                    20:f3:66:47:66:62:c5:7b:d9:bc:9e:54:81:93:7a:
                    ac:ed:06:ea:39:ff:61:84:e0:cc:75:47:81:d7:e0:
                    d8:ba:49:f4:d7:d5:cc:14:43:29:0b:43:6a:c6:f8:
                    ec:aa:4a:3d:a2:97:6e:58:f5:af:92:cf:54:6f:c6:
                    d1:b1:62:20:c0:62:ce:a7:19:d8:be:60:b8:98:e8:
                    2b:7a:8e:2b:85:4a:7d:fb:ec:c2:18:06:f2:1c:cd:
                    f2:d5:4b:21:9b:61:ae:94:f1:4f:9c:ca:da:3a:75:
                    f0:8a:c8:bc:65:9f:fb:4f:cf:78:05:5e:0b:3e:3b:
                    92:ac:9e:c2:d9:ba:fa:e2:2f:98:61:30:fc:fa:0f:
                    7c:95:7f:43:f8:06:9f:d7:e9:07:ba:9d:20:ce:ef:
                    10:aa:f9:03:ba:91:aa:a7:c2:6c:da:b8:6e:c4:41:
                    83:14:a3:98:45:8c:1b:04:0e:29:7d:11:91:54:a0:
                    1a:29:93:a7:7b:df:6b:41:cd:04:c6:d6:bd:81:73:
                    26:d7:94:51:41:7d:d5:4c:7c:e3:30:c1:11:24:83:
                    54:15:51:b0:e4:1d:1a:93:06:6d:c9:f1:c7:10:61:
                    4c:d4:d3:05:bf:0d:b9:ba:06:52:fe:45:55:05:d6:
                    60:23:1a:0c:d8:a3:d1:c2:dd:5a:68:4a:6c:a2:ca:
                    a6:3e:1c:52:cd:8d:9a:38:5f:64:e6:46:94:f1:a1:
                    79:c8:72:f6:8f:2c:32:3a:b4:78:b6:9d:ee:95:45:
                    ee:ee:8e:b6:d1:1e:d7:19:b5:ba:6c:64:7a:1d:89:
                    02:3b:5a:4a:f3:bf:a0:fb:ba:ee:fa:64:97:bf:07:
                    cc:13:0b:67:c1:53:3b:44:86:54:73:32:f9:61:a3:
                    77:99:59
                Exponent: 65537 (0x10001)
        X509v3 extensions:
            X509v3 Basic Constraints: critical
                CA:FALSE
            X509v3 Subject Key Identifier: 
                14:EC:00:EC:60:84:45:5F:A1:16:A1:C4:6B:3D:AD:82:9E:47:4D:0D
            X509v3 Authority Key Identifier: 
                keyid:40:72:30:66:AE:C7:F9:DB:9A:75:1B:99:FB:53:D6:38:EA:0C:F1:8B
                DirName:/C=FR/ST=IDF/L=Paris/O=Local NODE-OPCUA Certificate Authority/CN=NodeOPCUA-CA
                serial:72:89:60:A3:11:EF:A6:B0:54:AF:4D:2C:23:89:FC:3E:F9:84:93:A9
            X509v3 Subject Alternative Name: 
                URI:urn:e99d5466f7bb:NodeOPCUA-ClientRevoked, DNS:e99d5466f7bb, IP Address:127.0.0.1
            Netscape Comment: 
                OpenSSL Generated Certificate
            X509v3 Key Usage: critical
                Digital Signature, Non Repudiation, Key Encipherment, Data Encipherment, Key Agreement, Certificate Sign
            X509v3 Extended Key Usage: critical
                TLS Web Server Authentication, TLS Web Client Authentication
    Signature Algorithm: sha256WithRSAEncryption
    Signature Value:
        88:60:80:24:04:ea:d5:29:da:e7:0c:00:2f:52:d3:54:9d:d8:
        38:1a:c6:7e:28:97:d2:43:01:a8:c6:77:75:06:8d:9e:b4:3a:
        58:ad:78:f7:80:2d:cc:78:18:0e:e0:d8:ab:04:2f:6f:64:08:
        b6:01:01:5c:cf:58:dd:ef:1e:59:fd:26:78:40:85:79:12:d3:
        a5:1e:cd:d4:46:a4:22:c5:de:82:2e:f8:ac:2c:96:b9:7a:42:
        0a:2c:e2:f9:8a:a7:30:72:f5:3e:a9:ef:36:49:a0:b2:54:d2:
        1e:6c:25:62:99:76:dd:5f:b7:2e:aa:59:ab:27:49:5f:74:5a:
        32:19:9e:0f:f1:ca:f0:db:77:f5:01:44:5e:a5:be:7c:62:52:
        ae:e8:7e:08:63:18:12:01:f9:a0:52:99:4f:b5:da:a8:31:b8:
        86:bb:7f:25:8e:ba:7d:40:dc:b6:12:a7:5f:d8:34:39:65:75:
        3d:30:f2:2e:86:ab:87:60:bd:5c:eb:a2:39:f9:00:31:0c:64:
        16:c8:8a:b2:0e:b2:cf:2d:55:ab:0c:ab:81:55:5d:d7:d0:c1:
        06:4b:d8:61:bb:ad:f4:43:b0:5d:d2:d0:83:65:40:fb:b8:b7:
        14:31:11:0b:c2:49:4e:72:e3:ed:4d:78:d5:d2:1b:71:5a:9b:
        a3:36:e9:93
-----BEGIN CERTIFICATE-----
MIIFszCCBJugAwIBAgICEBMwDQYJKoZIhvcNAQELBQAwczELMAkGA1UEBhMCRlIx
DDAKBgNVBAgTA0lERjEOMAwGA1UEBxMFUGFyaXMxLzAtBgNVBAoTJkxvY2FsIE5P
REUtT1BDVUEgQ2VydGlmaWNhdGUgQXV0aG9yaXR5MRUwEwYDVQQDEwxOb2RlT1BD
VUEtQ0EwHhcNMjQwMzE5MDIzODQ3WhcNMjUwMzE5MDIzODQ3WjA1MQswCQYDVQQG
EwJGUjESMBAGA1UECgwJTm9kZU9QQ1VBMRIwEAYDVQQDDAlOb2RlT1BDVUEwggIi
MA0GCSqGSIb3DQEBAQUAA4ICDwAwggIKAoICAQCxfWXRbph2rGV8kk19PQZaPYcV
xuCppw5Ab4LtOV+KFe8Xfxms/51DLNznAv0DzvqCrfsawM+0XUVMhBlpCk6dA3gS
TyDra26GxVkK5WtkJvWrb7ActO87jYLLNj4dbtQfVPImBf/6ShsBTVJ5oObluzYH
1/aKvC55mUYn9adRzFzYQ+6n6B0jVVS+UuZVnBzJtsSNKB0hr9dBbkXSIsc6bJfJ
5vEbXRPJ6vZ4kS4XYEbWryDzZkdmYsV72byeVIGTeqztBuo5/2GE4Mx1R4HX4Ni6
SfTX1cwUQykLQ2rG+OyqSj2il25Y9a+Sz1RvxtGxYiDAYs6nGdi+YLiY6Ct6jiuF
Sn377MIYBvIczfLVSyGbYa6U8U+cyto6dfCKyLxln/tPz3gFXgs+O5KsnsLZuvri
L5hhMPz6D3yVf0P4Bp/X6Qe6nSDO7xCq+QO6kaqnwmzauG7EQYMUo5hFjBsEDil9
EZFUoBopk6d732tBzQTG1r2BcybXlFFBfdVMfOMwwREkg1QVUbDkHRqTBm3J8ccQ
YUzU0wW/Dbm6BlL+RVUF1mAjGgzYo9HC3VpoSmyiyqY+HFLNjZo4X2TmRpTxoXnI
cvaPLDI6tHi2ne6VRe7ujrbRHtcZtbpsZHodiQI7Wkrzv6D7uu76ZJe/B8wTC2fB
UztEhlRzMvlho3eZWQIDAQABo4IBjTCCAYkwDAYDVR0TAQH/BAIwADAdBgNVHQ4E
FgQUFOwA7GCERV+hFqHEaz2tgp5HTQ0wgbAGA1UdIwSBqDCBpYAUQHIwZq7H+dua
dRuZ+1PWOOoM8Yuhd6R1MHMxCzAJBgNVBAYTAkZSMQwwCgYDVQQIEwNJREYxDjAM
BgNVBAcTBVBhcmlzMS8wLQYDVQQKEyZMb2NhbCBOT0RFLU9QQ1VBIENlcnRpZmlj
YXRlIEF1dGhvcml0eTEVMBMGA1UEAxMMTm9kZU9QQ1VBLUNBghRyiWCjEe+msFSv
TSwjifw++YSTqTBHBgNVHREEQDA+hih1cm46ZTk5ZDU0NjZmN2JiOk5vZGVPUENV
QS1DbGllbnRSZXZva2VkggxlOTlkNTQ2NmY3YmKHBH8AAAEwLAYJYIZIAYb4QgEN
BB8WHU9wZW5TU0wgR2VuZXJhdGVkIENlcnRpZmljYXRlMA4GA1UdDwEB/wQEAwIC
/DAgBgNVHSUBAf8EFjAUBggrBgEFBQcDAQYIKwYBBQUHAwIwDQYJKoZIhvcNAQEL
BQADggEBAIhggCQE6tUp2ucMAC9S01Sd2Dgaxn4ol9JDAajGd3UGjZ60OlitePeA
Lcx4GA7g2KsEL29kCLYBAVzPWN3vHln9JnhAhXkS06UezdRGpCLF3oIu+Kwslrl6
Qgos4vmKpzBy9T6p7zZJoLJU0h5sJWKZdt1fty6qWasnSV90WjIZng/xyvDbd/UB
RF6lvnxiUq7ofghjGBIB+aBSmU+12qgxuIa7fyWOun1A3LYSp1/YNDlldT0w8i6G
q4dgvVzrojn5ADEMZBbIirIOss8tVasMq4FVXdfQwQZL2GG7rfRDsF3S0INlQPu4
txQxEQvCSU5y4+1NeNXSG3Fam6M26ZM=
-----END CERTIFICATE-----
Certificate:
    Data:
        Version: 3 (0x2)
        Serial Number:
            72:89:60:a3:11:ef:a6:b0:54:af:4d:2c:23:89:fc:3e:f9:84:93:a9
        Signature Algorithm: sha256WithRSAEncryption
        Issuer: C = FR, ST = IDF, L = Paris, O = Local NODE-OPCUA Certificate Authority, CN = NodeOPCUA-CA
        Validity
            Not Before: Mar 20 02:38:47 2024 GMT
            Not After : Mar 18 02:38:47 2034 GMT
        Subject: C = FR, ST = IDF, L = Paris, O = Local NODE-OPCUA Certificate Authority, CN = NodeOPCUA-CA
        Subject Public Key Info:
            Public Key Algorithm: rsaEncryption
                Public-Key: (2048 bit)
                Modulus:
                    00:b9:71:cc:db:cf:89:9d:e2:97:00:c2:e7:4b:db:
                    6c:37:ab:b0:f4:e9:dc:ef:71:1c:32:1d:c5:34:34:
                    93:22:4b:c3:fa:78:9a:f0:78:e3:f3:3e:58:09:da:
                    4f:af:dc:45:8a:9b:93:25:6f:7b:72:83:d7:a5:16:
                    b0:0c:23:e6:6b:35:8a:09:9f:84:3d:a9:43:6e:68:
                    ba:40:47:04:33:4d:6d:7f:f4:45:8d:47:24:c3:79:
                    e6:76:b2:15:6e:4c:23:51:c6:0a:6d:63:0b:f4:34:
                    b1:18:97:7a:95:22:fb:f9:8a:4a:f2:7f:0c:c3:a0:
                    71:c0:d3:16:f4:4a:4c:e2:00:12:e2:ce:d7:e9:09:
                    01:2f:7e:7b:ad:fb:ad:14:d9:10:6d:2b:b6:1b:a4:
                    45:05:40:cc:d5:04:29:04:ab:2a:80:ba:67:12:6e:
                    1a:d0:2c:d6:f2:ce:4f:1e:89:88:7e:41:8a:f6:85:
                    d3:06:58:47:94:ed:84:b1:9e:90:e9:da:cd:e4:1b:
                    df:79:b8:28:f2:5e:5f:c8:27:dc:fa:ef:f3:ee:dd:
                    2a:50:6d:7e:0a:97:05:12:f5:7b:0b:6f:d0:e0:6b:
                    da:61:0c:b3:50:ff:18:d8:c6:ca:97:73:20:fb:20:
                    93:10:df:a7:d7:d6:1a:23:2d:37:b2:eb:08:f5:5c:
                    4c:2d
                Exponent: 65537 (0x10001)
        X509v3 extensions:
            X509v3 Subject Key Identifier: 
                40:72:30:66:AE:C7:F9:DB:9A:75:1B:99:FB:53:D6:38:EA:0C:F1:8B
            X509v3 Authority Key Identifier: 
                keyid:40:72:30:66:AE:C7:F9:DB:9A:75:1B:99:FB:53:D6:38:EA:0C:F1:8B
                DirName:/C=FR/ST=IDF/L=Paris/O=Local NODE-OPCUA Certificate Authority/CN=NodeOPCUA-CA
                serial:72:89:60:A3:11:EF:A6:B0:54:AF:4D:2C:23:89:FC:3E:F9:84:93:A9
            X509v3 Basic Constraints: 
                CA:TRUE
            X509v3 Key Usage: critical
                Certificate Sign, CRL Sign
            Netscape Comment: 
                CA Certificate generated by Node-OPCUA Certificate utility using openssl
            X509v3 CRL Distribution Points: 
                Full Name:
                  URI:http://localhost:8900/crl.pem
    Signature Algorithm: sha256WithRSAEncryption
    Signature Value:
        ab:e7:3f:e8:5f:cd:89:8a:ca:18:95:23:0a:89:f7:74:4c:ff:
        fd:7b:91:83:28:b8:e9:11:1a:9d:2b:6e:71:69:36:85:53:8f:
        b5:77:27:88:81:fa:b5:15:ff:f0:9d:9a:e8:8a:3f:1a:09:7e:
        97:23:1e:75:a7:ee:76:ff:32:7e:00:d7:12:85:70:39:ab:17:
        88:71:02:ed:a5:3b:bd:ee:78:59:a1:e6:bf:30:38:c2:2c:c4:
        dc:4c:13:9a:38:da:e5:4f:94:80:a9:1d:18:49:81:75:63:70:
        20:fc:ed:ae:9d:55:3e:a3:41:4c:cd:eb:e8:31:dd:f2:c0:25:
        8e:75:c3:a7:c1:95:d1:02:94:96:ac:0f:09:93:05:6d:96:04:
        b8:e5:c1:17:20:29:4e:e5:36:a7:11:b7:e1:04:69:78:98:be:
        b7:97:5e:23:d1:23:22:d7:45:04:ad:35:be:de:cc:da:4e:9d:
        1c:19:f0:39:05:06:cb:30:96:26:90:21:74:fc:ac:e1:df:46:
        6b:e9:31:0b:51:f7:1d:42:fd:ff:49:2e:72:9e:68:7b:8f:75:
        07:9e:63:4c:39:c5:30:3c:c2:54:88:b6:73:9c:9e:29:da:7c:
        6c:36:b7:ea:cf:ea:26:06:7b:d3:72:30:49:57:93:ca:6d:b6:
        b3:6e:e2:d7
-----BEGIN CERTIFICATE-----
MIIE8zCCA9ugAwIBAgIUcolgoxHvprBUr00sI4n8PvmEk6kwDQYJKoZIhvcNAQEL
BQAwczELMAkGA1UEBhMCRlIxDDAKBgNVBAgTA0lERjEOMAwGA1UEBxMFUGFyaXMx
LzAtBgNVBAoTJkxvY2FsIE5PREUtT1BDVUEgQ2VydGlmaWNhdGUgQXV0aG9yaXR5
MRUwEwYDVQQDEwxOb2RlT1BDVUEtQ0EwHhcNMjQwMzIwMDIzODQ3WhcNMzQwMzE4
MDIzODQ3WjBzMQswCQYDVQQGEwJGUjEMMAoGA1UECBMDSURGMQ4wDAYDVQQHEwVQ
YXJpczEvMC0GA1UEChMmTG9jYWwgTk9ERS1PUENVQSBDZXJ0aWZpY2F0ZSBBdXRo
b3JpdHkxFTATBgNVBAMTDE5vZGVPUENVQS1DQTCCASIwDQYJKoZIhvcNAQEBBQAD
ggEPADCCAQoCggEBALlxzNvPiZ3ilwDC50vbbDersPTp3O9xHDIdxTQ0kyJLw/p4
mvB44/M+WAnaT6/cRYqbkyVve3KD16UWsAwj5ms1igmfhD2pQ25oukBHBDNNbX/0
RY1HJMN55nayFW5MI1HGCm1jC/Q0sRiXepUi+/mKSvJ/DMOgccDTFvRKTOIAEuLO
1+kJAS9+e637rRTZEG0rthukRQVAzNUEKQSrKoC6ZxJuGtAs1vLOTx6JiH5BivaF
0wZYR5TthLGekOnazeQb33m4KPJeX8gn3Prv8+7dKlBtfgqXBRL1ewtv0OBr2mEM
s1D/GNjGypdzIPsgkxDfp9fWGiMtN7LrCPVcTC0CAwEAAaOCAX0wggF5MB0GA1Ud
DgQWBBRAcjBmrsf525p1G5n7U9Y46gzxizCBsAYDVR0jBIGoMIGlgBRAcjBmrsf5
25p1G5n7U9Y46gzxi6F3pHUwczELMAkGA1UEBhMCRlIxDDAKBgNVBAgTA0lERjEO
MAwGA1UEBxMFUGFyaXMxLzAtBgNVBAoTJkxvY2FsIE5PREUtT1BDVUEgQ2VydGlm
aWNhdGUgQXV0aG9yaXR5MRUwEwYDVQQDEwxOb2RlT1BDVUEtQ0GCFHKJYKMR76aw
VK9NLCOJ/D75hJOpMAwGA1UdEwQFMAMBAf8wDgYDVR0PAQH/BAQDAgEGMFcGCWCG
SAGG+EIBDQRKFkhDQSBDZXJ0aWZpY2F0ZSBnZW5lcmF0ZWQgYnkgTm9kZS1PUENV
QSBDZXJ0aWZpY2F0ZSB1dGlsaXR5IHVzaW5nIG9wZW5zc2wwLgYDVR0fBCcwJTAj
oCGgH4YdaHR0cDovL2xvY2FsaG9zdDo4OTAwL2NybC5wZW0wDQYJKoZIhvcNAQEL
BQADggEBAKvnP+hfzYmKyhiVIwqJ93RM//17kYMouOkRGp0rbnFpNoVTj7V3J4iB
+rUV//CdmuiKPxoJfpcjHnWn7nb/Mn4A1xKFcDmrF4hxAu2lO73ueFmh5r8wOMIs
xNxME5o42uVPlICpHRhJgXVjcCD87a6dVT6jQUzN6+gx3fLAJY51w6fBldEClJas
DwmTBW2WBLjlwRcgKU7lNqcRt+EEaXiYvreXXiPRIyLXRQStNb7ezNpOnRwZ8DkF
BsswliaQIXT8rOHfRmvpMQtR9x1C/f9JLnKeaHuPdQeeY0w5xTA8wlSItnOcnina
fGw2t+rP6iYGe9NyMElXk8pttrNu4tc=
-----END CERTIFICATE-----
