Certificate Request:
    Data:
        Version: 1 (0x0)
        Subject: C = FR, O = NodeOPCUA, CN = NodeOPCUA
        Subject Public Key Info:
            Public Key Algorithm: rsaEncryption
                Public-Key: (3072 bit)
                Modulus:
                    00:93:70:a3:7d:65:73:f5:c3:cf:87:e4:7b:1b:36:
                    be:c1:f6:5f:b9:02:b7:09:b0:60:3b:55:07:5c:4c:
                    b8:32:52:0f:2c:e6:6d:8d:e1:4a:86:ce:d0:be:f3:
                    8b:6f:33:4b:08:e4:93:29:8a:c5:c0:3c:07:94:29:
                    69:f5:49:1e:96:b7:e9:86:db:c3:08:11:f9:8c:43:
                    b1:73:65:6a:d0:a9:d2:29:c5:87:a4:6f:79:50:e0:
                    91:58:0c:86:a6:3b:f0:93:fe:bb:7d:01:60:65:a9:
                    b9:fa:fb:e5:8e:7a:04:70:ed:44:cd:57:bf:a7:a9:
                    55:93:dd:9d:b0:49:4b:5b:86:dd:05:52:6e:3e:4b:
                    71:64:a5:7c:8e:86:b3:76:99:f5:ec:b8:00:81:98:
                    61:f4:d0:4c:12:14:16:90:3f:29:26:05:d9:3a:e3:
                    0e:8e:9f:e1:cf:a2:8a:86:b6:20:d5:2a:2f:ad:cb:
                    4a:a7:46:10:98:f4:95:c5:25:a0:69:80:ad:47:55:
                    d1:77:c9:59:c6:be:c7:ec:a8:4a:f4:97:66:72:73:
                    cb:f3:cb:9b:3a:1c:db:38:03:90:f8:0f:2f:87:b6:
                    01:1a:fc:5d:71:b8:33:38:3c:dc:77:9e:93:5d:34:
                    60:2f:96:9d:1b:4f:4d:3f:35:75:4e:69:20:c9:9b:
                    9c:cc:1f:db:15:bc:ce:74:e3:4d:ef:12:aa:c6:5f:
                    bc:71:f2:99:03:7f:bd:df:ce:46:c7:cb:f4:9a:ed:
                    8a:11:f0:8a:8b:1c:3b:53:8b:86:39:30:c6:b9:cd:
                    71:ef:13:6a:00:52:cd:52:2f:b2:e5:a0:4a:90:9b:
                    3f:92:f9:bd:38:3e:26:0d:02:0d:d4:cd:05:74:90:
                    92:d5:c5:a6:5d:ab:0e:45:46:aa:4c:98:d6:ca:5c:
                    27:97:8f:1a:82:a7:fd:d2:9d:65:20:df:6f:59:8b:
                    ba:85:13:96:f8:36:5d:42:a9:77:6e:6f:09:ff:95:
                    d6:2b:52:98:5e:67:89:61:4e:69
                Exponent: 65537 (0x10001)
        Attributes:
            Requested Extensions:
                X509v3 Basic Constraints: 
                    CA:FALSE
                X509v3 Key Usage: critical
                    Certificate Sign, CRL Sign
                X509v3 Subject Alternative Name: 
                    URI:urn:e99d5466f7bb:NodeOPCUA-Client, DNS:e99d5466f7bb, IP Address:127.0.0.1
    Signature Algorithm: sha256WithRSAEncryption
    Signature Value:
        26:e9:08:3a:c6:d6:f9:d3:de:17:bf:84:a1:f0:33:3c:be:41:
        f4:18:3a:5a:26:a6:65:aa:af:9a:12:60:c0:2e:2e:11:ca:3c:
        d5:ac:c6:18:dd:a3:50:e1:93:8b:29:d1:e7:0c:8b:4d:2f:99:
        8f:d5:54:21:1f:94:9d:45:17:fc:61:aa:c3:60:4f:96:9a:fc:
        f6:22:52:da:87:d5:5e:ee:9a:e6:15:c5:39:54:d3:fb:40:61:
        52:f4:0f:47:74:50:fe:15:23:26:41:81:3c:70:20:fc:65:ce:
        aa:15:03:ab:69:41:84:16:cd:f2:8a:47:d9:9d:c7:0e:84:76:
        79:ed:0f:36:6e:37:d9:9e:67:f5:82:1e:67:28:14:f2:3e:c5:
        22:28:0f:d2:34:3b:e5:b5:1a:26:89:e6:2d:1c:38:74:e5:50:
        45:d0:94:6c:ce:13:01:1e:fe:e4:a9:32:03:c5:d2:bb:0a:ee:
        99:38:e7:17:f3:31:e8:a5:1b:59:8a:57:b4:83:e8:84:7f:4d:
        4e:a6:4d:d6:55:e9:ab:10:82:4c:99:df:4f:7b:73:fb:90:f1:
        e6:05:ed:55:ff:7e:0b:38:e5:66:46:e4:08:73:49:45:dc:04:
        4f:1e:1e:4b:83:92:04:6e:e4:e3:66:64:61:a1:a9:1d:ee:6f:
        69:8e:01:b3:fe:f3:4e:1f:d0:3e:31:fc:4f:32:07:19:7a:a2:
        e6:61:84:4b:5c:43:a2:23:68:e2:c2:6c:d5:37:d2:25:c7:46:
        9e:b0:24:54:23:9e:36:f2:8c:08:76:30:03:51:6b:c3:20:54:
        45:3f:66:a3:29:bb:64:dd:d0:18:fb:7e:3a:e2:d7:03:03:30:
        df:7a:f8:30:7b:0c:69:51:e8:ef:1d:4e:27:50:8c:71:8a:05:
        e1:39:31:af:46:58:8e:aa:5e:5a:a8:1e:4f:5e:7c:cf:ee:c6:
        07:97:2c:d3:ae:78:09:16:2a:09:dc:73:50:8e:62:9e:00:6b:
        8d:a8:7f:87:8e:61
-----BEGIN CERTIFICATE REQUEST-----
MIID6DCCAlACAQAwNTELMAkGA1UEBhMCRlIxEjAQBgNVBAoMCU5vZGVPUENVQTES
MBAGA1UEAwwJTm9kZU9QQ1VBMIIBojANBgkqhkiG9w0BAQEFAAOCAY8AMIIBigKC
AYEAk3CjfWVz9cPPh+R7Gza+wfZfuQK3CbBgO1UHXEy4MlIPLOZtjeFKhs7QvvOL
bzNLCOSTKYrFwDwHlClp9UkelrfphtvDCBH5jEOxc2Vq0KnSKcWHpG95UOCRWAyG
pjvwk/67fQFgZam5+vvljnoEcO1EzVe/p6lVk92dsElLW4bdBVJuPktxZKV8joaz
dpn17LgAgZhh9NBMEhQWkD8pJgXZOuMOjp/hz6KKhrYg1SovrctKp0YQmPSVxSWg
aYCtR1XRd8lZxr7H7KhK9JdmcnPL88ubOhzbOAOQ+A8vh7YBGvxdcbgzODzcd56T
XTRgL5adG09NPzV1TmkgyZuczB/bFbzOdONN7xKqxl+8cfKZA3+9385Gx8v0mu2K
EfCKixw7U4uGOTDGuc1x7xNqAFLNUi+y5aBKkJs/kvm9OD4mDQIN1M0FdJCS1cWm
XasORUaqTJjWylwnl48agqf90p1lIN9vWYu6hROW+DZdQql3bm8J/5XWK1KYXmeJ
YU5pAgMBAAGgbjBsBgkqhkiG9w0BCQ4xXzBdMAkGA1UdEwQCMAAwDgYDVR0PAQH/
BAQDAgEGMEAGA1UdEQQ5MDeGIXVybjplOTlkNTQ2NmY3YmI6Tm9kZU9QQ1VBLUNs
aWVudIIMZTk5ZDU0NjZmN2JihwR/AAABMA0GCSqGSIb3DQEBCwUAA4IBgQAm6Qg6
xtb5094Xv4Sh8DM8vkH0GDpaJqZlqq+aEmDALi4RyjzVrMYY3aNQ4ZOLKdHnDItN
L5mP1VQhH5SdRRf8YarDYE+Wmvz2IlLah9Ve7prmFcU5VNP7QGFS9A9HdFD+FSMm
QYE8cCD8Zc6qFQOraUGEFs3yikfZnccOhHZ57Q82bjfZnmf1gh5nKBTyPsUiKA/S
NDvltRomieYtHDh05VBF0JRszhMBHv7kqTIDxdK7Cu6ZOOcX8zHopRtZile0g+iE
f01Opk3WVemrEIJMmd9Pe3P7kPHmBe1V/34LOOVmRuQIc0lF3ARPHh5Lg5IEbuTj
ZmRhoakd7m9pjgGz/vNOH9A+MfxPMgcZeqLmYYRLXEOiI2jiwmzVN9Ilx0aesCRU
I5428owIdjADUWvDIFRFP2ajKbtk3dAY+3464tcDAzDfevgwewxpUejvHU4nUIxx
igXhOTGvRliOql5aqB5PXnzP7sYHlyzTrngJFioJ3HNQjmKeAGuNqH+HjmE=
-----END CERTIFICATE REQUEST-----
