Certificate Request:
    Data:
        Version: 1 (0x0)
        Subject: C = FR, O = NodeOPCUA, CN = NodeOPCUA
        Subject Public Key Info:
            Public Key Algorithm: rsaEncryption
                Public-Key: (4096 bit)
                Modulus:
                    00:b1:7d:65:d1:6e:98:76:ac:65:7c:92:4d:7d:3d:
                    06:5a:3d:87:15:c6:e0:a9:a7:0e:40:6f:82:ed:39:
                    5f:8a:15:ef:17:7f:19:ac:ff:9d:43:2c:dc:e7:02:
                    fd:03:ce:fa:82:ad:fb:1a:c0:cf:b4:5d:45:4c:84:
                    19:69:0a:4e:9d:03:78:12:4f:20:eb:6b:6e:86:c5:
                    59:0a:e5:6b:64:26:f5:ab:6f:b0:1c:b4:ef:3b:8d:
                    82:cb:36:3e:1d:6e:d4:1f:54:f2:26:05:ff:fa:4a:
                    1b:01:4d:52:79:a0:e6:e5:bb:36:07:d7:f6:8a:bc:
                    2e:79:99:46:27:f5:a7:51:cc:5c:d8:43:ee:a7:e8:
                    1d:23:55:54:be:52:e6:55:9c:1c:c9:b6:c4:8d:28:
                    1d:21:af:d7:41:6e:45:d2:22:c7:3a:6c:97:c9:e6:
                    f1:1b:5d:13:c9:ea:f6:78:91:2e:17:60:46:d6:af:
                    20:f3:66:47:66:62:c5:7b:d9:bc:9e:54:81:93:7a:
                    ac:ed:06:ea:39:ff:61:84:e0:cc:75:47:81:d7:e0:
                    d8:ba:49:f4:d7:d5:cc:14:43:29:0b:43:6a:c6:f8:
                    ec:aa:4a:3d:a2:97:6e:58:f5:af:92:cf:54:6f:c6:
                    d1:b1:62:20:c0:62:ce:a7:19:d8:be:60:b8:98:e8:
                    2b:7a:8e:2b:85:4a:7d:fb:ec:c2:18:06:f2:1c:cd:
                    f2:d5:4b:21:9b:61:ae:94:f1:4f:9c:ca:da:3a:75:
                    f0:8a:c8:bc:65:9f:fb:4f:cf:78:05:5e:0b:3e:3b:
                    92:ac:9e:c2:d9:ba:fa:e2:2f:98:61:30:fc:fa:0f:
                    7c:95:7f:43:f8:06:9f:d7:e9:07:ba:9d:20:ce:ef:
                    10:aa:f9:03:ba:91:aa:a7:c2:6c:da:b8:6e:c4:41:
                    83:14:a3:98:45:8c:1b:04:0e:29:7d:11:91:54:a0:
                    1a:29:93:a7:7b:df:6b:41:cd:04:c6:d6:bd:81:73:
                    26:d7:94:51:41:7d:d5:4c:7c:e3:30:c1:11:24:83:
                    54:15:51:b0:e4:1d:1a:93:06:6d:c9:f1:c7:10:61:
                    4c:d4:d3:05:bf:0d:b9:ba:06:52:fe:45:55:05:d6:
                    60:23:1a:0c:d8:a3:d1:c2:dd:5a:68:4a:6c:a2:ca:
                    a6:3e:1c:52:cd:8d:9a:38:5f:64:e6:46:94:f1:a1:
                    79:c8:72:f6:8f:2c:32:3a:b4:78:b6:9d:ee:95:45:
                    ee:ee:8e:b6:d1:1e:d7:19:b5:ba:6c:64:7a:1d:89:
                    02:3b:5a:4a:f3:bf:a0:fb:ba:ee:fa:64:97:bf:07:
                    cc:13:0b:67:c1:53:3b:44:86:54:73:32:f9:61:a3:
                    77:99:59
                Exponent: 65537 (0x10001)
        Attributes:
            Requested Extensions:
                X509v3 Basic Constraints: 
                    CA:FALSE
                X509v3 Key Usage: critical
                    Certificate Sign, CRL Sign
                X509v3 Subject Alternative Name: 
                    URI:urn:e99d5466f7bb:NodeOPCUA-ClientRevoked, DNS:e99d5466f7bb, IP Address:127.0.0.1
    Signature Algorithm: sha256WithRSAEncryption
    Signature Value:
        57:c5:e7:cb:9a:ed:7f:08:df:ac:53:8d:a6:1b:b5:f6:77:5d:
        f2:48:e5:40:b2:0c:35:8f:cc:ac:51:9a:b6:b0:b3:35:f2:6c:
        f9:fb:10:3c:b6:78:95:b9:6e:c9:ef:96:00:08:11:79:a0:3b:
        c3:e9:c4:17:97:ff:c3:7a:00:89:36:52:7d:8c:ae:9c:8a:7c:
        7c:b6:c5:6a:bf:ab:3b:57:07:17:ea:b6:40:b0:d2:6b:7c:f9:
        b3:22:eb:aa:b1:ff:47:80:7e:6e:69:5a:39:fe:b1:00:e0:c3:
        91:9b:f4:6b:65:d1:e0:55:e4:e0:fe:f1:3e:56:2a:c3:61:1f:
        4f:9f:93:bb:dd:50:8b:fa:6b:d1:06:bb:92:a3:ab:70:1b:c3:
        c3:91:c4:ac:91:aa:37:8e:0d:38:e2:01:33:ed:e4:0b:fe:0b:
        2a:a3:4d:a0:fe:6f:53:dd:e9:8c:ee:bb:0b:18:9a:de:b1:a4:
        5b:00:f9:3b:6a:a7:e6:ab:53:9b:5d:d3:53:ec:7e:c2:7e:3f:
        45:b3:77:f2:52:8b:45:fe:dc:c1:06:28:50:b3:9b:56:9a:3f:
        5d:86:b2:53:02:34:86:6c:7c:4e:92:69:07:cf:c8:09:4c:d4:
        94:93:19:b4:5a:f4:d3:00:4b:0c:07:b3:31:12:bf:d7:92:45:
        9d:ae:90:e0:bf:7d:33:1e:de:1c:5b:b2:40:6e:ef:71:4d:ed:
        61:c5:80:2d:2e:42:93:7f:53:69:0c:76:bf:97:56:30:0d:8e:
        70:8c:21:45:79:94:93:a7:b2:47:8e:67:19:31:bb:d0:c7:c6:
        2f:1e:8a:de:27:12:4f:95:57:24:34:2a:24:df:88:b4:ed:16:
        bb:01:05:bb:89:39:0f:29:ce:d1:16:ae:4e:80:fc:5c:b8:42:
        e6:2e:3b:82:5f:41:16:ce:f3:48:f1:31:98:34:96:c3:b2:3a:
        69:4e:94:8f:d8:8e:87:6a:ca:72:d5:ed:7c:c9:c0:ea:b2:3b:
        9f:11:0c:47:fd:36:81:17:ba:7c:63:03:e4:eb:11:27:37:61:
        b4:79:13:e1:87:ae:d5:26:28:e2:ea:cc:5f:62:75:5b:8d:44:
        b6:72:c4:25:df:cd:b1:b9:a5:a0:0c:32:ca:b0:ec:82:6d:29:
        6a:4f:77:f8:af:0f:1e:f7:5a:7c:44:7d:78:2f:6d:b7:28:3a:
        b8:5a:79:5a:bb:86:20:d1:6a:d4:23:6e:24:d5:85:e9:d8:75:
        5b:cd:0f:38:01:2c:80:04:f6:f9:99:31:89:f2:e3:9d:2f:a6:
        ed:36:a5:c0:5e:c0:71:95:33:14:e4:bb:97:cd:7e:21:53:47:
        fc:27:f3:33:73:25:8b:fd
-----BEGIN CERTIFICATE REQUEST-----
MIIE7zCCAtcCAQAwNTELMAkGA1UEBhMCRlIxEjAQBgNVBAoMCU5vZGVPUENVQTES
MBAGA1UEAwwJTm9kZU9QQ1VBMIICIjANBgkqhkiG9w0BAQEFAAOCAg8AMIICCgKC
AgEAsX1l0W6YdqxlfJJNfT0GWj2HFcbgqacOQG+C7TlfihXvF38ZrP+dQyzc5wL9
A876gq37GsDPtF1FTIQZaQpOnQN4Ek8g62tuhsVZCuVrZCb1q2+wHLTvO42CyzY+
HW7UH1TyJgX/+kobAU1SeaDm5bs2B9f2irwueZlGJ/WnUcxc2EPup+gdI1VUvlLm
VZwcybbEjSgdIa/XQW5F0iLHOmyXyebxG10Tyer2eJEuF2BG1q8g82ZHZmLFe9m8
nlSBk3qs7QbqOf9hhODMdUeB1+DYukn019XMFEMpC0Nqxvjsqko9opduWPWvks9U
b8bRsWIgwGLOpxnYvmC4mOgreo4rhUp9++zCGAbyHM3y1Ushm2GulPFPnMraOnXw
isi8ZZ/7T894BV4LPjuSrJ7C2br64i+YYTD8+g98lX9D+Aaf1+kHup0gzu8QqvkD
upGqp8Js2rhuxEGDFKOYRYwbBA4pfRGRVKAaKZOne99rQc0Exta9gXMm15RRQX3V
THzjMMERJINUFVGw5B0akwZtyfHHEGFM1NMFvw25ugZS/kVVBdZgIxoM2KPRwt1a
aEpsosqmPhxSzY2aOF9k5kaU8aF5yHL2jywyOrR4tp3ulUXu7o620R7XGbW6bGR6
HYkCO1pK87+g+7ru+mSXvwfMEwtnwVM7RIZUczL5YaN3mVkCAwEAAaB1MHMGCSqG
SIb3DQEJDjFmMGQwCQYDVR0TBAIwADAOBgNVHQ8BAf8EBAMCAQYwRwYDVR0RBEAw
PoYodXJuOmU5OWQ1NDY2ZjdiYjpOb2RlT1BDVUEtQ2xpZW50UmV2b2tlZIIMZTk5
ZDU0NjZmN2JihwR/AAABMA0GCSqGSIb3DQEBCwUAA4ICAQBXxefLmu1/CN+sU42m
G7X2d13ySOVAsgw1j8ysUZq2sLM18mz5+xA8tniVuW7J75YACBF5oDvD6cQXl//D
egCJNlJ9jK6cinx8tsVqv6s7VwcX6rZAsNJrfPmzIuuqsf9HgH5uaVo5/rEA4MOR
m/RrZdHgVeTg/vE+VirDYR9Pn5O73VCL+mvRBruSo6twG8PDkcSskao3jg044gEz
7eQL/gsqo02g/m9T3emM7rsLGJresaRbAPk7aqfmq1ObXdNT7H7Cfj9Fs3fyUotF
/tzBBihQs5tWmj9dhrJTAjSGbHxOkmkHz8gJTNSUkxm0WvTTAEsMB7MxEr/XkkWd
rpDgv30zHt4cW7JAbu9xTe1hxYAtLkKTf1NpDHa/l1YwDY5wjCFFeZSTp7JHjmcZ
MbvQx8YvHoreJxJPlVckNCok34i07Ra7AQW7iTkPKc7RFq5OgPxcuELmLjuCX0EW
zvNI8TGYNJbDsjppTpSP2I6Haspy1e18ycDqsjufEQxH/TaBF7p8YwPk6xEnN2G0
eRPhh67VJiji6sxfYnVbjUS2csQl382xuaWgDDLKsOyCbSlqT3f4rw8e91p8RH14
L223KDq4Wnlau4Yg0WrUI24k1YXp2HVbzQ84ASyABPb5mTGJ8uOdL6btNqXAXsBx
lTMU5LuXzX4hU0f8J/MzcyWL/Q==
-----END CERTIFICATE REQUEST-----
