Certificate Request:
    Data:
        Version: 1 (0x0)
        Subject: C = FR, O = NodeOPCUA, CN = NodeOPCUA
        Subject Public Key Info:
            Public Key Algorithm: rsaEncryption
                Public-Key: (1024 bit)
                Modulus:
                    00:dd:e0:76:1f:7e:d0:0b:6b:65:64:27:79:62:a8:
                    54:a2:fc:9f:49:3e:8f:4a:8d:1e:84:e7:64:ef:78:
                    6c:07:f4:84:da:f9:7a:a2:69:9b:47:0a:59:2c:03:
                    fa:bb:d2:e7:74:df:e9:f5:a2:d4:c8:fa:9e:fc:3a:
                    32:71:b3:0e:0f:29:bb:c4:a7:91:7a:db:6d:98:4f:
                    33:44:45:71:fe:ea:86:be:d6:10:1e:96:77:5b:58:
                    5d:78:15:46:e6:00:d4:53:47:55:7a:aa:d7:ff:dc:
                    88:50:71:e4:b2:21:2c:2e:62:4c:04:2d:fc:9d:75:
                    37:bc:4f:a9:c5:2a:25:e8:31
                Exponent: 65537 (0x10001)
        Attributes:
            Requested Extensions:
                X509v3 Basic Constraints: 
                    CA:FALSE
                X509v3 Key Usage: critical
                    Certificate Sign, CRL Sign
                X509v3 Subject Alternative Name: 
                    URI:urn:e99d5466f7bb:NodeOPCUA-ClientRevoked, DNS:e99d5466f7bb, IP Address:127.0.0.1
    Signature Algorithm: sha256WithRSAEncryption
    Signature Value:
        83:e0:dc:f7:31:33:7e:3f:6d:f1:14:60:42:56:60:61:fb:0d:
        4b:f3:3b:2a:55:a3:1b:93:56:92:45:a4:98:16:a5:83:d5:b2:
        38:39:ec:1b:1c:13:d5:5d:e2:c6:4c:60:5c:a8:45:9c:94:de:
        ff:86:cf:6a:5e:2c:9f:18:24:18:6f:e9:c3:70:60:42:5a:3a:
        2b:1f:8b:19:95:b2:4f:8e:30:dc:5a:23:b5:62:b8:79:43:da:
        a2:00:5c:91:7c:c3:d4:a8:54:10:bd:1c:00:bd:cb:bd:af:d1:
        3b:c0:6a:f1:31:7b:a1:fc:5c:6b:10:c2:88:93:01:cf:f8:a1:
        58:8b
-----BEGIN CERTIFICATE REQUEST-----
MIIB6jCCAVMCAQAwNTELMAkGA1UEBhMCRlIxEjAQBgNVBAoMCU5vZGVPUENVQTES
MBAGA1UEAwwJTm9kZU9QQ1VBMIGfMA0GCSqGSIb3DQEBAQUAA4GNADCBiQKBgQDd
4HYfftALa2VkJ3liqFSi/J9JPo9KjR6E52TveGwH9ITa+XqiaZtHClksA/q70ud0
3+n1otTI+p78OjJxsw4PKbvEp5F6222YTzNERXH+6oa+1hAelndbWF14FUbmANRT
R1V6qtf/3IhQceSyISwuYkwELfyddTe8T6nFKiXoMQIDAQABoHUwcwYJKoZIhvcN
AQkOMWYwZDAJBgNVHRMEAjAAMA4GA1UdDwEB/wQEAwIBBjBHBgNVHREEQDA+hih1
cm46ZTk5ZDU0NjZmN2JiOk5vZGVPUENVQS1DbGllbnRSZXZva2VkggxlOTlkNTQ2
NmY3YmKHBH8AAAEwDQYJKoZIhvcNAQELBQADgYEAg+Dc9zEzfj9t8RRgQlZgYfsN
S/M7KlWjG5NWkkWkmBalg9WyODnsGxwT1V3ixkxgXKhFnJTe/4bPal4snxgkGG/p
w3BgQlo6Kx+LGZWyT44w3FojtWK4eUPaogBckXzD1KhUEL0cAL3Lva/RO8Bq8TF7
ofxcaxDCiJMBz/ihWIs=
-----END CERTIFICATE REQUEST-----
