Certificate:
    Data:
        Version: 3 (0x2)
        Serial Number: 4102 (0x1006)
        Signature Algorithm: sha256WithRSAEncryption
        Issuer: O=NodeOPCUA, CN=NodeOPCUA
        Validity
            Not Before: Mar 19 02:38:47 2024 GMT
            Not After : Mar 19 02:38:47 2025 GMT
        Subject: O=NodeOPCUA, CN=NodeOPCUA
        Subject Public Key Info:
            Public Key Algorithm: rsaEncryption
                Public-Key: (2048 bit)
                Modulus:
                    00:b1:70:03:c9:82:b1:db:f4:fb:4d:36:ce:c6:5e:
                    1b:72:87:74:bd:06:ec:3d:27:bc:84:e4:fc:eb:5d:
                    71:4b:82:1c:8b:d3:bb:27:4d:6e:96:ab:8d:10:34:
                    53:3d:28:a0:67:f7:43:d0:94:f2:54:12:f1:71:1d:
                    68:e8:99:ab:30:c6:0f:4b:17:12:09:71:cd:3b:66:
                    5c:d7:4a:4b:2e:1d:de:84:51:3d:65:19:18:4a:a7:
                    73:5d:f0:b1:20:9e:6d:0e:76:38:1e:28:0a:c3:32:
                    d5:95:46:83:03:83:55:fe:ab:f1:b3:9c:9f:bd:99:
                    1e:37:93:c1:c1:12:bb:cf:45:1e:44:07:0d:cb:83:
                    11:40:93:e4:4b:97:33:b6:17:a9:8c:aa:70:a6:1f:
                    6b:11:70:03:22:f2:41:09:0d:e6:a0:26:94:15:4b:
                    79:f1:50:56:a1:b0:b0:23:9b:7f:13:13:f4:0f:55:
                    02:ac:4e:cb:12:cf:92:2e:7a:a8:82:b5:85:2f:82:
                    1e:fb:69:b7:98:fa:f1:89:0d:14:b5:1b:43:bf:c6:
                    2e:31:6f:a8:b4:52:24:f2:5c:96:fa:92:44:04:97:
                    2b:5b:92:b2:2b:4c:bb:56:97:2f:ec:e1:c7:62:7b:
                    04:88:9e:2b:95:42:78:3f:2a:d9:59:bf:60:e4:4d:
                    2d:e5
                Exponent: 65537 (0x10001)
        X509v3 extensions:
            X509v3 Basic Constraints: critical
                CA:FALSE
            X509v3 Subject Key Identifier: 
                AF:E6:00:89:A1:0F:6F:B1:05:E1:68:6E:6C:2D:CA:8C:1B:62:D2:55
            X509v3 Authority Key Identifier: 
                DirName:/O=NodeOPCUA/CN=NodeOPCUA
                serial:10:06
            X509v3 Subject Alternative Name: 
                URI:urn:e99d5466f7bb:NodeOPCUA-Client, DNS:e99d5466f7bb
            Netscape Comment: 
                OpenSSL Generated Certificate
            X509v3 Key Usage: critical
                Digital Signature, Non Repudiation, Key Encipherment, Data Encipherment, Key Agreement, Certificate Sign
            X509v3 Extended Key Usage: critical
                TLS Web Server Authentication, TLS Web Client Authentication
    Signature Algorithm: sha256WithRSAEncryption
    Signature Value:
        44:54:0b:89:f7:54:46:cc:36:cc:e9:ef:7c:15:99:51:80:0d:
        15:9d:c1:46:da:f9:00:06:cb:fa:2a:6b:08:45:e1:d6:74:75:
        e3:e5:0c:08:53:83:b9:9c:ed:83:3e:64:4e:f1:35:7e:13:73:
        8d:57:8c:d8:20:44:8a:02:bf:04:aa:c7:49:9d:e2:a0:4d:a9:
        58:c1:cc:b8:74:e7:cd:d0:9e:4f:1e:bb:d6:40:09:f8:16:b2:
        d1:aa:56:56:07:73:dc:22:d8:34:d1:cd:a2:dc:d7:b1:f6:2e:
        24:17:31:5c:74:fa:3e:de:aa:2e:c1:a8:c1:17:12:b7:f2:dd:
        0f:86:e8:29:48:b1:ca:66:b6:fb:05:cc:00:72:6d:4e:c5:ef:
        02:45:90:2f:a1:d5:75:a1:cc:e3:e3:3c:5a:f2:55:28:f8:52:
        86:f8:2f:88:43:47:ca:12:16:49:25:85:5e:4b:4f:71:9c:10:
        42:b0:65:c6:5d:94:b3:22:ab:bd:87:bd:7c:cb:41:f8:60:57:
        eb:bd:35:30:e7:0f:7c:97:6b:f3:87:c1:db:3d:6e:91:f3:28:
        10:a2:ad:88:0f:48:55:81:40:19:d2:e4:60:bf:9a:c1:c3:4c:
        36:17:78:8b:e9:44:7f:d4:cd:a8:32:ff:70:94:93:5d:96:f4:
        7e:86:6b:a3
-----BEGIN CERTIFICATE-----
MIID2DCCAsCgAwIBAgICEAYwDQYJKoZIhvcNAQELBQAwKDESMBAGA1UEChMJTm9k
ZU9QQ1VBMRIwEAYDVQQDEwlOb2RlT1BDVUEwHhcNMjQwMzE5MDIzODQ3WhcNMjUw
MzE5MDIzODQ3WjAoMRIwEAYDVQQKEwlOb2RlT1BDVUExEjAQBgNVBAMTCU5vZGVP
UENVQTCCASIwDQYJKoZIhvcNAQEBBQADggEPADCCAQoCggEBALFwA8mCsdv0+002
zsZeG3KHdL0G7D0nvITk/OtdcUuCHIvTuydNbparjRA0Uz0ooGf3Q9CU8lQS8XEd
aOiZqzDGD0sXEglxzTtmXNdKSy4d3oRRPWUZGEqnc13wsSCebQ52OB4oCsMy1ZVG
gwODVf6r8bOcn72ZHjeTwcESu89FHkQHDcuDEUCT5EuXM7YXqYyqcKYfaxFwAyLy
QQkN5qAmlBVLefFQVqGwsCObfxMT9A9VAqxOyxLPki56qIK1hS+CHvtpt5j68YkN
FLUbQ7/GLjFvqLRSJPJclvqSRASXK1uSsitMu1aXL+zhx2J7BIieK5VCeD8q2Vm/
YORNLeUCAwEAAaOCAQowggEGMAwGA1UdEwEB/wQCMAAwHQYDVR0OBBYEFK/mAImh
D2+xBeFobmwtyowbYtJVMDsGA1UdIwQ0MDKhLKQqMCgxEjAQBgNVBAoTCU5vZGVP
UENVQTESMBAGA1UEAxMJTm9kZU9QQ1VBggIQBjA6BgNVHREEMzAxhiF1cm46ZTk5
ZDU0NjZmN2JiOk5vZGVPUENVQS1DbGllbnSCDGU5OWQ1NDY2ZjdiYjAsBglghkgB
hvhCAQ0EHxYdT3BlblNTTCBHZW5lcmF0ZWQgQ2VydGlmaWNhdGUwDgYDVR0PAQH/
BAQDAgL8MCAGA1UdJQEB/wQWMBQGCCsGAQUFBwMBBggrBgEFBQcDAjANBgkqhkiG
9w0BAQsFAAOCAQEARFQLifdURsw2zOnvfBWZUYANFZ3BRtr5AAbL+iprCEXh1nR1
4+UMCFODuZztgz5kTvE1fhNzjVeM2CBEigK/BKrHSZ3ioE2pWMHMuHTnzdCeTx67
1kAJ+Bay0apWVgdz3CLYNNHNotzXsfYuJBcxXHT6Pt6qLsGowRcSt/LdD4boKUix
yma2+wXMAHJtTsXvAkWQL6HVdaHM4+M8WvJVKPhShvgviENHyhIWSSWFXktPcZwQ
QrBlxl2UsyKrvYe9fMtB+GBX6701MOcPfJdr84fB2z1ukfMoEKKtiA9IVYFAGdLk
YL+awcNMNhd4i+lEf9TNqDL/cJSTXZb0foZrow==
-----END CERTIFICATE-----
