Certificate Request:
    Data:
        Version: 1 (0x0)
        Subject: C = FR, O = NodeOPCUA, CN = NodeOPCUA
        Subject Public Key Info:
            Public Key Algorithm: rsaEncryption
                Public-Key: (2048 bit)
                Modulus:
                    00:b1:70:03:c9:82:b1:db:f4:fb:4d:36:ce:c6:5e:
                    1b:72:87:74:bd:06:ec:3d:27:bc:84:e4:fc:eb:5d:
                    71:4b:82:1c:8b:d3:bb:27:4d:6e:96:ab:8d:10:34:
                    53:3d:28:a0:67:f7:43:d0:94:f2:54:12:f1:71:1d:
                    68:e8:99:ab:30:c6:0f:4b:17:12:09:71:cd:3b:66:
                    5c:d7:4a:4b:2e:1d:de:84:51:3d:65:19:18:4a:a7:
                    73:5d:f0:b1:20:9e:6d:0e:76:38:1e:28:0a:c3:32:
                    d5:95:46:83:03:83:55:fe:ab:f1:b3:9c:9f:bd:99:
                    1e:37:93:c1:c1:12:bb:cf:45:1e:44:07:0d:cb:83:
                    11:40:93:e4:4b:97:33:b6:17:a9:8c:aa:70:a6:1f:
                    6b:11:70:03:22:f2:41:09:0d:e6:a0:26:94:15:4b:
                    79:f1:50:56:a1:b0:b0:23:9b:7f:13:13:f4:0f:55:
                    02:ac:4e:cb:12:cf:92:2e:7a:a8:82:b5:85:2f:82:
                    1e:fb:69:b7:98:fa:f1:89:0d:14:b5:1b:43:bf:c6:
                    2e:31:6f:a8:b4:52:24:f2:5c:96:fa:92:44:04:97:
                    2b:5b:92:b2:2b:4c:bb:56:97:2f:ec:e1:c7:62:7b:
                    04:88:9e:2b:95:42:78:3f:2a:d9:59:bf:60:e4:4d:
                    2d:e5
                Exponent: 65537 (0x10001)
        Attributes:
            Requested Extensions:
                X509v3 Basic Constraints: 
                    CA:FALSE
                X509v3 Key Usage: critical
                    Certificate Sign, CRL Sign
                X509v3 Subject Alternative Name: 
                    URI:urn:e99d5466f7bb:NodeOPCUA-Client, DNS:e99d5466f7bb, IP Address:127.0.0.1
    Signature Algorithm: sha256WithRSAEncryption
    Signature Value:
        3c:fa:fa:9b:fe:4d:2b:9b:3c:21:ae:a6:c6:38:99:ea:fd:5f:
        4b:2a:db:48:3b:a1:4a:e5:14:55:e5:36:f4:6a:05:ac:11:fc:
        f3:62:d2:e1:69:1a:86:cc:69:ab:33:c5:5a:3f:e4:38:5d:f5:
        bc:7a:d2:12:5b:fc:ac:4b:d5:4f:10:66:56:16:7b:dd:95:53:
        ce:df:b1:92:83:95:9c:0c:36:ad:d0:70:02:c8:e8:18:5c:54:
        00:83:a3:e0:ee:46:50:39:a1:31:e9:03:2d:9e:d4:46:48:65:
        c0:79:92:73:8b:27:e3:0b:bf:aa:c1:15:f8:27:49:31:c1:b6:
        a3:ec:7c:6c:cd:d8:72:ca:f6:b3:45:d9:aa:69:6f:40:37:d2:
        d5:5c:bb:78:21:72:b9:05:1c:5a:b0:ee:e1:6a:76:90:ee:53:
        57:f8:4f:01:e5:18:f7:22:be:a9:59:8e:62:ba:35:e8:bc:2b:
        e1:fd:62:2c:e9:90:1d:86:7a:03:99:c5:c9:78:f0:c5:ea:e0:
        c9:f3:6e:e7:ee:76:f3:86:4a:fd:d9:4e:a6:dd:ef:99:e7:eb:
        c9:9d:36:09:36:06:ad:75:e0:2a:2b:ab:d1:e6:ad:34:69:29:
        b4:ab:df:94:3e:ee:ea:ff:7c:c3:d3:95:73:c0:1e:53:3a:4f:
        31:7e:18:67
-----BEGIN CERTIFICATE REQUEST-----
MIIC6DCCAdACAQAwNTELMAkGA1UEBhMCRlIxEjAQBgNVBAoMCU5vZGVPUENVQTES
MBAGA1UEAwwJTm9kZU9QQ1VBMIIBIjANBgkqhkiG9w0BAQEFAAOCAQ8AMIIBCgKC
AQEAsXADyYKx2/T7TTbOxl4bcod0vQbsPSe8hOT8611xS4Ici9O7J01ulquNEDRT
PSigZ/dD0JTyVBLxcR1o6JmrMMYPSxcSCXHNO2Zc10pLLh3ehFE9ZRkYSqdzXfCx
IJ5tDnY4HigKwzLVlUaDA4NV/qvxs5yfvZkeN5PBwRK7z0UeRAcNy4MRQJPkS5cz
thepjKpwph9rEXADIvJBCQ3moCaUFUt58VBWobCwI5t/ExP0D1UCrE7LEs+SLnqo
grWFL4Ie+2m3mPrxiQ0UtRtDv8YuMW+otFIk8lyW+pJEBJcrW5KyK0y7Vpcv7OHH
YnsEiJ4rlUJ4PyrZWb9g5E0t5QIDAQABoG4wbAYJKoZIhvcNAQkOMV8wXTAJBgNV
HRMEAjAAMA4GA1UdDwEB/wQEAwIBBjBABgNVHREEOTA3hiF1cm46ZTk5ZDU0NjZm
N2JiOk5vZGVPUENVQS1DbGllbnSCDGU5OWQ1NDY2ZjdiYocEfwAAATANBgkqhkiG
9w0BAQsFAAOCAQEAPPr6m/5NK5s8Ia6mxjiZ6v1fSyrbSDuhSuUUVeU29GoFrBH8
82LS4WkahsxpqzPFWj/kOF31vHrSElv8rEvVTxBmVhZ73ZVTzt+xkoOVnAw2rdBw
AsjoGFxUAIOj4O5GUDmhMekDLZ7URkhlwHmSc4sn4wu/qsEV+CdJMcG2o+x8bM3Y
csr2s0XZqmlvQDfS1Vy7eCFyuQUcWrDu4Wp2kO5TV/hPAeUY9yK+qVmOYro16Lwr
4f1iLOmQHYZ6A5nFyXjwxergyfNu5+5284ZK/dlOpt3vmefryZ02CTYGrXXgKiur
0eatNGkptKvflD7u6v98w9OVc8AeUzpPMX4YZw==
-----END CERTIFICATE REQUEST-----
