Certificate:
    Data:
        Version: 3 (0x2)
        Serial Number: 4112 (0x1010)
        Signature Algorithm: sha256WithRSAEncryption
        Issuer: O=NodeOPCUA, CN=NodeOPCUA
        Validity
            Not Before: Mar 19 02:38:47 2024 GMT
            Not After : Mar 19 02:38:47 2025 GMT
        Subject: O=NodeOPCUA, CN=NodeOPCUA
        Subject Public Key Info:
            Public Key Algorithm: rsaEncryption
                Public-Key: (4096 bit)
                Modulus:
                    00:b1:7d:65:d1:6e:98:76:ac:65:7c:92:4d:7d:3d:
                    06:5a:3d:87:15:c6:e0:a9:a7:0e:40:6f:82:ed:39:
                    5f:8a:15:ef:17:7f:19:ac:ff:9d:43:2c:dc:e7:02:
                    fd:03:ce:fa:82:ad:fb:1a:c0:cf:b4:5d:45:4c:84:
                    19:69:0a:4e:9d:03:78:12:4f:20:eb:6b:6e:86:c5:
                    59:0a:e5:6b:64:26:f5:ab:6f:b0:1c:b4:ef:3b:8d:
                    82:cb:36:3e:1d:6e:d4:1f:54:f2:26:05:ff:fa:4a:
                    1b:01:4d:52:79:a0:e6:e5:bb:36:07:d7:f6:8a:bc:
                    2e:79:99:46:27:f5:a7:51:cc:5c:d8:43:ee:a7:e8:
                    1d:23:55:54:be:52:e6:55:9c:1c:c9:b6:c4:8d:28:
                    1d:21:af:d7:41:6e:45:d2:22:c7:3a:6c:97:c9:e6:
                    f1:1b:5d:13:c9:ea:f6:78:91:2e:17:60:46:d6:af:
                    20:f3:66:47:66:62:c5:7b:d9:bc:9e:54:81:93:7a:
                    ac:ed:06:ea:39:ff:61:84:e0:cc:75:47:81:d7:e0:
                    d8:ba:49:f4:d7:d5:cc:14:43:29:0b:43:6a:c6:f8:
                    ec:aa:4a:3d:a2:97:6e:58:f5:af:92:cf:54:6f:c6:
                    d1:b1:62:20:c0:62:ce:a7:19:d8:be:60:b8:98:e8:
                    2b:7a:8e:2b:85:4a:7d:fb:ec:c2:18:06:f2:1c:cd:
                    f2:d5:4b:21:9b:61:ae:94:f1:4f:9c:ca:da:3a:75:
                    f0:8a:c8:bc:65:9f:fb:4f:cf:78:05:5e:0b:3e:3b:
                    92:ac:9e:c2:d9:ba:fa:e2:2f:98:61:30:fc:fa:0f:
                    7c:95:7f:43:f8:06:9f:d7:e9:07:ba:9d:20:ce:ef:
                    10:aa:f9:03:ba:91:aa:a7:c2:6c:da:b8:6e:c4:41:
                    83:14:a3:98:45:8c:1b:04:0e:29:7d:11:91:54:a0:
                    1a:29:93:a7:7b:df:6b:41:cd:04:c6:d6:bd:81:73:
                    26:d7:94:51:41:7d:d5:4c:7c:e3:30:c1:11:24:83:
                    54:15:51:b0:e4:1d:1a:93:06:6d:c9:f1:c7:10:61:
                    4c:d4:d3:05:bf:0d:b9:ba:06:52:fe:45:55:05:d6:
                    60:23:1a:0c:d8:a3:d1:c2:dd:5a:68:4a:6c:a2:ca:
                    a6:3e:1c:52:cd:8d:9a:38:5f:64:e6:46:94:f1:a1:
                    79:c8:72:f6:8f:2c:32:3a:b4:78:b6:9d:ee:95:45:
                    ee:ee:8e:b6:d1:1e:d7:19:b5:ba:6c:64:7a:1d:89:
                    02:3b:5a:4a:f3:bf:a0:fb:ba:ee:fa:64:97:bf:07:
                    cc:13:0b:67:c1:53:3b:44:86:54:73:32:f9:61:a3:
                    77:99:59
                Exponent: 65537 (0x10001)
        X509v3 extensions:
            X509v3 Basic Constraints: critical
                CA:FALSE
            X509v3 Subject Key Identifier: 
                14:EC:00:EC:60:84:45:5F:A1:16:A1:C4:6B:3D:AD:82:9E:47:4D:0D
            X509v3 Authority Key Identifier: 
                DirName:/O=NodeOPCUA/CN=NodeOPCUA
                serial:10:10
            X509v3 Subject Alternative Name: 
                URI:urn:e99d5466f7bb:NodeOPCUA-Client, DNS:e99d5466f7bb
            Netscape Comment: 
                OpenSSL Generated Certificate
            X509v3 Key Usage: critical
                Digital Signature, Non Repudiation, Key Encipherment, Data Encipherment, Key Agreement, Certificate Sign
            X509v3 Extended Key Usage: critical
                TLS Web Server Authentication, TLS Web Client Authentication
    Signature Algorithm: sha256WithRSAEncryption
    Signature Value:
        0f:b9:f5:bc:89:7d:46:7d:06:72:0d:9e:32:f6:11:2b:9b:e8:
        11:6a:1d:23:6e:48:34:2e:74:f7:88:fc:61:a5:10:80:21:29:
        8b:4a:80:25:da:b5:ed:f3:6a:cd:2f:6f:86:87:60:b7:5e:97:
        76:b9:d1:b2:9d:d1:38:63:ef:df:cf:5c:d9:d2:01:e7:27:60:
        39:aa:f1:0c:1a:98:1b:a7:bf:56:a0:78:b0:8d:26:b6:be:2a:
        38:d1:17:22:69:7c:da:52:93:44:22:68:1e:ca:59:bf:9d:40:
        dc:9b:43:69:25:7e:3f:b9:83:5c:5e:97:42:6e:5c:59:6c:23:
        a2:ae:97:b7:2b:4c:25:bd:a9:13:6e:32:e0:8c:a0:0a:f7:fb:
        28:48:a6:48:06:51:7e:69:94:30:11:33:40:aa:25:ed:f6:cb:
        b5:d5:ab:44:93:75:4c:f9:1a:37:3c:4b:4a:a8:92:31:29:5d:
        be:f8:98:dd:99:b7:7d:e2:c1:fc:ef:b7:62:ea:8c:37:f6:28:
        4d:9e:75:a8:20:4a:d9:70:44:98:13:f4:a2:59:23:7b:91:47:
        96:9b:13:96:3a:99:70:a6:9d:72:17:f3:d4:57:35:ac:1d:87:
        56:03:24:d2:c5:7b:76:b5:ca:7b:00:df:ca:60:31:06:e2:f2:
        56:83:57:a8:b9:74:33:8b:c3:72:c3:8d:6b:ff:08:7f:02:04:
        b0:e8:74:57:be:4a:9e:70:ee:2f:e9:5d:56:9c:63:ba:c5:54:
        a4:89:c7:94:92:61:7f:93:f0:95:3e:d5:1d:ef:67:14:96:d5:
        f6:ca:94:ca:e6:67:36:4e:37:39:25:c8:cb:ed:fb:f0:09:93:
        cd:19:6e:b2:37:71:94:ff:74:d6:ee:a6:1f:0a:cf:72:54:a6:
        0e:4f:da:ec:95:83:e7:ac:d2:e0:da:24:5b:ec:d7:2c:b2:c0:
        a9:c7:90:63:8d:20:39:f8:b1:40:0e:a0:14:84:85:29:4c:53:
        80:d1:84:b5:bf:7a:65:c8:ac:a1:b8:dd:da:87:aa:12:0b:28:
        4a:3a:5c:f4:20:9a:12:2a:9d:c2:9d:c2:27:d6:55:ee:38:b9:
        2b:88:cb:ef:1a:1c:e9:e6:8c:77:84:3e:b9:d7:87:54:e5:56:
        97:ca:3d:cf:7a:cc:da:b9:a6:85:bd:f1:63:9a:9f:b5:6f:bb:
        dd:b5:e2:b7:24:c8:b4:02:57:91:7d:c6:92:9f:25:5c:df:a2:
        ec:61:98:52:05:90:37:73:5b:62:59:ed:ff:a1:11:7b:f7:d0:
        c2:8f:66:23:4f:cc:fc:93:73:19:83:dc:ad:45:dc:24:11:50:
        08:40:7a:96:c9:77:b3:03
-----BEGIN CERTIFICATE-----
MIIF2DCCA8CgAwIBAgICEBAwDQYJKoZIhvcNAQELBQAwKDESMBAGA1UEChMJTm9k
ZU9QQ1VBMRIwEAYDVQQDEwlOb2RlT1BDVUEwHhcNMjQwMzE5MDIzODQ3WhcNMjUw
MzE5MDIzODQ3WjAoMRIwEAYDVQQKEwlOb2RlT1BDVUExEjAQBgNVBAMTCU5vZGVP
UENVQTCCAiIwDQYJKoZIhvcNAQEBBQADggIPADCCAgoCggIBALF9ZdFumHasZXyS
TX09Blo9hxXG4KmnDkBvgu05X4oV7xd/Gaz/nUMs3OcC/QPO+oKt+xrAz7RdRUyE
GWkKTp0DeBJPIOtrbobFWQrla2Qm9atvsBy07zuNgss2Ph1u1B9U8iYF//pKGwFN
Unmg5uW7NgfX9oq8LnmZRif1p1HMXNhD7qfoHSNVVL5S5lWcHMm2xI0oHSGv10Fu
RdIixzpsl8nm8RtdE8nq9niRLhdgRtavIPNmR2ZixXvZvJ5UgZN6rO0G6jn/YYTg
zHVHgdfg2LpJ9NfVzBRDKQtDasb47KpKPaKXblj1r5LPVG/G0bFiIMBizqcZ2L5g
uJjoK3qOK4VKffvswhgG8hzN8tVLIZthrpTxT5zK2jp18IrIvGWf+0/PeAVeCz47
kqyewtm6+uIvmGEw/PoPfJV/Q/gGn9fpB7qdIM7vEKr5A7qRqqfCbNq4bsRBgxSj
mEWMGwQOKX0RkVSgGimTp3vfa0HNBMbWvYFzJteUUUF91Ux84zDBESSDVBVRsOQd
GpMGbcnxxxBhTNTTBb8NuboGUv5FVQXWYCMaDNij0cLdWmhKbKLKpj4cUs2Nmjhf
ZOZGlPGhechy9o8sMjq0eLad7pVF7u6OttEe1xm1umxkeh2JAjtaSvO/oPu67vpk
l78HzBMLZ8FTO0SGVHMy+WGjd5lZAgMBAAGjggEKMIIBBjAMBgNVHRMBAf8EAjAA
MB0GA1UdDgQWBBQU7ADsYIRFX6EWocRrPa2CnkdNDTA7BgNVHSMENDAyoSykKjAo
MRIwEAYDVQQKEwlOb2RlT1BDVUExEjAQBgNVBAMTCU5vZGVPUENVQYICEBAwOgYD
VR0RBDMwMYYhdXJuOmU5OWQ1NDY2ZjdiYjpOb2RlT1BDVUEtQ2xpZW50ggxlOTlk
NTQ2NmY3YmIwLAYJYIZIAYb4QgENBB8WHU9wZW5TU0wgR2VuZXJhdGVkIENlcnRp
ZmljYXRlMA4GA1UdDwEB/wQEAwIC/DAgBgNVHSUBAf8EFjAUBggrBgEFBQcDAQYI
KwYBBQUHAwIwDQYJKoZIhvcNAQELBQADggIBAA+59byJfUZ9BnINnjL2ESub6BFq
HSNuSDQudPeI/GGlEIAhKYtKgCXate3zas0vb4aHYLdel3a50bKd0Thj79/PXNnS
AecnYDmq8QwamBunv1ageLCNJra+KjjRFyJpfNpSk0QiaB7KWb+dQNybQ2klfj+5
g1xel0JuXFlsI6Kul7crTCW9qRNuMuCMoAr3+yhIpkgGUX5plDARM0CqJe32y7XV
q0STdUz5Gjc8S0qokjEpXb74mN2Zt33iwfzvt2LqjDf2KE2edaggStlwRJgT9KJZ
I3uRR5abE5Y6mXCmnXIX89RXNawdh1YDJNLFe3a1ynsA38pgMQbi8laDV6i5dDOL
w3LDjWv/CH8CBLDodFe+Sp5w7i/pXVacY7rFVKSJx5SSYX+T8JU+1R3vZxSW1fbK
lMrmZzZONzklyMvt+/AJk80ZbrI3cZT/dNbuph8Kz3JUpg5P2uyVg+es0uDaJFvs
1yyywKnHkGONIDn4sUAOoBSEhSlMU4DRhLW/emXIrKG43dqHqhILKEo6XPQgmhIq
ncKdwifWVe44uSuIy+8aHOnmjHeEPrnXh1TlVpfKPc96zNq5poW98WOan7Vvu921
4rckyLQCV5F9xpKfJVzfouxhmFIFkDdzW2JZ7f+hEXv30MKPZiNPzPyTcxmD3K1F
3CQRUAhAepbJd7MD
-----END CERTIFICATE-----
