Certificate Request:
    Data:
        Version: 1 (0x0)
        Subject: C = FR, O = NodeOPCUA, CN = NodeOPCUA
        Subject Public Key Info:
            Public Key Algorithm: rsaEncryption
                Public-Key: (3072 bit)
                Modulus:
                    00:93:70:a3:7d:65:73:f5:c3:cf:87:e4:7b:1b:36:
                    be:c1:f6:5f:b9:02:b7:09:b0:60:3b:55:07:5c:4c:
                    b8:32:52:0f:2c:e6:6d:8d:e1:4a:86:ce:d0:be:f3:
                    8b:6f:33:4b:08:e4:93:29:8a:c5:c0:3c:07:94:29:
                    69:f5:49:1e:96:b7:e9:86:db:c3:08:11:f9:8c:43:
                    b1:73:65:6a:d0:a9:d2:29:c5:87:a4:6f:79:50:e0:
                    91:58:0c:86:a6:3b:f0:93:fe:bb:7d:01:60:65:a9:
                    b9:fa:fb:e5:8e:7a:04:70:ed:44:cd:57:bf:a7:a9:
                    55:93:dd:9d:b0:49:4b:5b:86:dd:05:52:6e:3e:4b:
                    71:64:a5:7c:8e:86:b3:76:99:f5:ec:b8:00:81:98:
                    61:f4:d0:4c:12:14:16:90:3f:29:26:05:d9:3a:e3:
                    0e:8e:9f:e1:cf:a2:8a:86:b6:20:d5:2a:2f:ad:cb:
                    4a:a7:46:10:98:f4:95:c5:25:a0:69:80:ad:47:55:
                    d1:77:c9:59:c6:be:c7:ec:a8:4a:f4:97:66:72:73:
                    cb:f3:cb:9b:3a:1c:db:38:03:90:f8:0f:2f:87:b6:
                    01:1a:fc:5d:71:b8:33:38:3c:dc:77:9e:93:5d:34:
                    60:2f:96:9d:1b:4f:4d:3f:35:75:4e:69:20:c9:9b:
                    9c:cc:1f:db:15:bc:ce:74:e3:4d:ef:12:aa:c6:5f:
                    bc:71:f2:99:03:7f:bd:df:ce:46:c7:cb:f4:9a:ed:
                    8a:11:f0:8a:8b:1c:3b:53:8b:86:39:30:c6:b9:cd:
                    71:ef:13:6a:00:52:cd:52:2f:b2:e5:a0:4a:90:9b:
                    3f:92:f9:bd:38:3e:26:0d:02:0d:d4:cd:05:74:90:
                    92:d5:c5:a6:5d:ab:0e:45:46:aa:4c:98:d6:ca:5c:
                    27:97:8f:1a:82:a7:fd:d2:9d:65:20:df:6f:59:8b:
                    ba:85:13:96:f8:36:5d:42:a9:77:6e:6f:09:ff:95:
                    d6:2b:52:98:5e:67:89:61:4e:69
                Exponent: 65537 (0x10001)
        Attributes:
            Requested Extensions:
                X509v3 Basic Constraints: 
                    CA:FALSE
                X509v3 Key Usage: critical
                    Certificate Sign, CRL Sign
                X509v3 Subject Alternative Name: 
                    URI:urn:e99d5466f7bb:NodeOPCUA-ClientRevoked, DNS:e99d5466f7bb, IP Address:127.0.0.1
    Signature Algorithm: sha256WithRSAEncryption
    Signature Value:
        11:75:f6:7d:f1:47:d2:c7:8f:52:08:05:0c:44:04:28:a8:aa:
        9b:67:a9:43:2e:5b:67:93:87:d5:d8:6d:a4:9a:f7:01:7f:8d:
        fd:bc:84:26:b2:20:32:e1:e4:36:e8:82:3c:2c:99:2f:aa:59:
        0c:ad:bd:d6:94:46:a5:36:9f:23:ce:eb:7b:05:37:6b:10:a3:
        36:d8:09:f0:36:20:73:01:1e:7c:ef:83:69:e8:e1:5c:69:90:
        8a:62:bf:73:d5:55:b9:b4:fc:af:0b:14:4c:90:fa:88:9c:3b:
        2b:c9:54:bd:e1:86:f5:5e:e9:56:26:e2:40:19:12:7a:0c:d6:
        2b:b6:49:45:ed:0e:f6:cc:0f:76:9d:ac:05:ef:f2:78:12:ed:
        21:0d:16:38:2f:2e:b1:08:f5:d8:d4:48:df:12:cd:51:d8:b6:
        5e:21:93:db:38:f6:2b:11:27:0f:54:9f:dc:d0:9e:12:ba:88:
        a4:bf:93:3c:6d:db:48:5a:32:40:59:a3:34:65:38:85:ca:b9:
        01:da:0a:80:f8:37:47:00:32:f7:24:e6:04:38:ac:3f:39:26:
        7d:61:f2:34:ae:58:2d:d1:c8:87:ae:8e:e0:70:93:9f:cb:7d:
        a5:c6:f3:c3:6a:04:b6:84:1d:ab:01:22:60:bc:9f:82:fc:91:
        89:f7:6c:b0:5b:47:fc:21:e0:6c:c3:ec:10:66:f8:13:6a:59:
        c5:3e:98:19:d8:57:08:2b:5e:57:61:7a:26:8e:22:6a:de:9b:
        bd:96:57:8f:aa:28:e4:c5:c3:42:c5:23:0a:00:9a:7c:47:f6:
        9b:d7:74:a7:92:0d:d2:b8:23:42:1b:71:28:14:26:12:04:3b:
        f8:84:b9:6d:20:0f:ba:7e:e6:7b:39:06:21:1c:b1:93:d1:bf:
        99:22:97:79:60:d6:0f:e1:0a:92:94:9d:91:08:1e:3e:cc:57:
        70:fd:2f:8c:98:8b:c3:fc:26:6a:83:a7:59:c9:b4:62:39:25:
        c1:12:8b:e0:e0:75
-----BEGIN CERTIFICATE REQUEST-----
MIID7zCCAlcCAQAwNTELMAkGA1UEBhMCRlIxEjAQBgNVBAoMCU5vZGVPUENVQTES
MBAGA1UEAwwJTm9kZU9QQ1VBMIIBojANBgkqhkiG9w0BAQEFAAOCAY8AMIIBigKC
AYEAk3CjfWVz9cPPh+R7Gza+wfZfuQK3CbBgO1UHXEy4MlIPLOZtjeFKhs7QvvOL
bzNLCOSTKYrFwDwHlClp9UkelrfphtvDCBH5jEOxc2Vq0KnSKcWHpG95UOCRWAyG
pjvwk/67fQFgZam5+vvljnoEcO1EzVe/p6lVk92dsElLW4bdBVJuPktxZKV8joaz
dpn17LgAgZhh9NBMEhQWkD8pJgXZOuMOjp/hz6KKhrYg1SovrctKp0YQmPSVxSWg
aYCtR1XRd8lZxr7H7KhK9JdmcnPL88ubOhzbOAOQ+A8vh7YBGvxdcbgzODzcd56T
XTRgL5adG09NPzV1TmkgyZuczB/bFbzOdONN7xKqxl+8cfKZA3+9385Gx8v0mu2K
EfCKixw7U4uGOTDGuc1x7xNqAFLNUi+y5aBKkJs/kvm9OD4mDQIN1M0FdJCS1cWm
XasORUaqTJjWylwnl48agqf90p1lIN9vWYu6hROW+DZdQql3bm8J/5XWK1KYXmeJ
YU5pAgMBAAGgdTBzBgkqhkiG9w0BCQ4xZjBkMAkGA1UdEwQCMAAwDgYDVR0PAQH/
BAQDAgEGMEcGA1UdEQRAMD6GKHVybjplOTlkNTQ2NmY3YmI6Tm9kZU9QQ1VBLUNs
aWVudFJldm9rZWSCDGU5OWQ1NDY2ZjdiYocEfwAAATANBgkqhkiG9w0BAQsFAAOC
AYEAEXX2ffFH0sePUggFDEQEKKiqm2epQy5bZ5OH1dhtpJr3AX+N/byEJrIgMuHk
NuiCPCyZL6pZDK291pRGpTafI87rewU3axCjNtgJ8DYgcwEefO+DaejhXGmQimK/
c9VVubT8rwsUTJD6iJw7K8lUveGG9V7pVibiQBkSegzWK7ZJRe0O9swPdp2sBe/y
eBLtIQ0WOC8usQj12NRI3xLNUdi2XiGT2zj2KxEnD1Sf3NCeErqIpL+TPG3bSFoy
QFmjNGU4hcq5AdoKgPg3RwAy9yTmBDisPzkmfWHyNK5YLdHIh66O4HCTn8t9pcbz
w2oEtoQdqwEiYLyfgvyRifdssFtH/CHgbMPsEGb4E2pZxT6YGdhXCCteV2F6Jo4i
at6bvZZXj6oo5MXDQsUjCgCafEf2m9d0p5IN0rgjQhtxKBQmEgQ7+IS5bSAPun7m
ezkGIRyxk9G/mSKXeWDWD+EKkpSdkQgePsxXcP0vjJiLw/wmaoOnWcm0YjklwRKL
4OB1
-----END CERTIFICATE REQUEST-----
