Certificate Request:
    Data:
        Version: 1 (0x0)
        Subject: C = FR, O = NodeOPCUA, CN = NodeOPCUA
        Subject Public Key Info:
            Public Key Algorithm: rsaEncryption
                Public-Key: (4096 bit)
                Modulus:
                    00:b1:7d:65:d1:6e:98:76:ac:65:7c:92:4d:7d:3d:
                    06:5a:3d:87:15:c6:e0:a9:a7:0e:40:6f:82:ed:39:
                    5f:8a:15:ef:17:7f:19:ac:ff:9d:43:2c:dc:e7:02:
                    fd:03:ce:fa:82:ad:fb:1a:c0:cf:b4:5d:45:4c:84:
                    19:69:0a:4e:9d:03:78:12:4f:20:eb:6b:6e:86:c5:
                    59:0a:e5:6b:64:26:f5:ab:6f:b0:1c:b4:ef:3b:8d:
                    82:cb:36:3e:1d:6e:d4:1f:54:f2:26:05:ff:fa:4a:
                    1b:01:4d:52:79:a0:e6:e5:bb:36:07:d7:f6:8a:bc:
                    2e:79:99:46:27:f5:a7:51:cc:5c:d8:43:ee:a7:e8:
                    1d:23:55:54:be:52:e6:55:9c:1c:c9:b6:c4:8d:28:
                    1d:21:af:d7:41:6e:45:d2:22:c7:3a:6c:97:c9:e6:
                    f1:1b:5d:13:c9:ea:f6:78:91:2e:17:60:46:d6:af:
                    20:f3:66:47:66:62:c5:7b:d9:bc:9e:54:81:93:7a:
                    ac:ed:06:ea:39:ff:61:84:e0:cc:75:47:81:d7:e0:
                    d8:ba:49:f4:d7:d5:cc:14:43:29:0b:43:6a:c6:f8:
                    ec:aa:4a:3d:a2:97:6e:58:f5:af:92:cf:54:6f:c6:
                    d1:b1:62:20:c0:62:ce:a7:19:d8:be:60:b8:98:e8:
                    2b:7a:8e:2b:85:4a:7d:fb:ec:c2:18:06:f2:1c:cd:
                    f2:d5:4b:21:9b:61:ae:94:f1:4f:9c:ca:da:3a:75:
                    f0:8a:c8:bc:65:9f:fb:4f:cf:78:05:5e:0b:3e:3b:
                    92:ac:9e:c2:d9:ba:fa:e2:2f:98:61:30:fc:fa:0f:
                    7c:95:7f:43:f8:06:9f:d7:e9:07:ba:9d:20:ce:ef:
                    10:aa:f9:03:ba:91:aa:a7:c2:6c:da:b8:6e:c4:41:
                    83:14:a3:98:45:8c:1b:04:0e:29:7d:11:91:54:a0:
                    1a:29:93:a7:7b:df:6b:41:cd:04:c6:d6:bd:81:73:
                    26:d7:94:51:41:7d:d5:4c:7c:e3:30:c1:11:24:83:
                    54:15:51:b0:e4:1d:1a:93:06:6d:c9:f1:c7:10:61:
                    4c:d4:d3:05:bf:0d:b9:ba:06:52:fe:45:55:05:d6:
                    60:23:1a:0c:d8:a3:d1:c2:dd:5a:68:4a:6c:a2:ca:
                    a6:3e:1c:52:cd:8d:9a:38:5f:64:e6:46:94:f1:a1:
                    79:c8:72:f6:8f:2c:32:3a:b4:78:b6:9d:ee:95:45:
                    ee:ee:8e:b6:d1:1e:d7:19:b5:ba:6c:64:7a:1d:89:
                    02:3b:5a:4a:f3:bf:a0:fb:ba:ee:fa:64:97:bf:07:
                    cc:13:0b:67:c1:53:3b:44:86:54:73:32:f9:61:a3:
                    77:99:59
                Exponent: 65537 (0x10001)
        Attributes:
            Requested Extensions:
                X509v3 Basic Constraints: 
                    CA:FALSE
                X509v3 Key Usage: critical
                    Certificate Sign, CRL Sign
                X509v3 Subject Alternative Name: 
                    URI:urn:e99d5466f7bb:NodeOPCUA-Client, DNS:e99d5466f7bb, IP Address:127.0.0.1
    Signature Algorithm: sha256WithRSAEncryption
    Signature Value:
        2a:24:72:7b:ad:b8:b4:67:28:d9:15:e0:91:c2:db:2c:cf:9d:
        bb:35:8b:06:95:2c:81:f2:42:d1:58:9e:ac:0c:f7:89:09:ce:
        65:4e:b1:87:4d:96:71:e7:fb:1e:9f:3a:c8:67:d2:d9:21:02:
        51:91:67:8b:21:8b:2c:e8:b3:5d:23:1b:88:78:a2:67:bb:95:
        95:da:3a:d6:5e:7b:38:7d:61:09:7f:95:63:31:92:af:0a:7d:
        da:1a:65:c8:96:fd:2c:45:c0:af:0a:5c:23:37:0e:45:e8:85:
        4f:47:14:e7:9e:af:a3:00:06:75:33:3d:ec:4e:de:72:bf:60:
        5b:17:6e:8b:ea:06:32:6d:c0:df:ad:8f:81:e4:6e:55:d1:27:
        e7:e4:5a:87:21:de:83:76:f0:c0:a6:35:99:18:90:6f:2c:ee:
        6e:6c:52:94:a4:5a:7f:1c:ff:19:58:cf:c8:79:38:d7:86:85:
        8c:3e:7c:f4:91:a5:de:93:7d:0c:85:27:3a:fa:6a:7a:6f:af:
        99:18:50:d0:b6:29:c1:0c:90:fe:5b:c2:45:d1:ad:88:ed:9d:
        a5:36:b4:c8:00:08:41:1e:fe:3d:b9:40:84:21:da:6b:23:2f:
        11:5c:89:75:4b:c1:f7:4d:18:be:c1:8f:9f:46:09:13:ce:b9:
        52:da:e5:e6:51:42:dd:e6:d9:1e:d8:b9:d6:16:67:fe:b9:b6:
        98:8c:6d:d7:dd:25:93:41:ff:e3:65:8b:e9:04:73:0e:96:96:
        e9:a6:ce:5f:cd:66:2b:0b:22:66:9a:fc:96:42:d5:ab:c2:14:
        18:95:23:70:97:63:ca:73:de:b6:4d:0d:77:9e:d4:f0:01:a4:
        a4:33:fd:77:43:d1:4e:42:bf:65:b8:70:f1:49:e7:e9:3f:18:
        b5:27:3e:0b:68:79:fb:bf:d0:7f:2e:47:1e:db:56:d9:16:51:
        f0:70:ab:1e:66:78:3e:5b:78:69:c2:c5:2a:cc:61:3b:ab:8f:
        8d:02:72:cb:63:87:9a:e4:ca:6e:00:a8:38:42:66:95:39:72:
        0a:2d:5b:83:7d:3d:a6:bf:a6:1c:e5:1e:c5:ca:d7:c7:3b:62:
        d7:92:e1:ce:0a:e7:d8:a4:91:1f:d9:ab:3f:3d:dd:7d:95:f5:
        80:10:3d:e2:94:ef:09:93:95:50:5b:79:bb:6f:8d:ff:e0:dd:
        76:4e:2c:93:69:a6:f4:1c:13:0f:0f:b2:5a:d5:ce:ea:72:46:
        6f:f4:4a:c2:80:74:ef:0a:1a:76:4f:85:dc:10:ad:31:74:a3:
        71:9d:46:0d:1a:4b:ab:4a:fb:22:63:73:cf:72:4c:9a:89:90:
        72:fc:b2:37:1b:b4:8c:59
-----BEGIN CERTIFICATE REQUEST-----
MIIE6DCCAtACAQAwNTELMAkGA1UEBhMCRlIxEjAQBgNVBAoMCU5vZGVPUENVQTES
MBAGA1UEAwwJTm9kZU9QQ1VBMIICIjANBgkqhkiG9w0BAQEFAAOCAg8AMIICCgKC
AgEAsX1l0W6YdqxlfJJNfT0GWj2HFcbgqacOQG+C7TlfihXvF38ZrP+dQyzc5wL9
A876gq37GsDPtF1FTIQZaQpOnQN4Ek8g62tuhsVZCuVrZCb1q2+wHLTvO42CyzY+
HW7UH1TyJgX/+kobAU1SeaDm5bs2B9f2irwueZlGJ/WnUcxc2EPup+gdI1VUvlLm
VZwcybbEjSgdIa/XQW5F0iLHOmyXyebxG10Tyer2eJEuF2BG1q8g82ZHZmLFe9m8
nlSBk3qs7QbqOf9hhODMdUeB1+DYukn019XMFEMpC0Nqxvjsqko9opduWPWvks9U
b8bRsWIgwGLOpxnYvmC4mOgreo4rhUp9++zCGAbyHM3y1Ushm2GulPFPnMraOnXw
isi8ZZ/7T894BV4LPjuSrJ7C2br64i+YYTD8+g98lX9D+Aaf1+kHup0gzu8QqvkD
upGqp8Js2rhuxEGDFKOYRYwbBA4pfRGRVKAaKZOne99rQc0Exta9gXMm15RRQX3V
THzjMMERJINUFVGw5B0akwZtyfHHEGFM1NMFvw25ugZS/kVVBdZgIxoM2KPRwt1a
aEpsosqmPhxSzY2aOF9k5kaU8aF5yHL2jywyOrR4tp3ulUXu7o620R7XGbW6bGR6
HYkCO1pK87+g+7ru+mSXvwfMEwtnwVM7RIZUczL5YaN3mVkCAwEAAaBuMGwGCSqG
SIb3DQEJDjFfMF0wCQYDVR0TBAIwADAOBgNVHQ8BAf8EBAMCAQYwQAYDVR0RBDkw
N4YhdXJuOmU5OWQ1NDY2ZjdiYjpOb2RlT1BDVUEtQ2xpZW50ggxlOTlkNTQ2NmY3
YmKHBH8AAAEwDQYJKoZIhvcNAQELBQADggIBACokcnutuLRnKNkV4JHC2yzPnbs1
iwaVLIHyQtFYnqwM94kJzmVOsYdNlnHn+x6fOshn0tkhAlGRZ4shiyzos10jG4h4
ome7lZXaOtZeezh9YQl/lWMxkq8KfdoaZciW/SxFwK8KXCM3DkXohU9HFOeer6MA
BnUzPexO3nK/YFsXbovqBjJtwN+tj4HkblXRJ+fkWoch3oN28MCmNZkYkG8s7m5s
UpSkWn8c/xlYz8h5ONeGhYw+fPSRpd6TfQyFJzr6anpvr5kYUNC2KcEMkP5bwkXR
rYjtnaU2tMgACEEe/j25QIQh2msjLxFciXVLwfdNGL7Bj59GCRPOuVLa5eZRQt3m
2R7YudYWZ/65tpiMbdfdJZNB/+Nli+kEcw6Wlummzl/NZisLImaa/JZC1avCFBiV
I3CXY8pz3rZNDXee1PABpKQz/XdD0U5Cv2W4cPFJ5+k/GLUnPgtoefu/0H8uRx7b
VtkWUfBwqx5meD5beGnCxSrMYTurj40Ccstjh5rkym4AqDhCZpU5cgotW4N9Paa/
phzlHsXK18c7YteS4c4K59ikkR/Zqz893X2V9YAQPeKU7wmTlVBbebtvjf/g3XZO
LJNppvQcEw8PslrVzupyRm/0SsKAdO8KGnZPhdwQrTF0o3GdRg0aS6tK+yJjc89y
TJqJkHL8sjcbtIxZ
-----END CERTIFICATE REQUEST-----
