Certificate Request:
    Data:
        Version: 1 (0x0)
        Subject: C = FR, O = NodeOPCUA, CN = NodeOPCUA
        Subject Public Key Info:
            Public Key Algorithm: rsaEncryption
                Public-Key: (2048 bit)
                Modulus:
                    00:b1:70:03:c9:82:b1:db:f4:fb:4d:36:ce:c6:5e:
                    1b:72:87:74:bd:06:ec:3d:27:bc:84:e4:fc:eb:5d:
                    71:4b:82:1c:8b:d3:bb:27:4d:6e:96:ab:8d:10:34:
                    53:3d:28:a0:67:f7:43:d0:94:f2:54:12:f1:71:1d:
                    68:e8:99:ab:30:c6:0f:4b:17:12:09:71:cd:3b:66:
                    5c:d7:4a:4b:2e:1d:de:84:51:3d:65:19:18:4a:a7:
                    73:5d:f0:b1:20:9e:6d:0e:76:38:1e:28:0a:c3:32:
                    d5:95:46:83:03:83:55:fe:ab:f1:b3:9c:9f:bd:99:
                    1e:37:93:c1:c1:12:bb:cf:45:1e:44:07:0d:cb:83:
                    11:40:93:e4:4b:97:33:b6:17:a9:8c:aa:70:a6:1f:
                    6b:11:70:03:22:f2:41:09:0d:e6:a0:26:94:15:4b:
                    79:f1:50:56:a1:b0:b0:23:9b:7f:13:13:f4:0f:55:
                    02:ac:4e:cb:12:cf:92:2e:7a:a8:82:b5:85:2f:82:
                    1e:fb:69:b7:98:fa:f1:89:0d:14:b5:1b:43:bf:c6:
                    2e:31:6f:a8:b4:52:24:f2:5c:96:fa:92:44:04:97:
                    2b:5b:92:b2:2b:4c:bb:56:97:2f:ec:e1:c7:62:7b:
                    04:88:9e:2b:95:42:78:3f:2a:d9:59:bf:60:e4:4d:
                    2d:e5
                Exponent: 65537 (0x10001)
        Attributes:
            Requested Extensions:
                X509v3 Basic Constraints: 
                    CA:FALSE
                X509v3 Key Usage: critical
                    Certificate Sign, CRL Sign
                X509v3 Subject Alternative Name: 
                    URI:urn:e99d5466f7bb:NodeOPCUA-ClientRevoked, DNS:e99d5466f7bb, IP Address:127.0.0.1
    Signature Algorithm: sha256WithRSAEncryption
    Signature Value:
        4c:19:56:be:8b:75:22:65:c7:5b:4c:27:27:a2:c4:cc:5d:49:
        c8:75:cb:ee:20:e4:93:67:da:01:f6:c7:7c:7f:c3:77:f4:e9:
        79:84:10:c3:13:eb:49:0a:7e:cd:36:bb:4f:81:f6:b2:d2:38:
        64:41:ee:09:1e:6b:bd:cc:e9:36:67:7c:36:51:33:ee:70:c8:
        78:80:35:4e:56:a6:5d:03:cc:b8:50:c9:96:29:fc:1e:c2:29:
        0d:2a:35:92:ac:f5:3d:b7:a4:2f:e4:9e:c3:87:c7:16:c2:5f:
        69:1d:b2:f7:9c:f0:b4:9e:b0:33:6d:19:e1:f3:75:b7:16:a0:
        d4:e5:d8:20:65:8a:b6:5a:57:8c:0d:30:f7:72:46:55:39:ea:
        17:80:fb:c9:5c:cf:50:9e:02:a5:6a:a3:84:a8:ef:c3:50:f7:
        00:63:c0:82:61:df:55:55:f2:fe:b8:f5:2f:19:13:fc:66:18:
        ff:78:cf:96:55:3f:79:cb:1c:de:7a:2d:df:b9:2a:51:61:4c:
        94:a3:ee:e3:c2:6f:47:24:e1:99:d2:88:95:0b:b3:c7:16:4f:
        23:83:30:88:90:8c:48:e4:bd:29:ce:55:47:a4:43:2e:41:6b:
        8b:d8:8e:70:f4:c9:87:d1:85:02:68:04:45:15:46:98:08:54:
        70:7d:5e:1d
-----BEGIN CERTIFICATE REQUEST-----
MIIC7zCCAdcCAQAwNTELMAkGA1UEBhMCRlIxEjAQBgNVBAoMCU5vZGVPUENVQTES
MBAGA1UEAwwJTm9kZU9QQ1VBMIIBIjANBgkqhkiG9w0BAQEFAAOCAQ8AMIIBCgKC
AQEAsXADyYKx2/T7TTbOxl4bcod0vQbsPSe8hOT8611xS4Ici9O7J01ulquNEDRT
PSigZ/dD0JTyVBLxcR1o6JmrMMYPSxcSCXHNO2Zc10pLLh3ehFE9ZRkYSqdzXfCx
IJ5tDnY4HigKwzLVlUaDA4NV/qvxs5yfvZkeN5PBwRK7z0UeRAcNy4MRQJPkS5cz
thepjKpwph9rEXADIvJBCQ3moCaUFUt58VBWobCwI5t/ExP0D1UCrE7LEs+SLnqo
grWFL4Ie+2m3mPrxiQ0UtRtDv8YuMW+otFIk8lyW+pJEBJcrW5KyK0y7Vpcv7OHH
YnsEiJ4rlUJ4PyrZWb9g5E0t5QIDAQABoHUwcwYJKoZIhvcNAQkOMWYwZDAJBgNV
HRMEAjAAMA4GA1UdDwEB/wQEAwIBBjBHBgNVHREEQDA+hih1cm46ZTk5ZDU0NjZm
N2JiOk5vZGVPUENVQS1DbGllbnRSZXZva2VkggxlOTlkNTQ2NmY3YmKHBH8AAAEw
DQYJKoZIhvcNAQELBQADggEBAEwZVr6LdSJlx1tMJyeixMxdSch1y+4g5JNn2gH2
x3x/w3f06XmEEMMT60kKfs02u0+B9rLSOGRB7gkea73M6TZnfDZRM+5wyHiANU5W
pl0DzLhQyZYp/B7CKQ0qNZKs9T23pC/knsOHxxbCX2kdsvec8LSesDNtGeHzdbcW
oNTl2CBlirZaV4wNMPdyRlU56heA+8lcz1CeAqVqo4So78NQ9wBjwIJh31VV8v64
9S8ZE/xmGP94z5ZVP3nLHN56Ld+5KlFhTJSj7uPCb0ck4ZnSiJULs8cWTyODMIiQ
jEjkvSnOVUekQy5Ba4vYjnD0yYfRhQJoBEUVRpgIVHB9Xh0=
-----END CERTIFICATE REQUEST-----
