Certificate:
    Data:
        Version: 3 (0x2)
        Serial Number: 4107 (0x100b)
        Signature Algorithm: sha256WithRSAEncryption
        Issuer: O=NodeOPCUA, CN=NodeOPCUA
        Validity
            Not Before: Mar 19 02:38:47 2024 GMT
            Not After : Mar 19 02:38:47 2025 GMT
        Subject: O=NodeOPCUA, CN=NodeOPCUA
        Subject Public Key Info:
            Public Key Algorithm: rsaEncryption
                Public-Key: (3072 bit)
                Modulus:
                    00:93:70:a3:7d:65:73:f5:c3:cf:87:e4:7b:1b:36:
                    be:c1:f6:5f:b9:02:b7:09:b0:60:3b:55:07:5c:4c:
                    b8:32:52:0f:2c:e6:6d:8d:e1:4a:86:ce:d0:be:f3:
                    8b:6f:33:4b:08:e4:93:29:8a:c5:c0:3c:07:94:29:
                    69:f5:49:1e:96:b7:e9:86:db:c3:08:11:f9:8c:43:
                    b1:73:65:6a:d0:a9:d2:29:c5:87:a4:6f:79:50:e0:
                    91:58:0c:86:a6:3b:f0:93:fe:bb:7d:01:60:65:a9:
                    b9:fa:fb:e5:8e:7a:04:70:ed:44:cd:57:bf:a7:a9:
                    55:93:dd:9d:b0:49:4b:5b:86:dd:05:52:6e:3e:4b:
                    71:64:a5:7c:8e:86:b3:76:99:f5:ec:b8:00:81:98:
                    61:f4:d0:4c:12:14:16:90:3f:29:26:05:d9:3a:e3:
                    0e:8e:9f:e1:cf:a2:8a:86:b6:20:d5:2a:2f:ad:cb:
                    4a:a7:46:10:98:f4:95:c5:25:a0:69:80:ad:47:55:
                    d1:77:c9:59:c6:be:c7:ec:a8:4a:f4:97:66:72:73:
                    cb:f3:cb:9b:3a:1c:db:38:03:90:f8:0f:2f:87:b6:
                    01:1a:fc:5d:71:b8:33:38:3c:dc:77:9e:93:5d:34:
                    60:2f:96:9d:1b:4f:4d:3f:35:75:4e:69:20:c9:9b:
                    9c:cc:1f:db:15:bc:ce:74:e3:4d:ef:12:aa:c6:5f:
                    bc:71:f2:99:03:7f:bd:df:ce:46:c7:cb:f4:9a:ed:
                    8a:11:f0:8a:8b:1c:3b:53:8b:86:39:30:c6:b9:cd:
                    71:ef:13:6a:00:52:cd:52:2f:b2:e5:a0:4a:90:9b:
                    3f:92:f9:bd:38:3e:26:0d:02:0d:d4:cd:05:74:90:
                    92:d5:c5:a6:5d:ab:0e:45:46:aa:4c:98:d6:ca:5c:
                    27:97:8f:1a:82:a7:fd:d2:9d:65:20:df:6f:59:8b:
                    ba:85:13:96:f8:36:5d:42:a9:77:6e:6f:09:ff:95:
                    d6:2b:52:98:5e:67:89:61:4e:69
                Exponent: 65537 (0x10001)
        X509v3 extensions:
            X509v3 Basic Constraints: critical
                CA:FALSE
            X509v3 Subject Key Identifier: 
                E0:B2:04:C7:15:9A:72:25:D4:D9:20:5F:73:13:AA:D1:F6:31:E0:7A
            X509v3 Authority Key Identifier: 
                DirName:/O=NodeOPCUA/CN=NodeOPCUA
                serial:10:0B
            X509v3 Subject Alternative Name: 
                URI:urn:e99d5466f7bb:NodeOPCUA-Client, DNS:e99d5466f7bb
            Netscape Comment: 
                OpenSSL Generated Certificate
            X509v3 Key Usage: critical
                Digital Signature, Non Repudiation, Key Encipherment, Data Encipherment, Key Agreement, Certificate Sign
            X509v3 Extended Key Usage: critical
                TLS Web Server Authentication, TLS Web Client Authentication
    Signature Algorithm: sha256WithRSAEncryption
    Signature Value:
        88:8a:ad:1b:5c:5c:80:df:3d:53:2f:03:80:4a:fc:11:9e:78:
        56:90:dd:32:9a:9e:6f:9a:ec:a1:63:b8:2b:5f:16:6a:eb:35:
        70:40:71:be:ff:2b:18:56:84:fd:32:c0:5a:97:53:c9:50:0a:
        74:c9:a1:9c:bc:16:93:28:f4:39:07:29:a3:9c:34:9c:c2:84:
        0d:18:50:c7:a3:a0:42:7d:89:53:81:af:95:c8:7e:69:a1:86:
        57:33:d4:a1:88:6f:f3:33:16:a0:66:b0:82:e0:b1:3b:2d:c2:
        26:38:25:4e:24:b4:9f:2d:0c:0d:1a:76:3b:f3:a6:1e:e4:57:
        a2:b9:4a:53:86:5b:c7:a7:64:58:95:3d:30:fb:05:4a:62:c2:
        3b:90:e2:45:14:d6:29:40:79:fa:e6:ff:a5:fe:7f:62:bf:6f:
        b5:6e:99:dd:22:8c:8a:27:d1:e4:8d:47:74:6a:e1:fb:b4:5b:
        a4:93:c4:6f:f6:af:32:6c:da:8d:45:fb:9d:14:f7:3d:0e:dd:
        70:f5:c0:7e:1e:aa:38:55:eb:33:28:8a:0c:2a:05:07:09:53:
        66:df:b9:56:ca:54:ef:67:e8:66:a4:4b:41:9b:f4:1b:10:07:
        1e:b2:4a:59:5a:db:dd:28:db:b1:41:bc:1f:eb:c0:41:55:2f:
        dd:24:97:ee:00:9c:92:9c:17:c9:6b:53:e0:b9:35:3e:f1:c4:
        5a:47:63:c5:47:f1:b3:b2:2b:9a:52:57:aa:8d:a9:84:00:27:
        33:3a:a8:e4:15:78:5a:ac:ca:63:b2:3a:b6:07:c9:b5:33:47:
        35:cf:e6:7d:db:e9:0f:35:c7:a4:2a:8a:45:d6:a5:d1:c0:dc:
        34:bb:bc:55:1a:3b:71:48:0e:16:8f:70:34:47:15:f2:7e:c7:
        e9:d2:88:c2:8b:f0:d0:71:02:1a:00:13:52:ea:46:75:13:f9:
        32:91:96:c4:c2:1d:8f:64:e2:16:1f:f1:c2:2a:d9:31:b0:1f:
        f0:45:a0:bd:ce:0a
-----BEGIN CERTIFICATE-----
MIIE2DCCA0CgAwIBAgICEAswDQYJKoZIhvcNAQELBQAwKDESMBAGA1UEChMJTm9k
ZU9QQ1VBMRIwEAYDVQQDEwlOb2RlT1BDVUEwHhcNMjQwMzE5MDIzODQ3WhcNMjUw
MzE5MDIzODQ3WjAoMRIwEAYDVQQKEwlOb2RlT1BDVUExEjAQBgNVBAMTCU5vZGVP
UENVQTCCAaIwDQYJKoZIhvcNAQEBBQADggGPADCCAYoCggGBAJNwo31lc/XDz4fk
exs2vsH2X7kCtwmwYDtVB1xMuDJSDyzmbY3hSobO0L7zi28zSwjkkymKxcA8B5Qp
afVJHpa36YbbwwgR+YxDsXNlatCp0inFh6RveVDgkVgMhqY78JP+u30BYGWpufr7
5Y56BHDtRM1Xv6epVZPdnbBJS1uG3QVSbj5LcWSlfI6Gs3aZ9ey4AIGYYfTQTBIU
FpA/KSYF2TrjDo6f4c+iioa2INUqL63LSqdGEJj0lcUloGmArUdV0XfJWca+x+yo
SvSXZnJzy/PLmzoc2zgDkPgPL4e2ARr8XXG4Mzg83Heek100YC+WnRtPTT81dU5p
IMmbnMwf2xW8znTjTe8SqsZfvHHymQN/vd/ORsfL9JrtihHwioscO1OLhjkwxrnN
ce8TagBSzVIvsuWgSpCbP5L5vTg+Jg0CDdTNBXSQktXFpl2rDkVGqkyY1spcJ5eP
GoKn/dKdZSDfb1mLuoUTlvg2XUKpd25vCf+V1itSmF5niWFOaQIDAQABo4IBCjCC
AQYwDAYDVR0TAQH/BAIwADAdBgNVHQ4EFgQU4LIExxWaciXU2SBfcxOq0fYx4How
OwYDVR0jBDQwMqEspCowKDESMBAGA1UEChMJTm9kZU9QQ1VBMRIwEAYDVQQDEwlO
b2RlT1BDVUGCAhALMDoGA1UdEQQzMDGGIXVybjplOTlkNTQ2NmY3YmI6Tm9kZU9Q
Q1VBLUNsaWVudIIMZTk5ZDU0NjZmN2JiMCwGCWCGSAGG+EIBDQQfFh1PcGVuU1NM
IEdlbmVyYXRlZCBDZXJ0aWZpY2F0ZTAOBgNVHQ8BAf8EBAMCAvwwIAYDVR0lAQH/
BBYwFAYIKwYBBQUHAwEGCCsGAQUFBwMCMA0GCSqGSIb3DQEBCwUAA4IBgQCIiq0b
XFyA3z1TLwOASvwRnnhWkN0ymp5vmuyhY7grXxZq6zVwQHG+/ysYVoT9MsBal1PJ
UAp0yaGcvBaTKPQ5BymjnDScwoQNGFDHo6BCfYlTga+VyH5poYZXM9ShiG/zMxag
ZrCC4LE7LcImOCVOJLSfLQwNGnY786Ye5FeiuUpThlvHp2RYlT0w+wVKYsI7kOJF
FNYpQHn65v+l/n9iv2+1bpndIoyKJ9HkjUd0auH7tFukk8Rv9q8ybNqNRfudFPc9
Dt1w9cB+Hqo4VeszKIoMKgUHCVNm37lWylTvZ+hmpEtBm/QbEAceskpZWtvdKNux
Qbwf68BBVS/dJJfuAJySnBfJa1PguTU+8cRaR2PFR/GzsiuaUleqjamEACczOqjk
FXharMpjsjq2B8m1M0c1z+Z92+kPNcekKopF1qXRwNw0u7xVGjtxSA4Wj3A0RxXy
fsfp0ojCi/DQcQIaABNS6kZ1E/kykZbEwh2PZOIWH/HCKtkxsB/wRaC9zgo=
-----END CERTIFICATE-----
