Certificate Request:
    Data:
        Version: 1 (0x0)
        Subject: C = FR, O = NodeOPCUA, CN = NodeOPCUA
        Subject Public Key Info:
            Public Key Algorithm: rsaEncryption
                Public-Key: (1024 bit)
                Modulus:
                    00:dd:e0:76:1f:7e:d0:0b:6b:65:64:27:79:62:a8:
                    54:a2:fc:9f:49:3e:8f:4a:8d:1e:84:e7:64:ef:78:
                    6c:07:f4:84:da:f9:7a:a2:69:9b:47:0a:59:2c:03:
                    fa:bb:d2:e7:74:df:e9:f5:a2:d4:c8:fa:9e:fc:3a:
                    32:71:b3:0e:0f:29:bb:c4:a7:91:7a:db:6d:98:4f:
                    33:44:45:71:fe:ea:86:be:d6:10:1e:96:77:5b:58:
                    5d:78:15:46:e6:00:d4:53:47:55:7a:aa:d7:ff:dc:
                    88:50:71:e4:b2:21:2c:2e:62:4c:04:2d:fc:9d:75:
                    37:bc:4f:a9:c5:2a:25:e8:31
                Exponent: 65537 (0x10001)
        Attributes:
            Requested Extensions:
                X509v3 Basic Constraints: 
                    CA:FALSE
                X509v3 Key Usage: critical
                    Certificate Sign, CRL Sign
                X509v3 Subject Alternative Name: 
                    URI:urn:e99d5466f7bb:NodeOPCUA-Client, DNS:e99d5466f7bb, IP Address:127.0.0.1
    Signature Algorithm: sha256WithRSAEncryption
    Signature Value:
        6c:e4:2a:61:75:87:5d:7a:4c:e9:46:f2:e0:15:79:c5:e9:a9:
        5f:78:00:0a:90:27:8e:27:20:82:b1:a9:01:89:62:a0:a6:d7:
        d4:63:30:22:f1:95:7a:3b:ff:92:1b:40:ce:18:4b:d1:49:83:
        15:46:87:25:eb:0d:ac:28:bb:42:37:88:98:4a:43:48:ab:5c:
        b5:0e:24:8f:54:68:20:6c:d8:b4:86:10:4c:62:61:00:43:9d:
        38:a5:31:9c:43:03:e5:1e:17:fb:fb:66:43:e7:c9:90:47:3b:
        90:00:fe:30:de:01:d8:50:f0:5d:ab:66:ab:db:33:79:3e:76:
        8a:d3
-----BEGIN CERTIFICATE REQUEST-----
MIIB4zCCAUwCAQAwNTELMAkGA1UEBhMCRlIxEjAQBgNVBAoMCU5vZGVPUENVQTES
MBAGA1UEAwwJTm9kZU9QQ1VBMIGfMA0GCSqGSIb3DQEBAQUAA4GNADCBiQKBgQDd
4HYfftALa2VkJ3liqFSi/J9JPo9KjR6E52TveGwH9ITa+XqiaZtHClksA/q70ud0
3+n1otTI+p78OjJxsw4PKbvEp5F6222YTzNERXH+6oa+1hAelndbWF14FUbmANRT
R1V6qtf/3IhQceSyISwuYkwELfyddTe8T6nFKiXoMQIDAQABoG4wbAYJKoZIhvcN
AQkOMV8wXTAJBgNVHRMEAjAAMA4GA1UdDwEB/wQEAwIBBjBABgNVHREEOTA3hiF1
cm46ZTk5ZDU0NjZmN2JiOk5vZGVPUENVQS1DbGllbnSCDGU5OWQ1NDY2ZjdiYocE
fwAAATANBgkqhkiG9w0BAQsFAAOBgQBs5CphdYddekzpRvLgFXnF6alfeAAKkCeO
JyCCsakBiWKgptfUYzAi8ZV6O/+SG0DOGEvRSYMVRocl6w2sKLtCN4iYSkNIq1y1
DiSPVGggbNi0hhBMYmEAQ504pTGcQwPlHhf7+2ZD58mQRzuQAP4w3gHYUPBdq2ar
2zN5PnaK0w==
-----END CERTIFICATE REQUEST-----
