Certificate Request:
    Data:
        Version: 1 (0x0)
        Subject: C = FR, O = NodeOPCUA, CN = NodeOPCUA
        Subject Public Key Info:
            Public Key Algorithm: rsaEncryption
                Public-Key: (1024 bit)
                Modulus:
                    00:d5:11:01:e6:25:f2:a0:72:f9:d9:18:bc:83:3a:
                    59:1f:c1:9e:03:36:14:03:72:a2:54:f5:b1:51:ac:
                    3b:8e:53:61:dc:f7:b9:bf:3c:fe:5c:b6:98:91:ba:
                    55:6e:3c:39:ca:48:b9:8a:00:0d:b1:71:f4:07:65:
                    80:e8:b3:0c:49:d2:55:6d:8e:c2:f9:19:42:35:85:
                    55:49:d8:e1:98:ea:37:51:40:e6:31:f9:b6:d2:28:
                    be:f0:5b:89:be:90:df:df:fb:82:cb:06:79:a2:0c:
                    da:df:e1:b1:de:76:ad:a5:60:73:ad:f2:d2:85:7d:
                    e3:81:4d:25:53:75:20:bb:49
                Exponent: 65537 (0x10001)
        Attributes:
            Requested Extensions:
                X509v3 Basic Constraints: 
                    CA:FALSE
                X509v3 Key Usage: critical
                    Certificate Sign, CRL Sign
                X509v3 Subject Alternative Name: 
                    URI:urn:e99d5466f7bb:NodeOPCUA-DiscoveryServer, DNS:e99d5466f7bb, IP Address:127.0.0.1
    Signature Algorithm: sha256WithRSAEncryption
    Signature Value:
        9a:a3:b1:62:d3:ba:48:23:93:de:a5:a9:31:02:7c:82:d3:6a:
        60:0b:39:ee:fd:9d:98:b7:45:2a:c3:5e:69:a6:a6:04:04:57:
        df:5d:10:55:f5:bf:d2:1c:f8:7e:d2:b4:66:4c:ca:68:d0:d9:
        52:4a:e4:70:7f:4d:6e:83:54:a6:52:41:5e:b5:34:02:55:1d:
        e2:cf:6b:99:19:c2:e3:22:93:6b:1a:1a:12:17:5d:df:0f:c9:
        19:0f:4d:90:ca:fa:f5:e3:8c:e6:bd:42:5e:6f:27:34:83:cb:
        84:2f:e9:8c:51:be:db:42:40:c6:59:b3:a9:0b:10:b1:7f:e2:
        89:4c
-----BEGIN CERTIFICATE REQUEST-----
MIIB7DCCAVUCAQAwNTELMAkGA1UEBhMCRlIxEjAQBgNVBAoMCU5vZGVPUENVQTES
MBAGA1UEAwwJTm9kZU9QQ1VBMIGfMA0GCSqGSIb3DQEBAQUAA4GNADCBiQKBgQDV
EQHmJfKgcvnZGLyDOlkfwZ4DNhQDcqJU9bFRrDuOU2Hc97m/PP5ctpiRulVuPDnK
SLmKAA2xcfQHZYDoswxJ0lVtjsL5GUI1hVVJ2OGY6jdRQOYx+bbSKL7wW4m+kN/f
+4LLBnmiDNrf4bHedq2lYHOt8tKFfeOBTSVTdSC7SQIDAQABoHcwdQYJKoZIhvcN
AQkOMWgwZjAJBgNVHRMEAjAAMA4GA1UdDwEB/wQEAwIBBjBJBgNVHREEQjBAhip1
cm46ZTk5ZDU0NjZmN2JiOk5vZGVPUENVQS1EaXNjb3ZlcnlTZXJ2ZXKCDGU5OWQ1
NDY2ZjdiYocEfwAAATANBgkqhkiG9w0BAQsFAAOBgQCao7Fi07pII5PepakxAnyC
02pgCznu/Z2Yt0Uqw15ppqYEBFffXRBV9b/SHPh+0rRmTMpo0NlSSuRwf01ug1Sm
UkFetTQCVR3iz2uZGcLjIpNrGhoSF13fD8kZD02Qyvr144zmvUJebyc0g8uEL+mM
Ub7bQkDGWbOpCxCxf+KJTA==
-----END CERTIFICATE REQUEST-----
