Certificate Request:
    Data:
        Version: 1 (0x0)
        Subject: C = FR, O = NodeOPCUA, CN = NodeOPCUA
        Subject Public Key Info:
            Public Key Algorithm: rsaEncryption
                Public-Key: (2048 bit)
                Modulus:
                    00:b0:fb:df:1c:d6:1b:75:d6:e7:7c:54:0c:66:54:
                    59:77:e1:af:62:a6:05:41:31:dd:38:cd:b1:34:80:
                    a2:48:68:bc:1a:72:0f:d2:28:97:58:14:ce:6c:70:
                    3b:23:43:9e:a0:94:9f:f4:81:56:14:3f:40:4f:d9:
                    ca:4a:44:40:c3:64:8a:78:47:73:a5:1f:05:b5:6a:
                    89:45:df:ae:84:cd:b5:ff:87:63:9b:bb:27:da:22:
                    87:8b:ca:e8:cc:80:e7:5e:e9:0b:2e:61:08:28:0d:
                    21:f9:a9:b2:62:5e:bc:52:8e:ac:8c:9a:6a:7b:3c:
                    1e:33:0b:4b:31:ba:10:20:0d:25:91:94:78:fc:0d:
                    40:58:9a:47:a9:dc:54:ba:7e:c9:74:58:da:30:f5:
                    dc:9b:29:93:91:b3:f3:85:66:2a:5c:d1:76:95:03:
                    6b:09:39:57:03:9c:e0:50:55:47:e7:3e:b3:d0:6f:
                    be:37:4c:9b:29:37:ac:62:d2:13:03:22:92:f7:df:
                    50:86:54:29:aa:41:aa:a2:78:32:f5:e1:4a:88:fe:
                    db:4d:4c:ac:86:5c:39:b7:e2:cd:84:36:97:de:d5:
                    09:2b:3b:73:ca:0f:40:57:44:9f:f5:b8:24:68:6e:
                    f8:f1:77:5a:7d:f4:af:eb:8f:4d:d7:90:6e:6a:dc:
                    bf:fd
                Exponent: 65537 (0x10001)
        Attributes:
            Requested Extensions:
                X509v3 Basic Constraints: 
                    CA:FALSE
                X509v3 Key Usage: critical
                    Certificate Sign, CRL Sign
                X509v3 Subject Alternative Name: 
                    URI:urn:e99d5466f7bb:NodeOPCUA-DiscoveryServerRevoked, DNS:e99d5466f7bb, IP Address:127.0.0.1
    Signature Algorithm: sha256WithRSAEncryption
    Signature Value:
        69:5c:7a:ca:fa:1f:c0:f9:0c:b8:60:8e:b5:49:2b:ef:45:1e:
        16:63:09:03:a7:85:40:74:8c:5b:5f:2d:e1:23:10:17:a8:1a:
        9f:c2:72:fb:eb:dc:5d:4a:84:3b:d6:c6:f1:79:04:da:b0:7a:
        42:6c:3a:aa:6b:e1:40:7a:f7:c6:8e:05:b3:cc:b5:62:14:fc:
        3c:bf:37:9b:57:3e:60:dd:0a:01:43:88:2b:2c:53:11:3a:98:
        c5:6e:ba:bd:20:9b:b3:a6:93:83:ed:ee:49:c2:fd:08:ca:98:
        0f:4d:12:88:3d:4a:cd:d3:94:95:5d:63:f3:c2:cc:ea:c4:28:
        bf:50:39:cd:46:32:0b:0b:3f:6e:84:62:44:0c:d1:0d:e5:24:
        ad:ec:2a:fd:e7:f9:c8:aa:ee:48:ad:ae:8b:23:c0:2e:09:b2:
        e9:3e:a0:44:dc:26:3f:7f:fc:f4:4c:b1:bf:c0:36:68:63:5d:
        4e:af:ed:cb:86:00:d3:ff:a4:35:c5:37:89:f6:c2:93:b5:24:
        16:4b:c9:da:81:4d:e1:89:0d:64:a0:e7:60:a0:25:74:6a:1e:
        91:bc:f0:6b:c9:b4:6a:1a:ba:33:36:47:3a:3c:a2:6f:8d:1b:
        e8:bb:ca:fb:10:13:4d:31:2b:44:96:bc:1d:f1:aa:08:4c:fd:
        37:10:8c:81
-----BEGIN CERTIFICATE REQUEST-----
MIIC+DCCAeACAQAwNTELMAkGA1UEBhMCRlIxEjAQBgNVBAoMCU5vZGVPUENVQTES
MBAGA1UEAwwJTm9kZU9QQ1VBMIIBIjANBgkqhkiG9w0BAQEFAAOCAQ8AMIIBCgKC
AQEAsPvfHNYbddbnfFQMZlRZd+GvYqYFQTHdOM2xNICiSGi8GnIP0iiXWBTObHA7
I0OeoJSf9IFWFD9AT9nKSkRAw2SKeEdzpR8FtWqJRd+uhM21/4djm7sn2iKHi8ro
zIDnXukLLmEIKA0h+amyYl68Uo6sjJpqezweMwtLMboQIA0lkZR4/A1AWJpHqdxU
un7JdFjaMPXcmymTkbPzhWYqXNF2lQNrCTlXA5zgUFVH5z6z0G++N0ybKTesYtIT
AyKS999QhlQpqkGqongy9eFKiP7bTUyshlw5t+LNhDaX3tUJKztzyg9AV0Sf9bgk
aG748XdaffSv649N15Buaty//QIDAQABoH4wfAYJKoZIhvcNAQkOMW8wbTAJBgNV
HRMEAjAAMA4GA1UdDwEB/wQEAwIBBjBQBgNVHREESTBHhjF1cm46ZTk5ZDU0NjZm
N2JiOk5vZGVPUENVQS1EaXNjb3ZlcnlTZXJ2ZXJSZXZva2VkggxlOTlkNTQ2NmY3
YmKHBH8AAAEwDQYJKoZIhvcNAQELBQADggEBAGlcesr6H8D5DLhgjrVJK+9FHhZj
CQOnhUB0jFtfLeEjEBeoGp/Ccvvr3F1KhDvWxvF5BNqwekJsOqpr4UB698aOBbPM
tWIU/Dy/N5tXPmDdCgFDiCssUxE6mMVuur0gm7Omk4Pt7knC/QjKmA9NEog9Ss3T
lJVdY/PCzOrEKL9QOc1GMgsLP26EYkQM0Q3lJK3sKv3n+ciq7kitrosjwC4Jsuk+
oETcJj9//PRMsb/ANmhjXU6v7cuGANP/pDXFN4n2wpO1JBZLydqBTeGJDWSg52Cg
JXRqHpG88GvJtGoaujM2Rzo8om+NG+i7yvsQE00xK0SWvB3xqghM/TcQjIE=
-----END CERTIFICATE REQUEST-----
