Certificate Request:
    Data:
        Version: 1 (0x0)
        Subject: C = FR, O = NodeOPCUA, CN = NodeOPCUA
        Subject Public Key Info:
            Public Key Algorithm: rsaEncryption
                Public-Key: (3072 bit)
                Modulus:
                    00:e5:ab:ec:d7:d5:39:8b:4e:9a:85:24:76:b7:c5:
                    11:cb:62:65:91:1d:98:c7:97:89:4a:0b:32:a9:b0:
                    c4:76:02:f4:66:29:e6:b3:70:e3:9e:8e:c5:e5:bb:
                    35:3b:c1:f0:4f:a7:89:3e:76:73:96:57:dc:76:21:
                    e4:b6:44:a0:a5:e7:fa:a5:fd:dd:27:dc:2c:01:6c:
                    6e:fc:8e:9b:d0:40:51:c2:1b:a7:e5:ee:5d:f6:51:
                    71:a0:cc:d2:99:b9:d5:e0:80:b7:50:4c:72:4b:b5:
                    0b:39:15:76:4d:78:a4:ec:13:b8:4f:cd:cc:50:2d:
                    3b:8d:8f:2e:b8:c8:a0:34:9d:67:26:e4:d0:8e:ee:
                    7c:a0:32:b7:31:fd:83:7b:f4:c0:48:c5:43:b4:1c:
                    11:14:73:4b:09:d6:ed:b1:65:c9:33:49:50:8a:0c:
                    ac:a3:a9:55:af:d7:09:40:38:53:f7:70:b5:5d:6e:
                    00:01:a4:8d:44:b2:38:60:22:a9:1f:fa:c1:21:0c:
                    72:8c:4a:cc:1d:97:ee:4c:f2:3a:2c:5c:bf:ad:1c:
                    c8:c3:77:9e:16:85:1e:83:68:43:80:f7:a5:45:9e:
                    e9:36:9b:56:f9:79:26:3d:aa:cb:00:4d:5f:53:d8:
                    3b:84:d9:47:2b:3e:c4:ae:cd:bb:b8:9c:17:c0:ee:
                    7b:ea:7d:17:09:2c:a7:d7:3b:5a:64:15:ea:e4:f5:
                    87:f0:43:d4:94:d5:70:51:46:24:d0:8c:8b:2c:f4:
                    72:4c:cd:03:fc:50:e1:ea:7d:8e:36:8e:4d:b8:de:
                    ba:e1:49:f7:9c:97:f1:de:f2:5e:a4:e1:ac:62:ae:
                    d9:a7:62:a2:63:94:cd:00:bc:14:c1:5e:85:68:45:
                    46:e9:a6:c6:49:c0:19:50:0b:9a:ae:f1:18:4e:81:
                    c2:62:66:a5:cb:23:c9:0e:f6:02:a5:33:4e:b3:a7:
                    5b:90:17:d7:27:50:2a:bf:31:99:93:be:b1:1f:83:
                    37:22:7d:e5:3e:a4:72:e8:84:33
                Exponent: 65537 (0x10001)
        Attributes:
            Requested Extensions:
                X509v3 Basic Constraints: 
                    CA:FALSE
                X509v3 Key Usage: critical
                    Certificate Sign, CRL Sign
                X509v3 Subject Alternative Name: 
                    URI:urn:e99d5466f7bb:NodeOPCUA-DiscoveryServer, DNS:e99d5466f7bb, IP Address:127.0.0.1
    Signature Algorithm: sha256WithRSAEncryption
    Signature Value:
        7a:3f:ef:90:ec:ac:4a:ce:9e:21:a3:73:79:eb:f0:d3:db:77:
        4a:5a:68:0a:d9:37:07:f4:45:ef:b1:17:bc:0b:b4:00:9f:e9:
        f2:3a:2d:34:ac:fc:60:6e:b2:54:45:20:10:e7:21:28:32:99:
        2f:2e:e2:e0:28:aa:df:d4:e5:ed:d6:cc:32:88:b0:5f:00:60:
        a4:88:37:a9:09:df:ce:42:34:bd:fe:9d:b5:0a:ae:ca:12:01:
        56:0b:95:73:31:be:f2:fb:c0:3c:53:51:1f:9f:1b:b3:ee:0b:
        0c:c1:34:5a:18:66:73:d8:12:b2:a0:a4:8d:86:e6:fa:fc:60:
        50:ee:aa:dd:b4:be:8b:f1:36:16:27:95:4e:f5:3f:1f:1a:40:
        04:7a:97:b7:92:bc:49:e5:c8:d6:8b:89:9d:5f:8f:1b:b8:d4:
        26:48:5b:88:19:de:7c:35:99:1a:42:8b:57:e8:9f:b1:1a:d7:
        3c:e5:9e:2b:e3:38:89:cd:99:34:8a:e7:9d:64:ab:5d:76:3f:
        db:fb:9e:96:ec:31:49:c6:f5:89:82:4b:54:84:3d:e1:68:88:
        c1:07:be:d2:7a:96:41:47:52:0c:33:69:af:25:d6:ce:ea:3b:
        85:29:12:62:a1:32:2b:83:9e:58:db:b6:c9:5f:fe:bd:5e:07:
        bb:93:54:15:fc:3b:df:4d:6d:2e:ab:82:dd:5d:8a:d0:82:85:
        54:4f:ae:d5:ee:e0:9e:24:67:45:24:ec:82:cb:9e:fd:ed:51:
        06:6e:f8:f5:3e:46:de:ea:7e:b2:f6:3a:c9:85:8d:ef:e8:d0:
        24:da:fb:68:bb:82:27:7e:ea:34:ed:c4:d7:61:6c:a5:8c:5a:
        5a:9d:a3:80:3c:19:a7:60:4c:c3:74:6e:88:e8:71:67:df:16:
        55:f3:8c:ee:1f:fe:c5:6e:fe:0e:e1:90:d0:b6:e8:49:23:96:
        56:8e:92:9f:50:55:b1:bb:28:26:fe:be:5a:8c:cf:d1:79:9b:
        0a:56:2c:e0:9f:e1
-----BEGIN CERTIFICATE REQUEST-----
MIID8TCCAlkCAQAwNTELMAkGA1UEBhMCRlIxEjAQBgNVBAoMCU5vZGVPUENVQTES
MBAGA1UEAwwJTm9kZU9QQ1VBMIIBojANBgkqhkiG9w0BAQEFAAOCAY8AMIIBigKC
AYEA5avs19U5i06ahSR2t8URy2JlkR2Yx5eJSgsyqbDEdgL0Zinms3Djno7F5bs1
O8HwT6eJPnZzllfcdiHktkSgpef6pf3dJ9wsAWxu/I6b0EBRwhun5e5d9lFxoMzS
mbnV4IC3UExyS7ULORV2TXik7BO4T83MUC07jY8uuMigNJ1nJuTQju58oDK3Mf2D
e/TASMVDtBwRFHNLCdbtsWXJM0lQigyso6lVr9cJQDhT93C1XW4AAaSNRLI4YCKp
H/rBIQxyjErMHZfuTPI6LFy/rRzIw3eeFoUeg2hDgPelRZ7pNptW+XkmParLAE1f
U9g7hNlHKz7Ers27uJwXwO576n0XCSyn1ztaZBXq5PWH8EPUlNVwUUYk0IyLLPRy
TM0D/FDh6n2ONo5NuN664Un3nJfx3vJepOGsYq7Zp2KiY5TNALwUwV6FaEVG6abG
ScAZUAuarvEYToHCYmalyyPJDvYCpTNOs6dbkBfXJ1AqvzGZk76xH4M3In3lPqRy
6IQzAgMBAAGgdzB1BgkqhkiG9w0BCQ4xaDBmMAkGA1UdEwQCMAAwDgYDVR0PAQH/
BAQDAgEGMEkGA1UdEQRCMECGKnVybjplOTlkNTQ2NmY3YmI6Tm9kZU9QQ1VBLURp
c2NvdmVyeVNlcnZlcoIMZTk5ZDU0NjZmN2JihwR/AAABMA0GCSqGSIb3DQEBCwUA
A4IBgQB6P++Q7KxKzp4ho3N56/DT23dKWmgK2TcH9EXvsRe8C7QAn+nyOi00rPxg
brJURSAQ5yEoMpkvLuLgKKrf1OXt1swyiLBfAGCkiDepCd/OQjS9/p21Cq7KEgFW
C5VzMb7y+8A8U1Efnxuz7gsMwTRaGGZz2BKyoKSNhub6/GBQ7qrdtL6L8TYWJ5VO
9T8fGkAEepe3krxJ5cjWi4mdX48buNQmSFuIGd58NZkaQotX6J+xGtc85Z4r4ziJ
zZk0iuedZKtddj/b+56W7DFJxvWJgktUhD3haIjBB77SepZBR1IMM2mvJdbO6juF
KRJioTIrg55Y27bJX/69Xge7k1QV/DvfTW0uq4LdXYrQgoVUT67V7uCeJGdFJOyC
y5797VEGbvj1Pkbe6n6y9jrJhY3v6NAk2vtou4Infuo07cTXYWyljFpanaOAPBmn
YEzDdG6I6HFn3xZV84zuH/7Fbv4O4ZDQtuhJI5ZWjpKfUFWxuygm/r5ajM/ReZsK
Vizgn+E=
-----END CERTIFICATE REQUEST-----
