Certificate:
    Data:
        Version: 3 (0x2)
        Serial Number: 4147 (0x1033)
        Signature Algorithm: sha256WithRSAEncryption
        Issuer: O=NodeOPCUA, CN=NodeOPCUA
        Validity
            Not Before: Mar 19 02:38:47 2024 GMT
            Not After : Mar 19 02:38:47 2025 GMT
        Subject: O=NodeOPCUA, CN=NodeOPCUA
        Subject Public Key Info:
            Public Key Algorithm: rsaEncryption
                Public-Key: (3072 bit)
                Modulus:
                    00:e5:ab:ec:d7:d5:39:8b:4e:9a:85:24:76:b7:c5:
                    11:cb:62:65:91:1d:98:c7:97:89:4a:0b:32:a9:b0:
                    c4:76:02:f4:66:29:e6:b3:70:e3:9e:8e:c5:e5:bb:
                    35:3b:c1:f0:4f:a7:89:3e:76:73:96:57:dc:76:21:
                    e4:b6:44:a0:a5:e7:fa:a5:fd:dd:27:dc:2c:01:6c:
                    6e:fc:8e:9b:d0:40:51:c2:1b:a7:e5:ee:5d:f6:51:
                    71:a0:cc:d2:99:b9:d5:e0:80:b7:50:4c:72:4b:b5:
                    0b:39:15:76:4d:78:a4:ec:13:b8:4f:cd:cc:50:2d:
                    3b:8d:8f:2e:b8:c8:a0:34:9d:67:26:e4:d0:8e:ee:
                    7c:a0:32:b7:31:fd:83:7b:f4:c0:48:c5:43:b4:1c:
                    11:14:73:4b:09:d6:ed:b1:65:c9:33:49:50:8a:0c:
                    ac:a3:a9:55:af:d7:09:40:38:53:f7:70:b5:5d:6e:
                    00:01:a4:8d:44:b2:38:60:22:a9:1f:fa:c1:21:0c:
                    72:8c:4a:cc:1d:97:ee:4c:f2:3a:2c:5c:bf:ad:1c:
                    c8:c3:77:9e:16:85:1e:83:68:43:80:f7:a5:45:9e:
                    e9:36:9b:56:f9:79:26:3d:aa:cb:00:4d:5f:53:d8:
                    3b:84:d9:47:2b:3e:c4:ae:cd:bb:b8:9c:17:c0:ee:
                    7b:ea:7d:17:09:2c:a7:d7:3b:5a:64:15:ea:e4:f5:
                    87:f0:43:d4:94:d5:70:51:46:24:d0:8c:8b:2c:f4:
                    72:4c:cd:03:fc:50:e1:ea:7d:8e:36:8e:4d:b8:de:
                    ba:e1:49:f7:9c:97:f1:de:f2:5e:a4:e1:ac:62:ae:
                    d9:a7:62:a2:63:94:cd:00:bc:14:c1:5e:85:68:45:
                    46:e9:a6:c6:49:c0:19:50:0b:9a:ae:f1:18:4e:81:
                    c2:62:66:a5:cb:23:c9:0e:f6:02:a5:33:4e:b3:a7:
                    5b:90:17:d7:27:50:2a:bf:31:99:93:be:b1:1f:83:
                    37:22:7d:e5:3e:a4:72:e8:84:33
                Exponent: 65537 (0x10001)
        X509v3 extensions:
            X509v3 Basic Constraints: critical
                CA:FALSE
            X509v3 Subject Key Identifier: 
                A3:AD:AD:94:1F:23:97:B5:CB:3A:1F:C7:35:D2:B7:5C:9A:BC:98:D4
            X509v3 Authority Key Identifier: 
                DirName:/O=NodeOPCUA/CN=NodeOPCUA
                serial:10:33
            X509v3 Subject Alternative Name: 
                URI:urn:e99d5466f7bb:NodeOPCUA-DiscoveryServer, DNS:e99d5466f7bb
            Netscape Comment: 
                OpenSSL Generated Certificate
            X509v3 Key Usage: critical
                Digital Signature, Non Repudiation, Key Encipherment, Data Encipherment, Key Agreement, Certificate Sign
            X509v3 Extended Key Usage: critical
                TLS Web Server Authentication, TLS Web Client Authentication
    Signature Algorithm: sha256WithRSAEncryption
    Signature Value:
        7a:96:fd:79:0e:b8:53:77:a1:c4:f0:c5:27:56:c9:f5:06:70:
        c9:4d:d2:ab:8b:ff:b0:15:f2:d5:26:c3:22:00:c6:90:4a:29:
        b4:88:25:47:97:c0:c4:6f:ea:e4:48:6f:50:e8:90:cd:4a:e1:
        cc:1b:30:c1:14:2f:a5:c3:2c:2c:79:04:cf:61:bd:38:97:c4:
        12:fe:d5:88:55:e7:87:8c:24:69:39:c1:42:7a:78:b5:ff:39:
        e1:6c:90:26:f0:8a:dc:8c:d3:dc:9a:6d:36:13:c8:09:62:df:
        35:3f:5e:81:61:4f:92:dd:08:52:74:5a:a3:12:8f:9c:44:19:
        2a:da:95:4b:45:c1:4f:b0:aa:08:f6:be:4f:ca:f8:0b:b8:64:
        23:85:13:22:d4:e2:8e:81:ca:36:61:1f:c1:1c:10:2d:aa:e4:
        f4:d4:17:3c:a2:a3:86:5e:b6:32:be:be:47:fe:10:67:8f:cf:
        43:31:d0:a9:17:b0:75:ef:54:7c:19:08:64:6b:59:16:39:80:
        bf:82:a2:2b:91:17:25:66:da:a7:f7:ce:a0:2d:1d:cd:a5:64:
        53:a4:b4:c5:6c:80:20:00:8d:0a:70:35:4b:6a:a5:11:5f:6d:
        f6:9c:87:86:21:d6:6e:1a:91:63:56:f7:70:80:1f:3f:bc:71:
        9c:88:7e:90:55:f2:af:e2:1f:a5:ef:b6:40:bd:e5:96:64:f6:
        67:2d:b0:a3:93:96:5c:f0:71:f7:d8:95:e3:ee:38:0f:38:cc:
        7e:33:9f:6e:cf:37:e0:5c:ae:12:32:50:31:04:93:65:08:40:
        e3:b9:90:2f:2e:65:61:84:40:26:d0:cc:fa:8e:6b:b7:19:94:
        4b:98:97:78:27:39:6a:d4:f3:8d:ad:20:0d:9e:cd:6e:fb:a2:
        e9:1e:70:8a:f2:04:1f:5c:18:37:d8:91:b4:60:b0:c0:be:28:
        8c:58:d6:49:6f:0c:d4:44:c6:73:7b:c6:ce:1c:24:bf:c3:d5:
        2f:91:af:0a:5a:ec
-----BEGIN CERTIFICATE-----
MIIE4TCCA0mgAwIBAgICEDMwDQYJKoZIhvcNAQELBQAwKDESMBAGA1UEChMJTm9k
ZU9QQ1VBMRIwEAYDVQQDEwlOb2RlT1BDVUEwHhcNMjQwMzE5MDIzODQ3WhcNMjUw
MzE5MDIzODQ3WjAoMRIwEAYDVQQKEwlOb2RlT1BDVUExEjAQBgNVBAMTCU5vZGVP
UENVQTCCAaIwDQYJKoZIhvcNAQEBBQADggGPADCCAYoCggGBAOWr7NfVOYtOmoUk
drfFEctiZZEdmMeXiUoLMqmwxHYC9GYp5rNw456OxeW7NTvB8E+niT52c5ZX3HYh
5LZEoKXn+qX93SfcLAFsbvyOm9BAUcIbp+XuXfZRcaDM0pm51eCAt1BMcku1CzkV
dk14pOwTuE/NzFAtO42PLrjIoDSdZybk0I7ufKAytzH9g3v0wEjFQ7QcERRzSwnW
7bFlyTNJUIoMrKOpVa/XCUA4U/dwtV1uAAGkjUSyOGAiqR/6wSEMcoxKzB2X7kzy
Oixcv60cyMN3nhaFHoNoQ4D3pUWe6TabVvl5Jj2qywBNX1PYO4TZRys+xK7Nu7ic
F8Due+p9Fwksp9c7WmQV6uT1h/BD1JTVcFFGJNCMiyz0ckzNA/xQ4ep9jjaOTbje
uuFJ95yX8d7yXqThrGKu2adiomOUzQC8FMFehWhFRummxknAGVALmq7xGE6BwmJm
pcsjyQ72AqUzTrOnW5AX1ydQKr8xmZO+sR+DNyJ95T6kcuiEMwIDAQABo4IBEzCC
AQ8wDAYDVR0TAQH/BAIwADAdBgNVHQ4EFgQUo62tlB8jl7XLOh/HNdK3XJq8mNQw
OwYDVR0jBDQwMqEspCowKDESMBAGA1UEChMJTm9kZU9QQ1VBMRIwEAYDVQQDEwlO
b2RlT1BDVUGCAhAzMEMGA1UdEQQ8MDqGKnVybjplOTlkNTQ2NmY3YmI6Tm9kZU9Q
Q1VBLURpc2NvdmVyeVNlcnZlcoIMZTk5ZDU0NjZmN2JiMCwGCWCGSAGG+EIBDQQf
Fh1PcGVuU1NMIEdlbmVyYXRlZCBDZXJ0aWZpY2F0ZTAOBgNVHQ8BAf8EBAMCAvww
IAYDVR0lAQH/BBYwFAYIKwYBBQUHAwEGCCsGAQUFBwMCMA0GCSqGSIb3DQEBCwUA
A4IBgQB6lv15DrhTd6HE8MUnVsn1BnDJTdKri/+wFfLVJsMiAMaQSim0iCVHl8DE
b+rkSG9Q6JDNSuHMGzDBFC+lwywseQTPYb04l8QS/tWIVeeHjCRpOcFCeni1/znh
bJAm8IrcjNPcmm02E8gJYt81P16BYU+S3QhSdFqjEo+cRBkq2pVLRcFPsKoI9r5P
yvgLuGQjhRMi1OKOgco2YR/BHBAtquT01Bc8oqOGXrYyvr5H/hBnj89DMdCpF7B1
71R8GQhka1kWOYC/gqIrkRclZtqn986gLR3NpWRTpLTFbIAgAI0KcDVLaqURX232
nIeGIdZuGpFjVvdwgB8/vHGciH6QVfKv4h+l77ZAveWWZPZnLbCjk5Zc8HH32JXj
7jgPOMx+M59uzzfgXK4SMlAxBJNlCEDjuZAvLmVhhEAm0Mz6jmu3GZRLmJd4Jzlq
1PONrSANns1u+6LpHnCK8gQfXBg32JG0YLDAviiMWNZJbwzURMZze8bOHCS/w9Uv
ka8KWuw=
-----END CERTIFICATE-----
