Certificate Request:
    Data:
        Version: 1 (0x0)
        Subject: C = FR, O = NodeOPCUA, CN = NodeOPCUA
        Subject Public Key Info:
            Public Key Algorithm: rsaEncryption
                Public-Key: (2048 bit)
                Modulus:
                    00:b0:fb:df:1c:d6:1b:75:d6:e7:7c:54:0c:66:54:
                    59:77:e1:af:62:a6:05:41:31:dd:38:cd:b1:34:80:
                    a2:48:68:bc:1a:72:0f:d2:28:97:58:14:ce:6c:70:
                    3b:23:43:9e:a0:94:9f:f4:81:56:14:3f:40:4f:d9:
                    ca:4a:44:40:c3:64:8a:78:47:73:a5:1f:05:b5:6a:
                    89:45:df:ae:84:cd:b5:ff:87:63:9b:bb:27:da:22:
                    87:8b:ca:e8:cc:80:e7:5e:e9:0b:2e:61:08:28:0d:
                    21:f9:a9:b2:62:5e:bc:52:8e:ac:8c:9a:6a:7b:3c:
                    1e:33:0b:4b:31:ba:10:20:0d:25:91:94:78:fc:0d:
                    40:58:9a:47:a9:dc:54:ba:7e:c9:74:58:da:30:f5:
                    dc:9b:29:93:91:b3:f3:85:66:2a:5c:d1:76:95:03:
                    6b:09:39:57:03:9c:e0:50:55:47:e7:3e:b3:d0:6f:
                    be:37:4c:9b:29:37:ac:62:d2:13:03:22:92:f7:df:
                    50:86:54:29:aa:41:aa:a2:78:32:f5:e1:4a:88:fe:
                    db:4d:4c:ac:86:5c:39:b7:e2:cd:84:36:97:de:d5:
                    09:2b:3b:73:ca:0f:40:57:44:9f:f5:b8:24:68:6e:
                    f8:f1:77:5a:7d:f4:af:eb:8f:4d:d7:90:6e:6a:dc:
                    bf:fd
                Exponent: 65537 (0x10001)
        Attributes:
            Requested Extensions:
                X509v3 Basic Constraints: 
                    CA:FALSE
                X509v3 Key Usage: critical
                    Certificate Sign, CRL Sign
                X509v3 Subject Alternative Name: 
                    URI:urn:e99d5466f7bb:NodeOPCUA-DiscoveryServer, DNS:e99d5466f7bb, IP Address:127.0.0.1
    Signature Algorithm: sha256WithRSAEncryption
    Signature Value:
        10:ff:7b:3e:ee:2b:5a:60:77:32:3a:e5:a7:8f:ff:5a:0e:f8:
        1a:a3:5c:60:71:36:85:b5:b5:a2:82:2f:e8:1e:d5:d0:0f:7d:
        fa:fa:94:d8:5c:30:c8:17:a6:b5:85:f3:06:61:b7:4f:bc:4f:
        79:fe:b9:f2:df:84:b9:86:e8:b0:3c:54:c6:b3:c3:89:73:14:
        39:f1:e1:ce:c1:fb:c4:42:e2:a4:62:ab:08:5f:26:19:09:78:
        21:e4:28:05:14:f3:b4:b3:e1:3d:82:88:c0:f0:76:04:3a:f3:
        05:49:0b:6c:44:77:d2:6c:11:e2:a0:96:ea:7f:11:19:7e:54:
        04:08:36:d9:51:15:7b:a4:a5:e6:b1:47:99:61:bc:e8:09:42:
        cf:72:27:b9:b2:4b:71:54:19:af:7d:9c:55:9e:96:e0:0a:df:
        ef:69:d4:bf:0c:51:2e:b5:09:26:33:be:a1:6f:f0:99:d3:4d:
        26:25:58:1b:01:64:aa:3c:45:fb:56:ca:80:81:ce:2c:6a:15:
        66:85:1b:62:1b:7f:80:91:77:ae:7f:5c:b2:05:d3:b4:b6:d7:
        49:af:e6:cd:b5:9c:04:91:a9:a9:5e:4c:8e:cc:44:d9:05:74:
        93:ef:96:6a:c4:99:75:c6:fc:3f:de:b3:17:20:ca:2b:f5:17:
        1b:30:12:b4
-----BEGIN CERTIFICATE REQUEST-----
MIIC8TCCAdkCAQAwNTELMAkGA1UEBhMCRlIxEjAQBgNVBAoMCU5vZGVPUENVQTES
MBAGA1UEAwwJTm9kZU9QQ1VBMIIBIjANBgkqhkiG9w0BAQEFAAOCAQ8AMIIBCgKC
AQEAsPvfHNYbddbnfFQMZlRZd+GvYqYFQTHdOM2xNICiSGi8GnIP0iiXWBTObHA7
I0OeoJSf9IFWFD9AT9nKSkRAw2SKeEdzpR8FtWqJRd+uhM21/4djm7sn2iKHi8ro
zIDnXukLLmEIKA0h+amyYl68Uo6sjJpqezweMwtLMboQIA0lkZR4/A1AWJpHqdxU
un7JdFjaMPXcmymTkbPzhWYqXNF2lQNrCTlXA5zgUFVH5z6z0G++N0ybKTesYtIT
AyKS999QhlQpqkGqongy9eFKiP7bTUyshlw5t+LNhDaX3tUJKztzyg9AV0Sf9bgk
aG748XdaffSv649N15Buaty//QIDAQABoHcwdQYJKoZIhvcNAQkOMWgwZjAJBgNV
HRMEAjAAMA4GA1UdDwEB/wQEAwIBBjBJBgNVHREEQjBAhip1cm46ZTk5ZDU0NjZm
N2JiOk5vZGVPUENVQS1EaXNjb3ZlcnlTZXJ2ZXKCDGU5OWQ1NDY2ZjdiYocEfwAA
ATANBgkqhkiG9w0BAQsFAAOCAQEAEP97Pu4rWmB3Mjrlp4//Wg74GqNcYHE2hbW1
ooIv6B7V0A99+vqU2FwwyBemtYXzBmG3T7xPef658t+EuYbosDxUxrPDiXMUOfHh
zsH7xELipGKrCF8mGQl4IeQoBRTztLPhPYKIwPB2BDrzBUkLbER30mwR4qCW6n8R
GX5UBAg22VEVe6Sl5rFHmWG86AlCz3InubJLcVQZr32cVZ6W4Arf72nUvwxRLrUJ
JjO+oW/wmdNNJiVYGwFkqjxF+1bKgIHOLGoVZoUbYht/gJF3rn9csgXTtLbXSa/m
zbWcBJGpqV5MjsxE2QV0k++WasSZdcb8P96zFyDKK/UXGzAStA==
-----END CERTIFICATE REQUEST-----
