Certificate Request:
    Data:
        Version: 1 (0x0)
        Subject: C = FR, O = NodeOPCUA, CN = NodeOPCUA
        Subject Public Key Info:
            Public Key Algorithm: rsaEncryption
                Public-Key: (1024 bit)
                Modulus:
                    00:d5:11:01:e6:25:f2:a0:72:f9:d9:18:bc:83:3a:
                    59:1f:c1:9e:03:36:14:03:72:a2:54:f5:b1:51:ac:
                    3b:8e:53:61:dc:f7:b9:bf:3c:fe:5c:b6:98:91:ba:
                    55:6e:3c:39:ca:48:b9:8a:00:0d:b1:71:f4:07:65:
                    80:e8:b3:0c:49:d2:55:6d:8e:c2:f9:19:42:35:85:
                    55:49:d8:e1:98:ea:37:51:40:e6:31:f9:b6:d2:28:
                    be:f0:5b:89:be:90:df:df:fb:82:cb:06:79:a2:0c:
                    da:df:e1:b1:de:76:ad:a5:60:73:ad:f2:d2:85:7d:
                    e3:81:4d:25:53:75:20:bb:49
                Exponent: 65537 (0x10001)
        Attributes:
            Requested Extensions:
                X509v3 Basic Constraints: 
                    CA:FALSE
                X509v3 Key Usage: critical
                    Certificate Sign, CRL Sign
                X509v3 Subject Alternative Name: 
                    URI:urn:e99d5466f7bb:NodeOPCUA-DiscoveryServerRevoked, DNS:e99d5466f7bb, IP Address:127.0.0.1
    Signature Algorithm: sha256WithRSAEncryption
    Signature Value:
        37:cd:cb:b9:6b:94:d9:70:08:df:e3:3c:66:bf:74:9b:1e:6c:
        aa:69:b6:05:47:a4:17:34:c2:b3:64:8e:60:98:67:ee:dc:8c:
        7b:72:32:dd:8b:50:b8:4d:57:20:63:b7:e9:fd:58:56:4f:f3:
        b8:d3:97:3d:95:c0:ea:1c:7b:6f:22:b9:d2:59:f8:73:3a:07:
        db:51:e8:27:aa:8f:70:ba:f1:2d:86:0f:1f:70:81:0c:7d:09:
        83:26:5b:64:ac:75:ec:fb:95:c4:26:f2:f0:ff:77:11:df:d5:
        d4:fa:0c:83:f4:18:d9:ec:21:cb:e3:ed:e8:e0:02:8b:70:30:
        c9:8c
-----BEGIN CERTIFICATE REQUEST-----
MIIB8zCCAVwCAQAwNTELMAkGA1UEBhMCRlIxEjAQBgNVBAoMCU5vZGVPUENVQTES
MBAGA1UEAwwJTm9kZU9QQ1VBMIGfMA0GCSqGSIb3DQEBAQUAA4GNADCBiQKBgQDV
EQHmJfKgcvnZGLyDOlkfwZ4DNhQDcqJU9bFRrDuOU2Hc97m/PP5ctpiRulVuPDnK
SLmKAA2xcfQHZYDoswxJ0lVtjsL5GUI1hVVJ2OGY6jdRQOYx+bbSKL7wW4m+kN/f
+4LLBnmiDNrf4bHedq2lYHOt8tKFfeOBTSVTdSC7SQIDAQABoH4wfAYJKoZIhvcN
AQkOMW8wbTAJBgNVHRMEAjAAMA4GA1UdDwEB/wQEAwIBBjBQBgNVHREESTBHhjF1
cm46ZTk5ZDU0NjZmN2JiOk5vZGVPUENVQS1EaXNjb3ZlcnlTZXJ2ZXJSZXZva2Vk
ggxlOTlkNTQ2NmY3YmKHBH8AAAEwDQYJKoZIhvcNAQELBQADgYEAN83LuWuU2XAI
3+M8Zr90mx5sqmm2BUekFzTCs2SOYJhn7tyMe3Iy3YtQuE1XIGO36f1YVk/zuNOX
PZXA6hx7byK50ln4czoH21HoJ6qPcLrxLYYPH3CBDH0JgyZbZKx17PuVxCby8P93
Ed/V1PoMg/QY2ewhy+Pt6OACi3AwyYw=
-----END CERTIFICATE REQUEST-----
