Certificate Request:
    Data:
        Version: 1 (0x0)
        Subject: C = FR, O = NodeOPCUA, CN = NodeOPCUA
        Subject Public Key Info:
            Public Key Algorithm: rsaEncryption
                Public-Key: (3072 bit)
                Modulus:
                    00:e5:ab:ec:d7:d5:39:8b:4e:9a:85:24:76:b7:c5:
                    11:cb:62:65:91:1d:98:c7:97:89:4a:0b:32:a9:b0:
                    c4:76:02:f4:66:29:e6:b3:70:e3:9e:8e:c5:e5:bb:
                    35:3b:c1:f0:4f:a7:89:3e:76:73:96:57:dc:76:21:
                    e4:b6:44:a0:a5:e7:fa:a5:fd:dd:27:dc:2c:01:6c:
                    6e:fc:8e:9b:d0:40:51:c2:1b:a7:e5:ee:5d:f6:51:
                    71:a0:cc:d2:99:b9:d5:e0:80:b7:50:4c:72:4b:b5:
                    0b:39:15:76:4d:78:a4:ec:13:b8:4f:cd:cc:50:2d:
                    3b:8d:8f:2e:b8:c8:a0:34:9d:67:26:e4:d0:8e:ee:
                    7c:a0:32:b7:31:fd:83:7b:f4:c0:48:c5:43:b4:1c:
                    11:14:73:4b:09:d6:ed:b1:65:c9:33:49:50:8a:0c:
                    ac:a3:a9:55:af:d7:09:40:38:53:f7:70:b5:5d:6e:
                    00:01:a4:8d:44:b2:38:60:22:a9:1f:fa:c1:21:0c:
                    72:8c:4a:cc:1d:97:ee:4c:f2:3a:2c:5c:bf:ad:1c:
                    c8:c3:77:9e:16:85:1e:83:68:43:80:f7:a5:45:9e:
                    e9:36:9b:56:f9:79:26:3d:aa:cb:00:4d:5f:53:d8:
                    3b:84:d9:47:2b:3e:c4:ae:cd:bb:b8:9c:17:c0:ee:
                    7b:ea:7d:17:09:2c:a7:d7:3b:5a:64:15:ea:e4:f5:
                    87:f0:43:d4:94:d5:70:51:46:24:d0:8c:8b:2c:f4:
                    72:4c:cd:03:fc:50:e1:ea:7d:8e:36:8e:4d:b8:de:
                    ba:e1:49:f7:9c:97:f1:de:f2:5e:a4:e1:ac:62:ae:
                    d9:a7:62:a2:63:94:cd:00:bc:14:c1:5e:85:68:45:
                    46:e9:a6:c6:49:c0:19:50:0b:9a:ae:f1:18:4e:81:
                    c2:62:66:a5:cb:23:c9:0e:f6:02:a5:33:4e:b3:a7:
                    5b:90:17:d7:27:50:2a:bf:31:99:93:be:b1:1f:83:
                    37:22:7d:e5:3e:a4:72:e8:84:33
                Exponent: 65537 (0x10001)
        Attributes:
            Requested Extensions:
                X509v3 Basic Constraints: 
                    CA:FALSE
                X509v3 Key Usage: critical
                    Certificate Sign, CRL Sign
                X509v3 Subject Alternative Name: 
                    URI:urn:e99d5466f7bb:NodeOPCUA-DiscoveryServerRevoked, DNS:e99d5466f7bb, IP Address:127.0.0.1
    Signature Algorithm: sha256WithRSAEncryption
    Signature Value:
        23:e1:20:0f:d6:cc:da:3f:ca:e9:db:5e:17:5b:d8:a4:cc:cf:
        b1:78:64:56:bb:59:b9:b7:16:8f:92:05:19:ce:25:ee:e2:f6:
        72:48:bb:ab:43:09:72:74:39:52:97:27:ca:f1:90:d3:6d:42:
        3c:a0:41:a7:c9:be:bb:09:6f:23:91:09:53:8e:94:30:32:2b:
        1e:02:71:74:fb:c3:39:e5:7e:23:85:e2:4c:4c:76:fd:aa:33:
        9c:57:f9:35:bf:26:ae:af:bc:54:de:cf:ec:50:a6:50:ef:d1:
        09:d6:55:e6:07:0d:35:89:c4:d1:b4:0e:68:c7:29:bc:a6:f6:
        e8:8b:9c:7e:b1:93:29:63:d4:64:13:d7:d5:aa:c7:7b:be:96:
        e0:53:a7:b2:67:56:b8:94:b0:41:6b:d7:ba:dd:dd:a9:cc:d5:
        ed:f8:8d:6d:1c:45:9c:cf:c8:3e:75:c5:aa:87:d6:10:a7:9e:
        c4:fa:11:d9:b0:91:0f:f5:38:e4:80:39:a5:fc:65:c2:59:f9:
        0d:53:f9:87:a0:38:10:d1:be:eb:1f:43:de:2a:f4:b6:57:05:
        52:ed:7d:d6:d3:da:1b:ef:df:5a:13:4d:3e:7c:88:0c:e9:2e:
        d2:29:74:2d:1f:b3:20:c0:0c:96:ec:05:da:dd:47:cd:a5:2b:
        8c:78:93:6d:9a:cf:20:bb:7c:86:cf:c0:91:7d:a1:f0:bd:68:
        61:ae:03:65:f2:fe:e3:0a:c0:db:78:ae:eb:65:71:a3:8e:8d:
        44:d6:da:36:43:3e:ca:b1:c3:2b:33:e6:25:9e:2c:c8:26:6a:
        ff:ec:b3:c8:ae:ac:57:c0:81:c9:e1:da:0f:d3:63:a4:ae:4e:
        81:b7:2a:e8:ac:ba:98:56:85:50:d6:f0:24:13:04:03:df:2f:
        5e:fc:f2:26:d5:a5:9c:41:e5:e2:db:e5:c1:62:bd:41:99:66:
        19:e0:16:29:b7:58:7b:84:ae:70:fa:0e:3c:bf:3d:7f:b3:4c:
        05:38:bf:36:4a:08
-----BEGIN CERTIFICATE REQUEST-----
MIID+DCCAmACAQAwNTELMAkGA1UEBhMCRlIxEjAQBgNVBAoMCU5vZGVPUENVQTES
MBAGA1UEAwwJTm9kZU9QQ1VBMIIBojANBgkqhkiG9w0BAQEFAAOCAY8AMIIBigKC
AYEA5avs19U5i06ahSR2t8URy2JlkR2Yx5eJSgsyqbDEdgL0Zinms3Djno7F5bs1
O8HwT6eJPnZzllfcdiHktkSgpef6pf3dJ9wsAWxu/I6b0EBRwhun5e5d9lFxoMzS
mbnV4IC3UExyS7ULORV2TXik7BO4T83MUC07jY8uuMigNJ1nJuTQju58oDK3Mf2D
e/TASMVDtBwRFHNLCdbtsWXJM0lQigyso6lVr9cJQDhT93C1XW4AAaSNRLI4YCKp
H/rBIQxyjErMHZfuTPI6LFy/rRzIw3eeFoUeg2hDgPelRZ7pNptW+XkmParLAE1f
U9g7hNlHKz7Ers27uJwXwO576n0XCSyn1ztaZBXq5PWH8EPUlNVwUUYk0IyLLPRy
TM0D/FDh6n2ONo5NuN664Un3nJfx3vJepOGsYq7Zp2KiY5TNALwUwV6FaEVG6abG
ScAZUAuarvEYToHCYmalyyPJDvYCpTNOs6dbkBfXJ1AqvzGZk76xH4M3In3lPqRy
6IQzAgMBAAGgfjB8BgkqhkiG9w0BCQ4xbzBtMAkGA1UdEwQCMAAwDgYDVR0PAQH/
BAQDAgEGMFAGA1UdEQRJMEeGMXVybjplOTlkNTQ2NmY3YmI6Tm9kZU9QQ1VBLURp
c2NvdmVyeVNlcnZlclJldm9rZWSCDGU5OWQ1NDY2ZjdiYocEfwAAATANBgkqhkiG
9w0BAQsFAAOCAYEAI+EgD9bM2j/K6dteF1vYpMzPsXhkVrtZubcWj5IFGc4l7uL2
cki7q0MJcnQ5UpcnyvGQ021CPKBBp8m+uwlvI5EJU46UMDIrHgJxdPvDOeV+I4Xi
TEx2/aoznFf5Nb8mrq+8VN7P7FCmUO/RCdZV5gcNNYnE0bQOaMcpvKb26IucfrGT
KWPUZBPX1arHe76W4FOnsmdWuJSwQWvXut3dqczV7fiNbRxFnM/IPnXFqofWEKee
xPoR2bCRD/U45IA5pfxlwln5DVP5h6A4ENG+6x9D3ir0tlcFUu191tPaG+/fWhNN
PnyIDOku0il0LR+zIMAMluwF2t1HzaUrjHiTbZrPILt8hs/AkX2h8L1oYa4DZfL+
4wrA23iu62Vxo46NRNbaNkM+yrHDKzPmJZ4syCZq/+yzyK6sV8CByeHaD9NjpK5O
gbcq6Ky6mFaFUNbwJBMEA98vXvzyJtWlnEHl4tvlwWK9QZlmGeAWKbdYe4SucPoO
PL89f7NMBTi/NkoI
-----END CERTIFICATE REQUEST-----
