Certificate Request:
    Data:
        Version: 1 (0x0)
        Subject: C = FR, O = NodeOPCUA, CN = NodeOPCUA
        Subject Public Key Info:
            Public Key Algorithm: rsaEncryption
                Public-Key: (4096 bit)
                Modulus:
                    00:b3:2b:76:07:ac:0f:02:fc:8a:28:a4:38:25:eb:
                    c9:64:f8:0e:32:16:e8:c2:e8:91:52:de:e2:e8:45:
                    ee:8f:b4:05:3a:19:d4:9b:19:c2:ea:bb:24:b1:8a:
                    8c:d9:5f:aa:57:a7:cb:ee:b0:31:83:b0:02:13:26:
                    6e:39:38:44:7f:17:a3:7c:9d:35:0b:c4:85:02:da:
                    5f:5f:93:f9:75:c9:72:33:e1:60:87:65:94:15:09:
                    10:f0:ad:4a:c1:3b:8d:05:06:13:46:5f:ca:c5:cf:
                    ce:1e:ac:d9:1d:2a:d6:20:e6:20:10:ce:56:e7:d5:
                    01:8f:b6:c0:ba:28:fc:13:31:bf:ae:90:11:8c:cf:
                    9c:c6:8a:e6:02:cc:10:00:f7:58:ef:98:2f:5d:8f:
                    52:91:f0:8c:1c:67:ad:2f:08:a9:18:ad:94:11:e9:
                    1e:8e:b3:4f:55:6c:c5:c3:4d:37:ca:bd:83:2a:c8:
                    f5:d0:3b:15:a7:f7:00:e5:43:ea:f7:7b:db:89:6e:
                    04:2b:76:f8:b1:2e:f0:06:32:48:59:9e:11:24:47:
                    1d:f6:a2:42:c8:62:13:32:3a:d0:b7:af:c4:80:00:
                    15:9c:f5:c7:ac:49:29:f2:bb:88:12:ca:c1:69:6e:
                    ca:ff:f1:cd:84:71:00:89:49:ca:ca:16:38:22:45:
                    2f:48:4d:81:24:29:7e:e1:86:02:2f:af:b8:87:9e:
                    e8:01:b8:e3:6e:87:dd:e2:bb:4b:1c:61:81:1a:e1:
                    3f:f7:e9:4e:20:a6:21:c0:b2:42:26:32:e6:3e:5d:
                    ff:5f:ce:ba:b7:9f:31:0c:3b:5b:ad:69:fb:9f:b7:
                    c2:57:84:48:7b:89:08:ba:72:79:4a:fc:23:bf:fd:
                    78:8b:14:4f:4b:0a:98:d1:3a:ca:9a:d3:68:fe:2d:
                    79:0b:63:bd:91:2d:65:3c:e5:68:4f:9e:cf:fd:4a:
                    2c:6d:ca:14:55:a8:6f:f9:ab:37:1f:8f:5c:e4:07:
                    15:bb:e8:7c:3d:2b:56:bc:b5:d3:49:5f:d5:67:93:
                    60:3c:9c:7e:a1:74:f9:c2:57:34:43:bd:c1:f8:7c:
                    31:8a:a3:76:14:71:d0:94:5d:dc:4a:86:68:b4:aa:
                    bd:89:fb:e6:6d:27:1b:b4:b5:70:97:b3:d6:9a:c9:
                    a7:78:23:f7:17:4e:9c:19:6f:cd:00:5a:b7:77:5c:
                    c0:8d:a9:b2:f4:64:d1:3c:2a:cd:fb:1b:a8:f7:4f:
                    68:d0:f6:00:36:95:bb:c2:8f:a3:8a:18:a5:17:86:
                    c0:8d:b5:a6:42:2f:b8:f2:ee:82:bc:e0:b7:73:3d:
                    25:14:1f:78:07:ba:21:1f:79:bb:81:25:5d:28:13:
                    91:1c:ff
                Exponent: 65537 (0x10001)
        Attributes:
            Requested Extensions:
                X509v3 Basic Constraints: 
                    CA:FALSE
                X509v3 Key Usage: critical
                    Certificate Sign, CRL Sign
                X509v3 Subject Alternative Name: 
                    URI:urn:e99d5466f7bb:NodeOPCUA-DiscoveryServerRevoked, DNS:e99d5466f7bb, IP Address:127.0.0.1
    Signature Algorithm: sha256WithRSAEncryption
    Signature Value:
        49:02:1c:f5:e6:c9:75:00:da:84:da:a3:83:ab:46:72:46:61:
        e4:77:3c:5c:f1:67:db:02:71:8b:eb:56:93:ed:99:39:6f:0c:
        87:89:dd:50:82:e2:81:9a:97:e2:21:fa:84:54:d9:28:48:88:
        90:30:e9:a3:ef:fe:88:e1:28:a7:b1:49:8d:20:8c:26:b1:88:
        8c:74:ac:4b:53:e8:bd:91:c5:bb:b0:6a:ae:1f:09:57:38:2a:
        8c:65:fa:86:31:6d:11:f0:9d:95:b0:34:7f:95:a6:b2:0f:fb:
        16:60:7f:69:09:99:45:7c:4f:76:3c:31:6c:50:d7:d6:1f:40:
        0e:18:10:24:0d:90:98:a5:b8:6b:23:4d:4c:c8:dd:ff:4a:06:
        54:4b:12:2f:49:7d:18:37:c6:20:1c:bd:4a:e7:20:19:6c:e9:
        94:04:8f:f1:54:3a:8c:df:bb:89:15:f0:f7:3d:a0:9c:1f:33:
        45:45:78:bd:3e:6a:dd:05:4b:76:2d:ee:a2:23:2b:cd:71:92:
        53:fc:3b:cc:a6:c6:0d:54:5e:a4:49:c8:41:57:77:8b:77:68:
        49:4b:78:c4:b5:8e:fd:0d:34:68:fc:d9:8e:61:f3:d3:e2:2b:
        ac:00:0f:2b:56:b3:61:54:f1:e6:d1:2e:b8:2b:ce:fe:60:d6:
        9d:50:a2:54:5d:77:8e:d1:f1:91:e4:fb:dd:99:5c:53:22:09:
        cc:eb:10:a0:a8:af:5b:42:0c:86:c9:13:1b:c9:e7:39:40:e3:
        46:17:21:fa:ba:32:a4:f1:05:54:ad:13:8f:42:78:53:5e:4f:
        10:49:40:ca:ca:83:df:5f:fa:91:51:b6:f4:b8:d4:b0:9a:55:
        08:69:7c:93:b6:05:4d:26:09:9f:1e:38:cd:d6:00:af:41:8c:
        df:44:00:c7:53:a6:f7:59:5c:b2:d6:a5:31:ee:d9:b7:34:3e:
        f7:49:d4:e1:cf:14:76:9d:e2:34:db:c1:63:43:53:36:7d:79:
        02:18:2e:87:da:22:d2:e3:b0:a0:76:87:16:cd:6b:14:ad:a1:
        a0:a7:41:8d:dd:da:7d:13:d5:07:19:9f:b6:d3:11:59:19:5d:
        94:e7:1b:94:30:b8:b6:1d:53:21:24:c8:1a:89:d7:d0:fd:73:
        4b:05:3c:da:ca:2e:2b:15:f3:81:86:60:11:3a:c1:46:ff:be:
        8b:9f:54:68:91:72:c0:cc:67:11:63:72:55:92:be:c4:08:47:
        cb:4f:a2:a7:a4:0d:b7:7e:9f:42:da:a5:92:b6:7a:6d:60:93:
        22:80:67:13:f9:71:9a:bd:1e:39:93:57:2f:bc:4b:f6:1e:b9:
        fe:b0:92:a9:4b:a4:da:73
-----BEGIN CERTIFICATE REQUEST-----
MIIE+DCCAuACAQAwNTELMAkGA1UEBhMCRlIxEjAQBgNVBAoMCU5vZGVPUENVQTES
MBAGA1UEAwwJTm9kZU9QQ1VBMIICIjANBgkqhkiG9w0BAQEFAAOCAg8AMIICCgKC
AgEAsyt2B6wPAvyKKKQ4JevJZPgOMhbowuiRUt7i6EXuj7QFOhnUmxnC6rsksYqM
2V+qV6fL7rAxg7ACEyZuOThEfxejfJ01C8SFAtpfX5P5dclyM+Fgh2WUFQkQ8K1K
wTuNBQYTRl/Kxc/OHqzZHSrWIOYgEM5W59UBj7bAuij8EzG/rpARjM+cxormAswQ
APdY75gvXY9SkfCMHGetLwipGK2UEekejrNPVWzFw003yr2DKsj10DsVp/cA5UPq
93vbiW4EK3b4sS7wBjJIWZ4RJEcd9qJCyGITMjrQt6/EgAAVnPXHrEkp8ruIEsrB
aW7K//HNhHEAiUnKyhY4IkUvSE2BJCl+4YYCL6+4h57oAbjjbofd4rtLHGGBGuE/
9+lOIKYhwLJCJjLmPl3/X866t58xDDtbrWn7n7fCV4RIe4kIunJ5Svwjv/14ixRP
SwqY0TrKmtNo/i15C2O9kS1lPOVoT57P/UosbcoUVahv+as3H49c5AcVu+h8PStW
vLXTSV/VZ5NgPJx+oXT5wlc0Q73B+HwxiqN2FHHQlF3cSoZotKq9ifvmbScbtLVw
l7PWmsmneCP3F06cGW/NAFq3d1zAjamy9GTRPCrN+xuo909o0PYANpW7wo+jihil
F4bAjbWmQi+48u6CvOC3cz0lFB94B7ohH3m7gSVdKBORHP8CAwEAAaB+MHwGCSqG
SIb3DQEJDjFvMG0wCQYDVR0TBAIwADAOBgNVHQ8BAf8EBAMCAQYwUAYDVR0RBEkw
R4YxdXJuOmU5OWQ1NDY2ZjdiYjpOb2RlT1BDVUEtRGlzY292ZXJ5U2VydmVyUmV2
b2tlZIIMZTk5ZDU0NjZmN2JihwR/AAABMA0GCSqGSIb3DQEBCwUAA4ICAQBJAhz1
5sl1ANqE2qODq0ZyRmHkdzxc8WfbAnGL61aT7Zk5bwyHid1QguKBmpfiIfqEVNko
SIiQMOmj7/6I4SinsUmNIIwmsYiMdKxLU+i9kcW7sGquHwlXOCqMZfqGMW0R8J2V
sDR/laayD/sWYH9pCZlFfE92PDFsUNfWH0AOGBAkDZCYpbhrI01MyN3/SgZUSxIv
SX0YN8YgHL1K5yAZbOmUBI/xVDqM37uJFfD3PaCcHzNFRXi9PmrdBUt2Le6iIyvN
cZJT/DvMpsYNVF6kSchBV3eLd2hJS3jEtY79DTRo/NmOYfPT4iusAA8rVrNhVPHm
0S64K87+YNadUKJUXXeO0fGR5PvdmVxTIgnM6xCgqK9bQgyGyRMbyec5QONGFyH6
ujKk8QVUrROPQnhTXk8QSUDKyoPfX/qRUbb0uNSwmlUIaXyTtgVNJgmfHjjN1gCv
QYzfRADHU6b3WVyy1qUx7tm3ND73SdThzxR2neI028FjQ1M2fXkCGC6H2iLS47Cg
docWzWsUraGgp0GN3dp9E9UHGZ+20xFZGV2U5xuUMLi2HVMhJMgaidfQ/XNLBTza
yi4rFfOBhmAROsFG/76Ln1RokXLAzGcRY3JVkr7ECEfLT6KnpA23fp9C2qWStnpt
YJMigGcT+XGavR45k1cvvEv2Hrn+sJKpS6Tacw==
-----END CERTIFICATE REQUEST-----
