Certificate:
    Data:
        Version: 3 (0x2)
        Serial Number: 4137 (0x1029)
        Signature Algorithm: sha256WithRSAEncryption
        Issuer: O=NodeOPCUA, CN=NodeOPCUA
        Validity
            Not Before: Mar 19 02:38:47 2024 GMT
            Not After : Mar 19 02:38:47 2025 GMT
        Subject: O=NodeOPCUA, CN=NodeOPCUA
        Subject Public Key Info:
            Public Key Algorithm: rsaEncryption
                Public-Key: (1024 bit)
                Modulus:
                    00:d5:11:01:e6:25:f2:a0:72:f9:d9:18:bc:83:3a:
                    59:1f:c1:9e:03:36:14:03:72:a2:54:f5:b1:51:ac:
                    3b:8e:53:61:dc:f7:b9:bf:3c:fe:5c:b6:98:91:ba:
                    55:6e:3c:39:ca:48:b9:8a:00:0d:b1:71:f4:07:65:
                    80:e8:b3:0c:49:d2:55:6d:8e:c2:f9:19:42:35:85:
                    55:49:d8:e1:98:ea:37:51:40:e6:31:f9:b6:d2:28:
                    be:f0:5b:89:be:90:df:df:fb:82:cb:06:79:a2:0c:
                    da:df:e1:b1:de:76:ad:a5:60:73:ad:f2:d2:85:7d:
                    e3:81:4d:25:53:75:20:bb:49
                Exponent: 65537 (0x10001)
        X509v3 extensions:
            X509v3 Basic Constraints: critical
                CA:FALSE
            X509v3 Subject Key Identifier: 
                F3:B2:06:27:20:0E:5A:3F:0B:8E:73:32:66:09:19:CE:B0:F8:85:80
            X509v3 Authority Key Identifier: 
                DirName:/O=NodeOPCUA/CN=NodeOPCUA
                serial:10:29
            X509v3 Subject Alternative Name: 
                URI:urn:e99d5466f7bb:NodeOPCUA-DiscoveryServer, DNS:e99d5466f7bb
            Netscape Comment: 
                OpenSSL Generated Certificate
            X509v3 Key Usage: critical
                Digital Signature, Non Repudiation, Key Encipherment, Data Encipherment, Key Agreement, Certificate Sign
            X509v3 Extended Key Usage: critical
                TLS Web Server Authentication, TLS Web Client Authentication
    Signature Algorithm: sha256WithRSAEncryption
    Signature Value:
        c7:64:35:ea:b6:00:67:75:af:f6:5b:5d:ae:6e:e3:7a:09:cf:
        6c:69:9e:70:f7:f1:12:75:17:b1:11:da:7c:7c:7f:73:a8:96:
        b8:e6:97:fb:db:b1:97:71:c8:60:b1:89:8e:f0:96:83:0e:bf:
        9e:41:bc:ef:74:b2:6e:ec:46:1f:f5:2e:0c:30:1c:fa:ef:31:
        70:8e:53:9c:c5:46:f5:0c:b0:e6:3f:19:4a:e0:a1:53:eb:8f:
        d4:df:6c:61:91:85:e4:4b:ba:f9:fa:43:48:55:5f:4b:6f:52:
        2b:77:66:43:e1:3e:7a:cc:65:a3:16:7f:11:dd:b3:d6:ce:1d:
        81:97
-----BEGIN CERTIFICATE-----
MIIC3DCCAkWgAwIBAgICECkwDQYJKoZIhvcNAQELBQAwKDESMBAGA1UEChMJTm9k
ZU9QQ1VBMRIwEAYDVQQDEwlOb2RlT1BDVUEwHhcNMjQwMzE5MDIzODQ3WhcNMjUw
MzE5MDIzODQ3WjAoMRIwEAYDVQQKEwlOb2RlT1BDVUExEjAQBgNVBAMTCU5vZGVP
UENVQTCBnzANBgkqhkiG9w0BAQEFAAOBjQAwgYkCgYEA1REB5iXyoHL52Ri8gzpZ
H8GeAzYUA3KiVPWxUaw7jlNh3Pe5vzz+XLaYkbpVbjw5yki5igANsXH0B2WA6LMM
SdJVbY7C+RlCNYVVSdjhmOo3UUDmMfm20ii+8FuJvpDf3/uCywZ5ogza3+Gx3nat
pWBzrfLShX3jgU0lU3Ugu0kCAwEAAaOCARMwggEPMAwGA1UdEwEB/wQCMAAwHQYD
VR0OBBYEFPOyBicgDlo/C45zMmYJGc6w+IWAMDsGA1UdIwQ0MDKhLKQqMCgxEjAQ
BgNVBAoTCU5vZGVPUENVQTESMBAGA1UEAxMJTm9kZU9QQ1VBggIQKTBDBgNVHREE
PDA6hip1cm46ZTk5ZDU0NjZmN2JiOk5vZGVPUENVQS1EaXNjb3ZlcnlTZXJ2ZXKC
DGU5OWQ1NDY2ZjdiYjAsBglghkgBhvhCAQ0EHxYdT3BlblNTTCBHZW5lcmF0ZWQg
Q2VydGlmaWNhdGUwDgYDVR0PAQH/BAQDAgL8MCAGA1UdJQEB/wQWMBQGCCsGAQUF
BwMBBggrBgEFBQcDAjANBgkqhkiG9w0BAQsFAAOBgQDHZDXqtgBnda/2W12ubuN6
Cc9saZ5w9/ESdRexEdp8fH9zqJa45pf727GXcchgsYmO8JaDDr+eQbzvdLJu7EYf
9S4MMBz67zFwjlOcxUb1DLDmPxlK4KFT64/U32xhkYXkS7r5+kNIVV9Lb1Ird2ZD
4T56zGWjFn8R3bPWzh2Blw==
-----END CERTIFICATE-----
