Certificate:
    Data:
        Version: 3 (0x2)
        Serial Number: 4142 (0x102e)
        Signature Algorithm: sha256WithRSAEncryption
        Issuer: O=NodeOPCUA, CN=NodeOPCUA
        Validity
            Not Before: Mar 19 02:38:47 2024 GMT
            Not After : Mar 19 02:38:47 2025 GMT
        Subject: O=NodeOPCUA, CN=NodeOPCUA
        Subject Public Key Info:
            Public Key Algorithm: rsaEncryption
                Public-Key: (2048 bit)
                Modulus:
                    00:b0:fb:df:1c:d6:1b:75:d6:e7:7c:54:0c:66:54:
                    59:77:e1:af:62:a6:05:41:31:dd:38:cd:b1:34:80:
                    a2:48:68:bc:1a:72:0f:d2:28:97:58:14:ce:6c:70:
                    3b:23:43:9e:a0:94:9f:f4:81:56:14:3f:40:4f:d9:
                    ca:4a:44:40:c3:64:8a:78:47:73:a5:1f:05:b5:6a:
                    89:45:df:ae:84:cd:b5:ff:87:63:9b:bb:27:da:22:
                    87:8b:ca:e8:cc:80:e7:5e:e9:0b:2e:61:08:28:0d:
                    21:f9:a9:b2:62:5e:bc:52:8e:ac:8c:9a:6a:7b:3c:
                    1e:33:0b:4b:31:ba:10:20:0d:25:91:94:78:fc:0d:
                    40:58:9a:47:a9:dc:54:ba:7e:c9:74:58:da:30:f5:
                    dc:9b:29:93:91:b3:f3:85:66:2a:5c:d1:76:95:03:
                    6b:09:39:57:03:9c:e0:50:55:47:e7:3e:b3:d0:6f:
                    be:37:4c:9b:29:37:ac:62:d2:13:03:22:92:f7:df:
                    50:86:54:29:aa:41:aa:a2:78:32:f5:e1:4a:88:fe:
                    db:4d:4c:ac:86:5c:39:b7:e2:cd:84:36:97:de:d5:
                    09:2b:3b:73:ca:0f:40:57:44:9f:f5:b8:24:68:6e:
                    f8:f1:77:5a:7d:f4:af:eb:8f:4d:d7:90:6e:6a:dc:
                    bf:fd
                Exponent: 65537 (0x10001)
        X509v3 extensions:
            X509v3 Basic Constraints: critical
                CA:FALSE
            X509v3 Subject Key Identifier: 
                65:C5:4F:14:3C:43:08:16:7A:83:89:8C:B2:0E:A1:EB:C8:10:BA:85
            X509v3 Authority Key Identifier: 
                DirName:/O=NodeOPCUA/CN=NodeOPCUA
                serial:10:2E
            X509v3 Subject Alternative Name: 
                URI:urn:e99d5466f7bb:NodeOPCUA-DiscoveryServer, DNS:e99d5466f7bb
            Netscape Comment: 
                OpenSSL Generated Certificate
            X509v3 Key Usage: critical
                Digital Signature, Non Repudiation, Key Encipherment, Data Encipherment, Key Agreement, Certificate Sign
            X509v3 Extended Key Usage: critical
                TLS Web Server Authentication, TLS Web Client Authentication
    Signature Algorithm: sha256WithRSAEncryption
    Signature Value:
        a6:10:ff:7a:8d:1a:a0:f8:06:2b:e5:99:d5:8e:52:20:bf:f1:
        03:19:06:85:97:3b:a9:a3:dc:46:b0:21:1c:7f:6a:d6:4f:67:
        c8:e5:75:38:f0:6a:cc:b0:57:1e:23:90:a4:50:71:27:58:6e:
        6e:f1:83:df:1a:da:4e:a7:7c:ff:89:b6:da:c0:76:bf:df:fe:
        0b:f0:59:30:4c:f8:eb:38:ca:b5:01:d1:e4:61:fe:77:23:6d:
        c6:21:ee:2b:d9:1f:d8:e9:db:37:9e:95:41:56:ae:fe:73:17:
        d5:cb:42:05:7e:2d:51:c6:7d:27:f4:6f:9f:2b:2a:51:0b:c9:
        db:e2:a6:58:61:60:f5:46:69:fc:e3:9c:c5:0c:0d:53:97:f5:
        18:f6:c7:72:76:d2:5e:1f:d2:bd:b6:13:59:ad:7e:00:e6:be:
        d8:9e:01:fd:e3:45:09:3f:c4:52:ff:80:c4:e8:44:50:5e:ec:
        90:85:3b:44:d2:40:84:ef:dc:4d:c4:9d:4b:d1:bf:fa:b7:ab:
        86:aa:70:c1:9b:00:91:be:96:19:7f:87:42:7d:35:71:c3:cd:
        90:a3:bc:64:10:98:22:11:66:b9:45:35:52:3a:bb:34:59:4c:
        ce:7f:e3:12:08:1b:25:14:7a:9c:28:69:91:64:3f:5e:fb:ec:
        41:8c:30:72
-----BEGIN CERTIFICATE-----
MIID4TCCAsmgAwIBAgICEC4wDQYJKoZIhvcNAQELBQAwKDESMBAGA1UEChMJTm9k
ZU9QQ1VBMRIwEAYDVQQDEwlOb2RlT1BDVUEwHhcNMjQwMzE5MDIzODQ3WhcNMjUw
MzE5MDIzODQ3WjAoMRIwEAYDVQQKEwlOb2RlT1BDVUExEjAQBgNVBAMTCU5vZGVP
UENVQTCCASIwDQYJKoZIhvcNAQEBBQADggEPADCCAQoCggEBALD73xzWG3XW53xU
DGZUWXfhr2KmBUEx3TjNsTSAokhovBpyD9Iol1gUzmxwOyNDnqCUn/SBVhQ/QE/Z
ykpEQMNkinhHc6UfBbVqiUXfroTNtf+HY5u7J9oih4vK6MyA517pCy5hCCgNIfmp
smJevFKOrIyaans8HjMLSzG6ECANJZGUePwNQFiaR6ncVLp+yXRY2jD13Jspk5Gz
84VmKlzRdpUDawk5VwOc4FBVR+c+s9BvvjdMmyk3rGLSEwMikvffUIZUKapBqqJ4
MvXhSoj+201MrIZcObfizYQ2l97VCSs7c8oPQFdEn/W4JGhu+PF3Wn30r+uPTdeQ
bmrcv/0CAwEAAaOCARMwggEPMAwGA1UdEwEB/wQCMAAwHQYDVR0OBBYEFGXFTxQ8
QwgWeoOJjLIOoevIELqFMDsGA1UdIwQ0MDKhLKQqMCgxEjAQBgNVBAoTCU5vZGVP
UENVQTESMBAGA1UEAxMJTm9kZU9QQ1VBggIQLjBDBgNVHREEPDA6hip1cm46ZTk5
ZDU0NjZmN2JiOk5vZGVPUENVQS1EaXNjb3ZlcnlTZXJ2ZXKCDGU5OWQ1NDY2Zjdi
YjAsBglghkgBhvhCAQ0EHxYdT3BlblNTTCBHZW5lcmF0ZWQgQ2VydGlmaWNhdGUw
DgYDVR0PAQH/BAQDAgL8MCAGA1UdJQEB/wQWMBQGCCsGAQUFBwMBBggrBgEFBQcD
AjANBgkqhkiG9w0BAQsFAAOCAQEAphD/eo0aoPgGK+WZ1Y5SIL/xAxkGhZc7qaPc
RrAhHH9q1k9nyOV1OPBqzLBXHiOQpFBxJ1hubvGD3xraTqd8/4m22sB2v9/+C/BZ
MEz46zjKtQHR5GH+dyNtxiHuK9kf2OnbN56VQVau/nMX1ctCBX4tUcZ9J/Rvnysq
UQvJ2+KmWGFg9UZp/OOcxQwNU5f1GPbHcnbSXh/SvbYTWa1+AOa+2J4B/eNFCT/E
Uv+AxOhEUF7skIU7RNJAhO/cTcSdS9G/+rerhqpwwZsAkb6WGX+HQn01ccPNkKO8
ZBCYIhFmuUU1Ujq7NFlMzn/jEggbJRR6nChpkWQ/XvvsQYwwcg==
-----END CERTIFICATE-----
