Certificate:
    Data:
        Version: 3 (0x2)
        Serial Number: 4136 (0x1028)
        Signature Algorithm: sha256WithRSAEncryption
        Issuer: C=FR, ST=IDF, L=Paris, O=Local NODE-OPCUA Certificate Authority, CN=NodeOPCUA-CA
        Validity
            Not Before: Mar 19 02:38:47 2024 GMT
            Not After : Mar 19 02:38:47 2025 GMT
        Subject: C=FR, O=NodeOPCUA, CN=NodeOPCUA
        Subject Public Key Info:
            Public Key Algorithm: rsaEncryption
                Public-Key: (1024 bit)
                Modulus:
                    00:d5:11:01:e6:25:f2:a0:72:f9:d9:18:bc:83:3a:
                    59:1f:c1:9e:03:36:14:03:72:a2:54:f5:b1:51:ac:
                    3b:8e:53:61:dc:f7:b9:bf:3c:fe:5c:b6:98:91:ba:
                    55:6e:3c:39:ca:48:b9:8a:00:0d:b1:71:f4:07:65:
                    80:e8:b3:0c:49:d2:55:6d:8e:c2:f9:19:42:35:85:
                    55:49:d8:e1:98:ea:37:51:40:e6:31:f9:b6:d2:28:
                    be:f0:5b:89:be:90:df:df:fb:82:cb:06:79:a2:0c:
                    da:df:e1:b1:de:76:ad:a5:60:73:ad:f2:d2:85:7d:
                    e3:81:4d:25:53:75:20:bb:49
                Exponent: 65537 (0x10001)
        X509v3 extensions:
            X509v3 Basic Constraints: critical
                CA:FALSE
            X509v3 Subject Key Identifier: 
                F3:B2:06:27:20:0E:5A:3F:0B:8E:73:32:66:09:19:CE:B0:F8:85:80
            X509v3 Authority Key Identifier: 
                keyid:40:72:30:66:AE:C7:F9:DB:9A:75:1B:99:FB:53:D6:38:EA:0C:F1:8B
                DirName:/C=FR/ST=IDF/L=Paris/O=Local NODE-OPCUA Certificate Authority/CN=NodeOPCUA-CA
                serial:72:89:60:A3:11:EF:A6:B0:54:AF:4D:2C:23:89:FC:3E:F9:84:93:A9
            X509v3 Subject Alternative Name: 
                URI:urn:e99d5466f7bb:NodeOPCUA-DiscoveryServer, DNS:e99d5466f7bb, IP Address:127.0.0.1
            Netscape Comment: 
                OpenSSL Generated Certificate
            X509v3 Key Usage: critical
                Digital Signature, Non Repudiation, Key Encipherment, Data Encipherment, Key Agreement, Certificate Sign
            X509v3 Extended Key Usage: critical
                TLS Web Server Authentication, TLS Web Client Authentication
    Signature Algorithm: sha256WithRSAEncryption
    Signature Value:
        56:05:0f:a3:6b:00:19:69:90:c6:ed:3c:ae:60:21:63:a2:2c:
        65:ce:dd:dc:28:af:62:f9:4f:1d:42:4f:d8:5e:b8:ad:ce:9b:
        99:e8:3d:80:63:55:68:3f:25:30:b5:d6:74:36:a1:82:bd:dd:
        f2:da:3e:f1:25:de:3f:d4:e2:b0:f4:13:56:05:c4:68:7c:f1:
        67:ca:78:43:73:9d:84:41:0c:93:98:3d:94:20:09:86:65:30:
        2b:07:d1:cf:4e:f3:9d:58:26:e4:70:c8:61:0e:8a:61:54:ef:
        5f:7b:ae:bd:2f:09:2a:0f:6f:06:cd:cc:a1:2b:d9:54:70:98:
        a6:20:14:2d:42:64:2c:4e:76:39:ad:74:0d:7b:72:85:91:50:
        95:2b:cc:2b:7c:c7:e3:8d:32:d2:e6:53:25:43:a1:87:29:00:
        91:f0:5f:0e:f4:65:8f:ba:04:2f:6f:2b:c6:93:39:80:91:03:
        ec:e3:ee:dd:cc:5d:ad:2d:88:cc:52:28:ed:4c:a5:c7:e4:af:
        1b:c6:08:02:24:c4:13:07:18:1b:3d:8c:01:4b:f0:2b:0b:b3:
        7d:17:65:27:07:2a:a0:3d:37:d2:15:e7:2f:40:95:61:44:40:
        b5:cc:82:3a:cc:0e:6a:d8:6f:e0:3c:db:aa:12:81:fa:67:68:
        5b:3e:06:ce
-----BEGIN CERTIFICATE-----
MIIEMTCCAxmgAwIBAgICECgwDQYJKoZIhvcNAQELBQAwczELMAkGA1UEBhMCRlIx
DDAKBgNVBAgTA0lERjEOMAwGA1UEBxMFUGFyaXMxLzAtBgNVBAoTJkxvY2FsIE5P
REUtT1BDVUEgQ2VydGlmaWNhdGUgQXV0aG9yaXR5MRUwEwYDVQQDEwxOb2RlT1BD
VUEtQ0EwHhcNMjQwMzE5MDIzODQ3WhcNMjUwMzE5MDIzODQ3WjA1MQswCQYDVQQG
EwJGUjESMBAGA1UECgwJTm9kZU9QQ1VBMRIwEAYDVQQDDAlOb2RlT1BDVUEwgZ8w
DQYJKoZIhvcNAQEBBQADgY0AMIGJAoGBANURAeYl8qBy+dkYvIM6WR/BngM2FANy
olT1sVGsO45TYdz3ub88/ly2mJG6VW48OcpIuYoADbFx9AdlgOizDEnSVW2OwvkZ
QjWFVUnY4ZjqN1FA5jH5ttIovvBbib6Q39/7gssGeaIM2t/hsd52raVgc63y0oV9
44FNJVN1ILtJAgMBAAGjggGPMIIBizAMBgNVHRMBAf8EAjAAMB0GA1UdDgQWBBTz
sgYnIA5aPwuOczJmCRnOsPiFgDCBsAYDVR0jBIGoMIGlgBRAcjBmrsf525p1G5n7
U9Y46gzxi6F3pHUwczELMAkGA1UEBhMCRlIxDDAKBgNVBAgTA0lERjEOMAwGA1UE
BxMFUGFyaXMxLzAtBgNVBAoTJkxvY2FsIE5PREUtT1BDVUEgQ2VydGlmaWNhdGUg
QXV0aG9yaXR5MRUwEwYDVQQDEwxOb2RlT1BDVUEtQ0GCFHKJYKMR76awVK9NLCOJ
/D75hJOpMEkGA1UdEQRCMECGKnVybjplOTlkNTQ2NmY3YmI6Tm9kZU9QQ1VBLURp
c2NvdmVyeVNlcnZlcoIMZTk5ZDU0NjZmN2JihwR/AAABMCwGCWCGSAGG+EIBDQQf
Fh1PcGVuU1NMIEdlbmVyYXRlZCBDZXJ0aWZpY2F0ZTAOBgNVHQ8BAf8EBAMCAvww
IAYDVR0lAQH/BBYwFAYIKwYBBQUHAwEGCCsGAQUFBwMCMA0GCSqGSIb3DQEBCwUA
A4IBAQBWBQ+jawAZaZDG7TyuYCFjoixlzt3cKK9i+U8dQk/YXritzpuZ6D2AY1Vo
PyUwtdZ0NqGCvd3y2j7xJd4/1OKw9BNWBcRofPFnynhDc52EQQyTmD2UIAmGZTAr
B9HPTvOdWCbkcMhhDophVO9fe669LwkqD28GzcyhK9lUcJimIBQtQmQsTnY5rXQN
e3KFkVCVK8wrfMfjjTLS5lMlQ6GHKQCR8F8O9GWPugQvbyvGkzmAkQPs4+7dzF2t
LYjMUijtTKXH5K8bxggCJMQTBxgbPYwBS/ArC7N9F2UnByqgPTfSFecvQJVhREC1
zII6zA5q2G/gPNuqEoH6Z2hbPgbO
-----END CERTIFICATE-----
Certificate:
    Data:
        Version: 3 (0x2)
        Serial Number:
            72:89:60:a3:11:ef:a6:b0:54:af:4d:2c:23:89:fc:3e:f9:84:93:a9
        Signature Algorithm: sha256WithRSAEncryption
        Issuer: C = FR, ST = IDF, L = Paris, O = Local NODE-OPCUA Certificate Authority, CN = NodeOPCUA-CA
        Validity
            Not Before: Mar 20 02:38:47 2024 GMT
            Not After : Mar 18 02:38:47 2034 GMT
        Subject: C = FR, ST = IDF, L = Paris, O = Local NODE-OPCUA Certificate Authority, CN = NodeOPCUA-CA
        Subject Public Key Info:
            Public Key Algorithm: rsaEncryption
                Public-Key: (2048 bit)
                Modulus:
                    00:b9:71:cc:db:cf:89:9d:e2:97:00:c2:e7:4b:db:
                    6c:37:ab:b0:f4:e9:dc:ef:71:1c:32:1d:c5:34:34:
                    93:22:4b:c3:fa:78:9a:f0:78:e3:f3:3e:58:09:da:
                    4f:af:dc:45:8a:9b:93:25:6f:7b:72:83:d7:a5:16:
                    b0:0c:23:e6:6b:35:8a:09:9f:84:3d:a9:43:6e:68:
                    ba:40:47:04:33:4d:6d:7f:f4:45:8d:47:24:c3:79:
                    e6:76:b2:15:6e:4c:23:51:c6:0a:6d:63:0b:f4:34:
                    b1:18:97:7a:95:22:fb:f9:8a:4a:f2:7f:0c:c3:a0:
                    71:c0:d3:16:f4:4a:4c:e2:00:12:e2:ce:d7:e9:09:
                    01:2f:7e:7b:ad:fb:ad:14:d9:10:6d:2b:b6:1b:a4:
                    45:05:40:cc:d5:04:29:04:ab:2a:80:ba:67:12:6e:
                    1a:d0:2c:d6:f2:ce:4f:1e:89:88:7e:41:8a:f6:85:
                    d3:06:58:47:94:ed:84:b1:9e:90:e9:da:cd:e4:1b:
                    df:79:b8:28:f2:5e:5f:c8:27:dc:fa:ef:f3:ee:dd:
                    2a:50:6d:7e:0a:97:05:12:f5:7b:0b:6f:d0:e0:6b:
                    da:61:0c:b3:50:ff:18:d8:c6:ca:97:73:20:fb:20:
                    93:10:df:a7:d7:d6:1a:23:2d:37:b2:eb:08:f5:5c:
                    4c:2d
                Exponent: 65537 (0x10001)
        X509v3 extensions:
            X509v3 Subject Key Identifier: 
                40:72:30:66:AE:C7:F9:DB:9A:75:1B:99:FB:53:D6:38:EA:0C:F1:8B
            X509v3 Authority Key Identifier: 
                keyid:40:72:30:66:AE:C7:F9:DB:9A:75:1B:99:FB:53:D6:38:EA:0C:F1:8B
                DirName:/C=FR/ST=IDF/L=Paris/O=Local NODE-OPCUA Certificate Authority/CN=NodeOPCUA-CA
                serial:72:89:60:A3:11:EF:A6:B0:54:AF:4D:2C:23:89:FC:3E:F9:84:93:A9
            X509v3 Basic Constraints: 
                CA:TRUE
            X509v3 Key Usage: critical
                Certificate Sign, CRL Sign
            Netscape Comment: 
                CA Certificate generated by Node-OPCUA Certificate utility using openssl
            X509v3 CRL Distribution Points: 
                Full Name:
                  URI:http://localhost:8900/crl.pem
    Signature Algorithm: sha256WithRSAEncryption
    Signature Value:
        ab:e7:3f:e8:5f:cd:89:8a:ca:18:95:23:0a:89:f7:74:4c:ff:
        fd:7b:91:83:28:b8:e9:11:1a:9d:2b:6e:71:69:36:85:53:8f:
        b5:77:27:88:81:fa:b5:15:ff:f0:9d:9a:e8:8a:3f:1a:09:7e:
        97:23:1e:75:a7:ee:76:ff:32:7e:00:d7:12:85:70:39:ab:17:
        88:71:02:ed:a5:3b:bd:ee:78:59:a1:e6:bf:30:38:c2:2c:c4:
        dc:4c:13:9a:38:da:e5:4f:94:80:a9:1d:18:49:81:75:63:70:
        20:fc:ed:ae:9d:55:3e:a3:41:4c:cd:eb:e8:31:dd:f2:c0:25:
        8e:75:c3:a7:c1:95:d1:02:94:96:ac:0f:09:93:05:6d:96:04:
        b8:e5:c1:17:20:29:4e:e5:36:a7:11:b7:e1:04:69:78:98:be:
        b7:97:5e:23:d1:23:22:d7:45:04:ad:35:be:de:cc:da:4e:9d:
        1c:19:f0:39:05:06:cb:30:96:26:90:21:74:fc:ac:e1:df:46:
        6b:e9:31:0b:51:f7:1d:42:fd:ff:49:2e:72:9e:68:7b:8f:75:
        07:9e:63:4c:39:c5:30:3c:c2:54:88:b6:73:9c:9e:29:da:7c:
        6c:36:b7:ea:cf:ea:26:06:7b:d3:72:30:49:57:93:ca:6d:b6:
        b3:6e:e2:d7
-----BEGIN CERTIFICATE-----
MIIE8zCCA9ugAwIBAgIUcolgoxHvprBUr00sI4n8PvmEk6kwDQYJKoZIhvcNAQEL
BQAwczELMAkGA1UEBhMCRlIxDDAKBgNVBAgTA0lERjEOMAwGA1UEBxMFUGFyaXMx
LzAtBgNVBAoTJkxvY2FsIE5PREUtT1BDVUEgQ2VydGlmaWNhdGUgQXV0aG9yaXR5
MRUwEwYDVQQDEwxOb2RlT1BDVUEtQ0EwHhcNMjQwMzIwMDIzODQ3WhcNMzQwMzE4
MDIzODQ3WjBzMQswCQYDVQQGEwJGUjEMMAoGA1UECBMDSURGMQ4wDAYDVQQHEwVQ
YXJpczEvMC0GA1UEChMmTG9jYWwgTk9ERS1PUENVQSBDZXJ0aWZpY2F0ZSBBdXRo
b3JpdHkxFTATBgNVBAMTDE5vZGVPUENVQS1DQTCCASIwDQYJKoZIhvcNAQEBBQAD
ggEPADCCAQoCggEBALlxzNvPiZ3ilwDC50vbbDersPTp3O9xHDIdxTQ0kyJLw/p4
mvB44/M+WAnaT6/cRYqbkyVve3KD16UWsAwj5ms1igmfhD2pQ25oukBHBDNNbX/0
RY1HJMN55nayFW5MI1HGCm1jC/Q0sRiXepUi+/mKSvJ/DMOgccDTFvRKTOIAEuLO
1+kJAS9+e637rRTZEG0rthukRQVAzNUEKQSrKoC6ZxJuGtAs1vLOTx6JiH5BivaF
0wZYR5TthLGekOnazeQb33m4KPJeX8gn3Prv8+7dKlBtfgqXBRL1ewtv0OBr2mEM
s1D/GNjGypdzIPsgkxDfp9fWGiMtN7LrCPVcTC0CAwEAAaOCAX0wggF5MB0GA1Ud
DgQWBBRAcjBmrsf525p1G5n7U9Y46gzxizCBsAYDVR0jBIGoMIGlgBRAcjBmrsf5
25p1G5n7U9Y46gzxi6F3pHUwczELMAkGA1UEBhMCRlIxDDAKBgNVBAgTA0lERjEO
MAwGA1UEBxMFUGFyaXMxLzAtBgNVBAoTJkxvY2FsIE5PREUtT1BDVUEgQ2VydGlm
aWNhdGUgQXV0aG9yaXR5MRUwEwYDVQQDEwxOb2RlT1BDVUEtQ0GCFHKJYKMR76aw
VK9NLCOJ/D75hJOpMAwGA1UdEwQFMAMBAf8wDgYDVR0PAQH/BAQDAgEGMFcGCWCG
SAGG+EIBDQRKFkhDQSBDZXJ0aWZpY2F0ZSBnZW5lcmF0ZWQgYnkgTm9kZS1PUENV
QSBDZXJ0aWZpY2F0ZSB1dGlsaXR5IHVzaW5nIG9wZW5zc2wwLgYDVR0fBCcwJTAj
oCGgH4YdaHR0cDovL2xvY2FsaG9zdDo4OTAwL2NybC5wZW0wDQYJKoZIhvcNAQEL
BQADggEBAKvnP+hfzYmKyhiVIwqJ93RM//17kYMouOkRGp0rbnFpNoVTj7V3J4iB
+rUV//CdmuiKPxoJfpcjHnWn7nb/Mn4A1xKFcDmrF4hxAu2lO73ueFmh5r8wOMIs
xNxME5o42uVPlICpHRhJgXVjcCD87a6dVT6jQUzN6+gx3fLAJY51w6fBldEClJas
DwmTBW2WBLjlwRcgKU7lNqcRt+EEaXiYvreXXiPRIyLXRQStNb7ezNpOnRwZ8DkF
BsswliaQIXT8rOHfRmvpMQtR9x1C/f9JLnKeaHuPdQeeY0w5xTA8wlSItnOcnina
fGw2t+rP6iYGe9NyMElXk8pttrNu4tc=
-----END CERTIFICATE-----
