Certificate:
    Data:
        Version: 3 (0x2)
        Serial Number: 4148 (0x1034)
        Signature Algorithm: sha256WithRSAEncryption
        Issuer: C=FR, ST=IDF, L=Paris, O=Local NODE-OPCUA Certificate Authority, CN=NodeOPCUA-CA
        Validity
            Not Before: Mar 21 02:38:47 2022 GMT
            Not After : Mar 21 02:38:47 2023 GMT
        Subject: C=FR, O=NodeOPCUA, CN=NodeOPCUA
        Subject Public Key Info:
            Public Key Algorithm: rsaEncryption
                Public-Key: (3072 bit)
                Modulus:
                    00:e5:ab:ec:d7:d5:39:8b:4e:9a:85:24:76:b7:c5:
                    11:cb:62:65:91:1d:98:c7:97:89:4a:0b:32:a9:b0:
                    c4:76:02:f4:66:29:e6:b3:70:e3:9e:8e:c5:e5:bb:
                    35:3b:c1:f0:4f:a7:89:3e:76:73:96:57:dc:76:21:
                    e4:b6:44:a0:a5:e7:fa:a5:fd:dd:27:dc:2c:01:6c:
                    6e:fc:8e:9b:d0:40:51:c2:1b:a7:e5:ee:5d:f6:51:
                    71:a0:cc:d2:99:b9:d5:e0:80:b7:50:4c:72:4b:b5:
                    0b:39:15:76:4d:78:a4:ec:13:b8:4f:cd:cc:50:2d:
                    3b:8d:8f:2e:b8:c8:a0:34:9d:67:26:e4:d0:8e:ee:
                    7c:a0:32:b7:31:fd:83:7b:f4:c0:48:c5:43:b4:1c:
                    11:14:73:4b:09:d6:ed:b1:65:c9:33:49:50:8a:0c:
                    ac:a3:a9:55:af:d7:09:40:38:53:f7:70:b5:5d:6e:
                    00:01:a4:8d:44:b2:38:60:22:a9:1f:fa:c1:21:0c:
                    72:8c:4a:cc:1d:97:ee:4c:f2:3a:2c:5c:bf:ad:1c:
                    c8:c3:77:9e:16:85:1e:83:68:43:80:f7:a5:45:9e:
                    e9:36:9b:56:f9:79:26:3d:aa:cb:00:4d:5f:53:d8:
                    3b:84:d9:47:2b:3e:c4:ae:cd:bb:b8:9c:17:c0:ee:
                    7b:ea:7d:17:09:2c:a7:d7:3b:5a:64:15:ea:e4:f5:
                    87:f0:43:d4:94:d5:70:51:46:24:d0:8c:8b:2c:f4:
                    72:4c:cd:03:fc:50:e1:ea:7d:8e:36:8e:4d:b8:de:
                    ba:e1:49:f7:9c:97:f1:de:f2:5e:a4:e1:ac:62:ae:
                    d9:a7:62:a2:63:94:cd:00:bc:14:c1:5e:85:68:45:
                    46:e9:a6:c6:49:c0:19:50:0b:9a:ae:f1:18:4e:81:
                    c2:62:66:a5:cb:23:c9:0e:f6:02:a5:33:4e:b3:a7:
                    5b:90:17:d7:27:50:2a:bf:31:99:93:be:b1:1f:83:
                    37:22:7d:e5:3e:a4:72:e8:84:33
                Exponent: 65537 (0x10001)
        X509v3 extensions:
            X509v3 Basic Constraints: critical
                CA:FALSE
            X509v3 Subject Key Identifier: 
                A3:AD:AD:94:1F:23:97:B5:CB:3A:1F:C7:35:D2:B7:5C:9A:BC:98:D4
            X509v3 Authority Key Identifier: 
                keyid:40:72:30:66:AE:C7:F9:DB:9A:75:1B:99:FB:53:D6:38:EA:0C:F1:8B
                DirName:/C=FR/ST=IDF/L=Paris/O=Local NODE-OPCUA Certificate Authority/CN=NodeOPCUA-CA
                serial:72:89:60:A3:11:EF:A6:B0:54:AF:4D:2C:23:89:FC:3E:F9:84:93:A9
            X509v3 Subject Alternative Name: 
                URI:urn:e99d5466f7bb:NodeOPCUA-DiscoveryServer, DNS:e99d5466f7bb, IP Address:127.0.0.1
            Netscape Comment: 
                OpenSSL Generated Certificate
            X509v3 Key Usage: critical
                Digital Signature, Non Repudiation, Key Encipherment, Data Encipherment, Key Agreement, Certificate Sign
            X509v3 Extended Key Usage: critical
                TLS Web Server Authentication, TLS Web Client Authentication
    Signature Algorithm: sha256WithRSAEncryption
    Signature Value:
        18:1d:39:6c:4b:ce:d9:93:db:47:5f:f8:13:75:8c:2b:d8:32:
        a2:09:3f:84:26:6f:64:65:42:55:45:ec:0e:a3:e1:95:f9:42:
        62:d7:25:5e:aa:0d:a4:6f:00:dc:49:54:be:97:0f:45:5b:16:
        db:38:5f:b5:d0:ce:4c:89:b5:60:b8:51:c2:fc:73:37:76:e8:
        63:88:a7:db:15:1f:0c:82:5c:b5:56:f7:5b:63:20:b6:86:fc:
        e5:e5:e2:58:c0:ec:4e:72:dc:5b:24:ff:8a:56:dd:75:ab:12:
        ae:04:54:a5:b4:73:01:58:36:bf:49:3c:a9:85:fb:1f:4c:93:
        a0:d1:c2:d9:8a:64:56:42:77:71:5f:bb:88:37:3a:b3:99:1a:
        a2:ea:6d:94:1d:8d:4a:b3:e2:a3:28:1a:ad:1e:d1:7a:b5:09:
        56:cd:79:c9:e1:39:cf:c6:81:62:93:8f:3f:ba:f3:47:5d:ea:
        fa:d2:7b:30:30:4f:c6:c5:54:7f:2d:5a:26:76:34:94:48:51:
        5a:40:2c:ed:44:49:23:00:8f:9a:fa:c4:2d:ca:df:cc:76:16:
        cc:fe:e8:a9:1e:3b:0b:8f:c0:11:03:0e:d7:9f:5c:84:7e:ba:
        dd:0c:72:08:45:cf:c0:a8:36:3f:62:68:da:45:d7:78:a7:1c:
        96:1b:a0:9e
-----BEGIN CERTIFICATE-----
MIIFNTCCBB2gAwIBAgICEDQwDQYJKoZIhvcNAQELBQAwczELMAkGA1UEBhMCRlIx
DDAKBgNVBAgTA0lERjEOMAwGA1UEBxMFUGFyaXMxLzAtBgNVBAoTJkxvY2FsIE5P
REUtT1BDVUEgQ2VydGlmaWNhdGUgQXV0aG9yaXR5MRUwEwYDVQQDEwxOb2RlT1BD
VUEtQ0EwHhcNMjIwMzIxMDIzODQ3WhcNMjMwMzIxMDIzODQ3WjA1MQswCQYDVQQG
EwJGUjESMBAGA1UECgwJTm9kZU9QQ1VBMRIwEAYDVQQDDAlOb2RlT1BDVUEwggGi
MA0GCSqGSIb3DQEBAQUAA4IBjwAwggGKAoIBgQDlq+zX1TmLTpqFJHa3xRHLYmWR
HZjHl4lKCzKpsMR2AvRmKeazcOOejsXluzU7wfBPp4k+dnOWV9x2IeS2RKCl5/ql
/d0n3CwBbG78jpvQQFHCG6fl7l32UXGgzNKZudXggLdQTHJLtQs5FXZNeKTsE7hP
zcxQLTuNjy64yKA0nWcm5NCO7nygMrcx/YN79MBIxUO0HBEUc0sJ1u2xZckzSVCK
DKyjqVWv1wlAOFP3cLVdbgABpI1EsjhgIqkf+sEhDHKMSswdl+5M8josXL+tHMjD
d54WhR6DaEOA96VFnuk2m1b5eSY9qssATV9T2DuE2UcrPsSuzbu4nBfA7nvqfRcJ
LKfXO1pkFerk9YfwQ9SU1XBRRiTQjIss9HJMzQP8UOHqfY42jk243rrhSfecl/He
8l6k4axirtmnYqJjlM0AvBTBXoVoRUbppsZJwBlQC5qu8RhOgcJiZqXLI8kO9gKl
M06zp1uQF9cnUCq/MZmTvrEfgzcifeU+pHLohDMCAwEAAaOCAY8wggGLMAwGA1Ud
EwEB/wQCMAAwHQYDVR0OBBYEFKOtrZQfI5e1yzofxzXSt1yavJjUMIGwBgNVHSME
gagwgaWAFEByMGaux/nbmnUbmftT1jjqDPGLoXekdTBzMQswCQYDVQQGEwJGUjEM
MAoGA1UECBMDSURGMQ4wDAYDVQQHEwVQYXJpczEvMC0GA1UEChMmTG9jYWwgTk9E
RS1PUENVQSBDZXJ0aWZpY2F0ZSBBdXRob3JpdHkxFTATBgNVBAMTDE5vZGVPUENV
QS1DQYIUcolgoxHvprBUr00sI4n8PvmEk6kwSQYDVR0RBEIwQIYqdXJuOmU5OWQ1
NDY2ZjdiYjpOb2RlT1BDVUEtRGlzY292ZXJ5U2VydmVyggxlOTlkNTQ2NmY3YmKH
BH8AAAEwLAYJYIZIAYb4QgENBB8WHU9wZW5TU0wgR2VuZXJhdGVkIENlcnRpZmlj
YXRlMA4GA1UdDwEB/wQEAwIC/DAgBgNVHSUBAf8EFjAUBggrBgEFBQcDAQYIKwYB
BQUHAwIwDQYJKoZIhvcNAQELBQADggEBABgdOWxLztmT20df+BN1jCvYMqIJP4Qm
b2RlQlVF7A6j4ZX5QmLXJV6qDaRvANxJVL6XD0VbFts4X7XQzkyJtWC4UcL8czd2
6GOIp9sVHwyCXLVW91tjILaG/OXl4ljA7E5y3Fsk/4pW3XWrEq4EVKW0cwFYNr9J
PKmF+x9Mk6DRwtmKZFZCd3Ffu4g3OrOZGqLqbZQdjUqz4qMoGq0e0Xq1CVbNecnh
Oc/GgWKTjz+680dd6vrSezAwT8bFVH8tWiZ2NJRIUVpALO1ESSMAj5r6xC3K38x2
Fsz+6KkeOwuPwBEDDtefXIR+ut0McghFz8CoNj9iaNpF13inHJYboJ4=
-----END CERTIFICATE-----
Certificate:
    Data:
        Version: 3 (0x2)
        Serial Number:
            72:89:60:a3:11:ef:a6:b0:54:af:4d:2c:23:89:fc:3e:f9:84:93:a9
        Signature Algorithm: sha256WithRSAEncryption
        Issuer: C = FR, ST = IDF, L = Paris, O = Local NODE-OPCUA Certificate Authority, CN = NodeOPCUA-CA
        Validity
            Not Before: Mar 20 02:38:47 2024 GMT
            Not After : Mar 18 02:38:47 2034 GMT
        Subject: C = FR, ST = IDF, L = Paris, O = Local NODE-OPCUA Certificate Authority, CN = NodeOPCUA-CA
        Subject Public Key Info:
            Public Key Algorithm: rsaEncryption
                Public-Key: (2048 bit)
                Modulus:
                    00:b9:71:cc:db:cf:89:9d:e2:97:00:c2:e7:4b:db:
                    6c:37:ab:b0:f4:e9:dc:ef:71:1c:32:1d:c5:34:34:
                    93:22:4b:c3:fa:78:9a:f0:78:e3:f3:3e:58:09:da:
                    4f:af:dc:45:8a:9b:93:25:6f:7b:72:83:d7:a5:16:
                    b0:0c:23:e6:6b:35:8a:09:9f:84:3d:a9:43:6e:68:
                    ba:40:47:04:33:4d:6d:7f:f4:45:8d:47:24:c3:79:
                    e6:76:b2:15:6e:4c:23:51:c6:0a:6d:63:0b:f4:34:
                    b1:18:97:7a:95:22:fb:f9:8a:4a:f2:7f:0c:c3:a0:
                    71:c0:d3:16:f4:4a:4c:e2:00:12:e2:ce:d7:e9:09:
                    01:2f:7e:7b:ad:fb:ad:14:d9:10:6d:2b:b6:1b:a4:
                    45:05:40:cc:d5:04:29:04:ab:2a:80:ba:67:12:6e:
                    1a:d0:2c:d6:f2:ce:4f:1e:89:88:7e:41:8a:f6:85:
                    d3:06:58:47:94:ed:84:b1:9e:90:e9:da:cd:e4:1b:
                    df:79:b8:28:f2:5e:5f:c8:27:dc:fa:ef:f3:ee:dd:
                    2a:50:6d:7e:0a:97:05:12:f5:7b:0b:6f:d0:e0:6b:
                    da:61:0c:b3:50:ff:18:d8:c6:ca:97:73:20:fb:20:
                    93:10:df:a7:d7:d6:1a:23:2d:37:b2:eb:08:f5:5c:
                    4c:2d
                Exponent: 65537 (0x10001)
        X509v3 extensions:
            X509v3 Subject Key Identifier: 
                40:72:30:66:AE:C7:F9:DB:9A:75:1B:99:FB:53:D6:38:EA:0C:F1:8B
            X509v3 Authority Key Identifier: 
                keyid:40:72:30:66:AE:C7:F9:DB:9A:75:1B:99:FB:53:D6:38:EA:0C:F1:8B
                DirName:/C=FR/ST=IDF/L=Paris/O=Local NODE-OPCUA Certificate Authority/CN=NodeOPCUA-CA
                serial:72:89:60:A3:11:EF:A6:B0:54:AF:4D:2C:23:89:FC:3E:F9:84:93:A9
            X509v3 Basic Constraints: 
                CA:TRUE
            X509v3 Key Usage: critical
                Certificate Sign, CRL Sign
            Netscape Comment: 
                CA Certificate generated by Node-OPCUA Certificate utility using openssl
            X509v3 CRL Distribution Points: 
                Full Name:
                  URI:http://localhost:8900/crl.pem
    Signature Algorithm: sha256WithRSAEncryption
    Signature Value:
        ab:e7:3f:e8:5f:cd:89:8a:ca:18:95:23:0a:89:f7:74:4c:ff:
        fd:7b:91:83:28:b8:e9:11:1a:9d:2b:6e:71:69:36:85:53:8f:
        b5:77:27:88:81:fa:b5:15:ff:f0:9d:9a:e8:8a:3f:1a:09:7e:
        97:23:1e:75:a7:ee:76:ff:32:7e:00:d7:12:85:70:39:ab:17:
        88:71:02:ed:a5:3b:bd:ee:78:59:a1:e6:bf:30:38:c2:2c:c4:
        dc:4c:13:9a:38:da:e5:4f:94:80:a9:1d:18:49:81:75:63:70:
        20:fc:ed:ae:9d:55:3e:a3:41:4c:cd:eb:e8:31:dd:f2:c0:25:
        8e:75:c3:a7:c1:95:d1:02:94:96:ac:0f:09:93:05:6d:96:04:
        b8:e5:c1:17:20:29:4e:e5:36:a7:11:b7:e1:04:69:78:98:be:
        b7:97:5e:23:d1:23:22:d7:45:04:ad:35:be:de:cc:da:4e:9d:
        1c:19:f0:39:05:06:cb:30:96:26:90:21:74:fc:ac:e1:df:46:
        6b:e9:31:0b:51:f7:1d:42:fd:ff:49:2e:72:9e:68:7b:8f:75:
        07:9e:63:4c:39:c5:30:3c:c2:54:88:b6:73:9c:9e:29:da:7c:
        6c:36:b7:ea:cf:ea:26:06:7b:d3:72:30:49:57:93:ca:6d:b6:
        b3:6e:e2:d7
-----BEGIN CERTIFICATE-----
MIIE8zCCA9ugAwIBAgIUcolgoxHvprBUr00sI4n8PvmEk6kwDQYJKoZIhvcNAQEL
BQAwczELMAkGA1UEBhMCRlIxDDAKBgNVBAgTA0lERjEOMAwGA1UEBxMFUGFyaXMx
LzAtBgNVBAoTJkxvY2FsIE5PREUtT1BDVUEgQ2VydGlmaWNhdGUgQXV0aG9yaXR5
MRUwEwYDVQQDEwxOb2RlT1BDVUEtQ0EwHhcNMjQwMzIwMDIzODQ3WhcNMzQwMzE4
MDIzODQ3WjBzMQswCQYDVQQGEwJGUjEMMAoGA1UECBMDSURGMQ4wDAYDVQQHEwVQ
YXJpczEvMC0GA1UEChMmTG9jYWwgTk9ERS1PUENVQSBDZXJ0aWZpY2F0ZSBBdXRo
b3JpdHkxFTATBgNVBAMTDE5vZGVPUENVQS1DQTCCASIwDQYJKoZIhvcNAQEBBQAD
ggEPADCCAQoCggEBALlxzNvPiZ3ilwDC50vbbDersPTp3O9xHDIdxTQ0kyJLw/p4
mvB44/M+WAnaT6/cRYqbkyVve3KD16UWsAwj5ms1igmfhD2pQ25oukBHBDNNbX/0
RY1HJMN55nayFW5MI1HGCm1jC/Q0sRiXepUi+/mKSvJ/DMOgccDTFvRKTOIAEuLO
1+kJAS9+e637rRTZEG0rthukRQVAzNUEKQSrKoC6ZxJuGtAs1vLOTx6JiH5BivaF
0wZYR5TthLGekOnazeQb33m4KPJeX8gn3Prv8+7dKlBtfgqXBRL1ewtv0OBr2mEM
s1D/GNjGypdzIPsgkxDfp9fWGiMtN7LrCPVcTC0CAwEAAaOCAX0wggF5MB0GA1Ud
DgQWBBRAcjBmrsf525p1G5n7U9Y46gzxizCBsAYDVR0jBIGoMIGlgBRAcjBmrsf5
25p1G5n7U9Y46gzxi6F3pHUwczELMAkGA1UEBhMCRlIxDDAKBgNVBAgTA0lERjEO
MAwGA1UEBxMFUGFyaXMxLzAtBgNVBAoTJkxvY2FsIE5PREUtT1BDVUEgQ2VydGlm
aWNhdGUgQXV0aG9yaXR5MRUwEwYDVQQDEwxOb2RlT1BDVUEtQ0GCFHKJYKMR76aw
VK9NLCOJ/D75hJOpMAwGA1UdEwQFMAMBAf8wDgYDVR0PAQH/BAQDAgEGMFcGCWCG
SAGG+EIBDQRKFkhDQSBDZXJ0aWZpY2F0ZSBnZW5lcmF0ZWQgYnkgTm9kZS1PUENV
QSBDZXJ0aWZpY2F0ZSB1dGlsaXR5IHVzaW5nIG9wZW5zc2wwLgYDVR0fBCcwJTAj
oCGgH4YdaHR0cDovL2xvY2FsaG9zdDo4OTAwL2NybC5wZW0wDQYJKoZIhvcNAQEL
BQADggEBAKvnP+hfzYmKyhiVIwqJ93RM//17kYMouOkRGp0rbnFpNoVTj7V3J4iB
+rUV//CdmuiKPxoJfpcjHnWn7nb/Mn4A1xKFcDmrF4hxAu2lO73ueFmh5r8wOMIs
xNxME5o42uVPlICpHRhJgXVjcCD87a6dVT6jQUzN6+gx3fLAJY51w6fBldEClJas
DwmTBW2WBLjlwRcgKU7lNqcRt+EEaXiYvreXXiPRIyLXRQStNb7ezNpOnRwZ8DkF
BsswliaQIXT8rOHfRmvpMQtR9x1C/f9JLnKeaHuPdQeeY0w5xTA8wlSItnOcnina
fGw2t+rP6iYGe9NyMElXk8pttrNu4tc=
-----END CERTIFICATE-----
