Certificate Request:
    Data:
        Version: 1 (0x0)
        Subject: C = FR, O = NodeOPCUA, CN = NodeOPCUA
        Subject Public Key Info:
            Public Key Algorithm: rsaEncryption
                Public-Key: (4096 bit)
                Modulus:
                    00:b3:2b:76:07:ac:0f:02:fc:8a:28:a4:38:25:eb:
                    c9:64:f8:0e:32:16:e8:c2:e8:91:52:de:e2:e8:45:
                    ee:8f:b4:05:3a:19:d4:9b:19:c2:ea:bb:24:b1:8a:
                    8c:d9:5f:aa:57:a7:cb:ee:b0:31:83:b0:02:13:26:
                    6e:39:38:44:7f:17:a3:7c:9d:35:0b:c4:85:02:da:
                    5f:5f:93:f9:75:c9:72:33:e1:60:87:65:94:15:09:
                    10:f0:ad:4a:c1:3b:8d:05:06:13:46:5f:ca:c5:cf:
                    ce:1e:ac:d9:1d:2a:d6:20:e6:20:10:ce:56:e7:d5:
                    01:8f:b6:c0:ba:28:fc:13:31:bf:ae:90:11:8c:cf:
                    9c:c6:8a:e6:02:cc:10:00:f7:58:ef:98:2f:5d:8f:
                    52:91:f0:8c:1c:67:ad:2f:08:a9:18:ad:94:11:e9:
                    1e:8e:b3:4f:55:6c:c5:c3:4d:37:ca:bd:83:2a:c8:
                    f5:d0:3b:15:a7:f7:00:e5:43:ea:f7:7b:db:89:6e:
                    04:2b:76:f8:b1:2e:f0:06:32:48:59:9e:11:24:47:
                    1d:f6:a2:42:c8:62:13:32:3a:d0:b7:af:c4:80:00:
                    15:9c:f5:c7:ac:49:29:f2:bb:88:12:ca:c1:69:6e:
                    ca:ff:f1:cd:84:71:00:89:49:ca:ca:16:38:22:45:
                    2f:48:4d:81:24:29:7e:e1:86:02:2f:af:b8:87:9e:
                    e8:01:b8:e3:6e:87:dd:e2:bb:4b:1c:61:81:1a:e1:
                    3f:f7:e9:4e:20:a6:21:c0:b2:42:26:32:e6:3e:5d:
                    ff:5f:ce:ba:b7:9f:31:0c:3b:5b:ad:69:fb:9f:b7:
                    c2:57:84:48:7b:89:08:ba:72:79:4a:fc:23:bf:fd:
                    78:8b:14:4f:4b:0a:98:d1:3a:ca:9a:d3:68:fe:2d:
                    79:0b:63:bd:91:2d:65:3c:e5:68:4f:9e:cf:fd:4a:
                    2c:6d:ca:14:55:a8:6f:f9:ab:37:1f:8f:5c:e4:07:
                    15:bb:e8:7c:3d:2b:56:bc:b5:d3:49:5f:d5:67:93:
                    60:3c:9c:7e:a1:74:f9:c2:57:34:43:bd:c1:f8:7c:
                    31:8a:a3:76:14:71:d0:94:5d:dc:4a:86:68:b4:aa:
                    bd:89:fb:e6:6d:27:1b:b4:b5:70:97:b3:d6:9a:c9:
                    a7:78:23:f7:17:4e:9c:19:6f:cd:00:5a:b7:77:5c:
                    c0:8d:a9:b2:f4:64:d1:3c:2a:cd:fb:1b:a8:f7:4f:
                    68:d0:f6:00:36:95:bb:c2:8f:a3:8a:18:a5:17:86:
                    c0:8d:b5:a6:42:2f:b8:f2:ee:82:bc:e0:b7:73:3d:
                    25:14:1f:78:07:ba:21:1f:79:bb:81:25:5d:28:13:
                    91:1c:ff
                Exponent: 65537 (0x10001)
        Attributes:
            Requested Extensions:
                X509v3 Basic Constraints: 
                    CA:FALSE
                X509v3 Key Usage: critical
                    Certificate Sign, CRL Sign
                X509v3 Subject Alternative Name: 
                    URI:urn:e99d5466f7bb:NodeOPCUA-DiscoveryServer, DNS:e99d5466f7bb, IP Address:127.0.0.1
    Signature Algorithm: sha256WithRSAEncryption
    Signature Value:
        5c:4d:68:b0:e2:1a:35:fe:45:b3:75:7c:75:8a:30:a2:0a:32:
        f7:a6:75:23:9f:e5:70:f2:52:ea:b4:56:e5:3d:31:3b:d9:6d:
        d3:f6:f9:6d:d9:04:5d:be:b6:44:dd:a7:a4:f1:ce:47:0a:79:
        22:2c:46:bd:d5:cd:4f:d3:87:25:3d:d7:98:64:8e:76:98:de:
        41:61:2a:90:04:7e:81:83:4d:21:31:8c:cf:0d:cc:86:a0:71:
        c1:b3:0d:0d:ae:e6:96:75:44:ce:22:ef:6c:ae:02:57:2c:06:
        78:8b:b4:93:1a:03:a9:99:0e:a8:72:86:0a:22:1e:d9:f8:74:
        c8:d0:8c:b1:af:16:f8:fe:cb:9c:2e:27:42:22:e0:5e:1f:67:
        3d:f8:ad:29:9c:3e:dd:a8:73:18:1d:11:bf:be:a8:be:b6:66:
        d0:83:2f:b6:5d:4f:9d:16:60:95:04:32:66:a9:36:11:e8:6f:
        b5:e0:4b:e5:7c:38:16:99:0a:8f:91:9d:04:6a:97:99:c8:bf:
        ce:c2:c8:5a:b8:b5:10:51:ad:08:1b:ad:e6:3f:5f:67:84:a2:
        df:75:c8:b4:99:79:77:3b:19:d7:6b:2e:1f:59:87:68:a5:d2:
        09:ec:88:04:dd:4f:0f:93:58:69:4d:11:a0:3b:f3:3c:2a:f2:
        a1:c2:d1:87:86:29:c2:a7:61:0a:c9:63:8f:cf:fd:dd:d6:da:
        78:17:37:62:c7:ba:4b:3f:60:2b:6e:63:e1:48:17:32:13:98:
        c9:19:f1:0f:3b:9a:21:e3:ba:34:f3:72:bc:4a:b2:55:0c:0e:
        54:71:b9:8f:cf:40:18:1c:ba:c4:e5:2c:99:54:62:7a:a3:07:
        d5:9c:e8:40:8e:7e:ee:67:8a:5f:b8:2d:8b:d2:29:ca:46:e9:
        30:b1:a4:bf:56:d4:09:28:fd:7c:4a:f5:ea:62:ab:46:a4:f7:
        e5:7e:fc:6f:9b:66:1f:3f:25:7d:a8:0e:bd:d5:5c:4b:88:ce:
        90:6d:db:69:3d:22:b0:99:c8:87:50:c9:29:27:1b:76:ef:2e:
        29:f1:03:e3:e5:d3:cd:92:28:51:3d:71:14:7c:54:66:af:fb:
        f7:03:ca:7c:7d:12:e1:ee:88:9d:8f:31:7a:02:86:ba:ad:a2:
        99:d4:31:2d:28:a1:88:5e:e7:25:87:67:d3:81:38:24:8f:f6:
        2f:e7:3e:cf:ec:39:c6:9f:03:f1:74:02:7f:09:c0:ab:0d:4a:
        11:ed:7a:30:25:33:a8:fb:36:18:49:f7:8b:6f:c5:c0:76:7c:
        cb:47:f7:59:d4:8d:b7:37:80:c1:84:de:a2:d9:29:a0:ea:b0:
        68:dc:8f:f0:66:34:01:a6
-----BEGIN CERTIFICATE REQUEST-----
MIIE8TCCAtkCAQAwNTELMAkGA1UEBhMCRlIxEjAQBgNVBAoMCU5vZGVPUENVQTES
MBAGA1UEAwwJTm9kZU9QQ1VBMIICIjANBgkqhkiG9w0BAQEFAAOCAg8AMIICCgKC
AgEAsyt2B6wPAvyKKKQ4JevJZPgOMhbowuiRUt7i6EXuj7QFOhnUmxnC6rsksYqM
2V+qV6fL7rAxg7ACEyZuOThEfxejfJ01C8SFAtpfX5P5dclyM+Fgh2WUFQkQ8K1K
wTuNBQYTRl/Kxc/OHqzZHSrWIOYgEM5W59UBj7bAuij8EzG/rpARjM+cxormAswQ
APdY75gvXY9SkfCMHGetLwipGK2UEekejrNPVWzFw003yr2DKsj10DsVp/cA5UPq
93vbiW4EK3b4sS7wBjJIWZ4RJEcd9qJCyGITMjrQt6/EgAAVnPXHrEkp8ruIEsrB
aW7K//HNhHEAiUnKyhY4IkUvSE2BJCl+4YYCL6+4h57oAbjjbofd4rtLHGGBGuE/
9+lOIKYhwLJCJjLmPl3/X866t58xDDtbrWn7n7fCV4RIe4kIunJ5Svwjv/14ixRP
SwqY0TrKmtNo/i15C2O9kS1lPOVoT57P/UosbcoUVahv+as3H49c5AcVu+h8PStW
vLXTSV/VZ5NgPJx+oXT5wlc0Q73B+HwxiqN2FHHQlF3cSoZotKq9ifvmbScbtLVw
l7PWmsmneCP3F06cGW/NAFq3d1zAjamy9GTRPCrN+xuo909o0PYANpW7wo+jihil
F4bAjbWmQi+48u6CvOC3cz0lFB94B7ohH3m7gSVdKBORHP8CAwEAAaB3MHUGCSqG
SIb3DQEJDjFoMGYwCQYDVR0TBAIwADAOBgNVHQ8BAf8EBAMCAQYwSQYDVR0RBEIw
QIYqdXJuOmU5OWQ1NDY2ZjdiYjpOb2RlT1BDVUEtRGlzY292ZXJ5U2VydmVyggxl
OTlkNTQ2NmY3YmKHBH8AAAEwDQYJKoZIhvcNAQELBQADggIBAFxNaLDiGjX+RbN1
fHWKMKIKMvemdSOf5XDyUuq0VuU9MTvZbdP2+W3ZBF2+tkTdp6TxzkcKeSIsRr3V
zU/ThyU915hkjnaY3kFhKpAEfoGDTSExjM8NzIagccGzDQ2u5pZ1RM4i72yuAlcs
BniLtJMaA6mZDqhyhgoiHtn4dMjQjLGvFvj+y5wuJ0Ii4F4fZz34rSmcPt2ocxgd
Eb++qL62ZtCDL7ZdT50WYJUEMmapNhHob7XgS+V8OBaZCo+RnQRql5nIv87CyFq4
tRBRrQgbreY/X2eEot91yLSZeXc7GddrLh9Zh2il0gnsiATdTw+TWGlNEaA78zwq
8qHC0YeGKcKnYQrJY4/P/d3W2ngXN2LHuks/YCtuY+FIFzITmMkZ8Q87miHjujTz
crxKslUMDlRxuY/PQBgcusTlLJlUYnqjB9Wc6ECOfu5nil+4LYvSKcpG6TCxpL9W
1Ako/XxK9epiq0ak9+V+/G+bZh8/JX2oDr3VXEuIzpBt22k9IrCZyIdQySknG3bv
LinxA+Pl082SKFE9cRR8VGav+/cDynx9EuHuiJ2PMXoChrqtopnUMS0ooYhe5yWH
Z9OBOCSP9i/nPs/sOcafA/F0An8JwKsNShHtejAlM6j7NhhJ94tvxcB2fMtH91nU
jbc3gMGE3qLZKaDqsGjcj/BmNAGm
-----END CERTIFICATE REQUEST-----
