Certificate:
    Data:
        Version: 3 (0x2)
        Serial Number: 4129 (0x1021)
        Signature Algorithm: sha256WithRSAEncryption
        Issuer: C=FR, ST=IDF, L=Paris, O=Local NODE-OPCUA Certificate Authority, CN=NodeOPCUA-CA
        Validity
            Not Before: Mar 20 02:38:47 2025 GMT
            Not After : Mar 20 02:38:47 2026 GMT
        Subject: C=FR, O=NodeOPCUA, CN=NodeOPCUA
        Subject Public Key Info:
            Public Key Algorithm: rsaEncryption
                Public-Key: (3072 bit)
                Modulus:
                    00:b1:34:6d:f2:cc:a2:f5:5a:b2:6c:57:75:28:8c:
                    10:70:71:8b:d8:05:05:eb:25:c6:ee:29:53:db:6a:
                    5e:ee:aa:81:2e:99:e7:12:16:b8:ac:1e:18:fc:fa:
                    1e:14:eb:56:66:33:70:c1:11:36:75:4b:9c:24:a2:
                    0c:84:7b:6a:4b:d5:7f:e3:18:b9:6b:55:f2:57:8d:
                    d5:da:72:1b:ab:c8:6b:e3:57:3a:f5:56:c2:87:2e:
                    3b:ea:ce:ea:4c:67:d1:93:46:a3:6b:c1:b5:74:1c:
                    b3:98:ba:61:72:29:4e:ee:4c:7c:5a:e9:12:9a:c0:
                    3d:a3:fc:d6:17:80:af:f5:a6:46:ef:01:12:db:a1:
                    d3:4a:f2:de:18:0c:69:96:7a:f4:65:41:6d:f3:95:
                    9e:4f:32:15:5c:be:f9:3c:f2:20:c7:23:bd:82:ed:
                    bc:d1:9a:f3:d1:87:d3:e0:1b:1c:eb:af:e3:28:05:
                    6f:34:ef:18:36:c5:ed:fc:10:61:f8:0b:b4:70:7d:
                    7b:bc:9a:aa:13:9b:a5:b8:bf:bf:6b:0e:b0:52:30:
                    43:1f:37:bb:24:6a:1f:55:ed:a5:e5:de:47:29:ce:
                    94:ff:76:68:d7:a8:e2:b6:89:9a:16:9a:d4:a8:75:
                    9d:8c:39:6d:f5:78:07:77:40:c8:19:ca:b0:9d:50:
                    51:28:00:ef:e7:06:ba:1d:5d:61:7a:71:82:2f:a6:
                    46:ff:e0:25:57:0f:c0:0b:ce:73:8e:f8:8e:5a:ac:
                    97:5f:70:06:15:ff:56:a5:c6:d4:0c:60:b3:35:b5:
                    54:9f:4a:84:c5:b7:40:77:ea:e9:26:79:ab:94:79:
                    88:ea:04:08:12:02:88:7f:c1:ba:82:0e:6d:66:61:
                    7f:78:90:84:89:b3:66:de:18:62:9a:fb:a8:61:cf:
                    1f:45:91:aa:d0:92:39:8a:33:9c:13:34:55:44:5d:
                    cf:92:52:4e:ef:49:35:3a:32:36:a8:ac:af:a9:f7:
                    89:42:45:58:92:6d:38:a7:29:cd
                Exponent: 65537 (0x10001)
        X509v3 extensions:
            X509v3 Basic Constraints: critical
                CA:FALSE
            X509v3 Subject Key Identifier: 
                5C:10:B6:C9:72:18:D5:D5:5B:9A:B1:4D:25:BA:61:51:A6:45:48:F4
            X509v3 Authority Key Identifier: 
                keyid:40:72:30:66:AE:C7:F9:DB:9A:75:1B:99:FB:53:D6:38:EA:0C:F1:8B
                DirName:/C=FR/ST=IDF/L=Paris/O=Local NODE-OPCUA Certificate Authority/CN=NodeOPCUA-CA
                serial:72:89:60:A3:11:EF:A6:B0:54:AF:4D:2C:23:89:FC:3E:F9:84:93:A9
            X509v3 Subject Alternative Name: 
                URI:urn:e99d5466f7bb:NodeOPCUA-Server, DNS:e99d5466f7bb, IP Address:127.0.0.1
            Netscape Comment: 
                OpenSSL Generated Certificate
            X509v3 Key Usage: critical
                Digital Signature, Non Repudiation, Key Encipherment, Data Encipherment, Key Agreement, Certificate Sign
            X509v3 Extended Key Usage: critical
                TLS Web Server Authentication, TLS Web Client Authentication
    Signature Algorithm: sha256WithRSAEncryption
    Signature Value:
        26:82:5c:d9:63:b3:16:f0:3f:7b:fd:d6:22:14:a4:ee:f0:53:
        d8:fc:d4:ce:6d:d2:2b:8f:b2:7e:81:d5:07:4b:dc:be:86:9e:
        34:d3:27:1d:f0:05:2f:55:62:93:6a:11:c0:38:44:86:5e:fe:
        ec:b8:fc:fd:0e:35:a0:31:82:3c:00:4f:7b:a3:26:98:f3:a7:
        eb:8a:c7:52:77:94:ba:47:cc:0a:fc:ed:6e:59:ef:53:98:e2:
        bf:5b:33:0a:04:08:e8:ab:3e:cf:f9:4b:7a:f6:d7:6f:88:2f:
        f9:40:23:b8:2e:84:5c:47:35:51:e4:4d:7e:a6:8b:1e:6b:91:
        c4:8e:28:4f:8a:35:bf:7b:00:2c:91:b1:af:6b:0f:2b:fb:b4:
        1a:58:2a:46:94:87:f8:a3:a5:ec:84:e6:f3:cb:81:f5:6d:1a:
        61:84:f2:ce:4e:a9:9e:ac:e7:03:64:c9:b1:f3:c5:f3:20:9c:
        ed:e4:37:97:c3:ec:55:b2:66:d4:d3:b0:30:02:d1:85:b3:c6:
        ab:b6:fd:ac:81:1f:65:a5:b6:e7:91:cf:08:24:4f:31:bf:2c:
        0e:cd:cc:22:a1:41:a5:fb:6c:d0:86:71:df:48:33:ec:82:84:
        14:b5:c9:cb:fd:60:8b:3a:29:ed:5c:aa:95:67:ee:f1:90:62:
        7e:4e:39:a0
-----BEGIN CERTIFICATE-----
MIIFLDCCBBSgAwIBAgICECEwDQYJKoZIhvcNAQELBQAwczELMAkGA1UEBhMCRlIx
DDAKBgNVBAgTA0lERjEOMAwGA1UEBxMFUGFyaXMxLzAtBgNVBAoTJkxvY2FsIE5P
REUtT1BDVUEgQ2VydGlmaWNhdGUgQXV0aG9yaXR5MRUwEwYDVQQDEwxOb2RlT1BD
VUEtQ0EwHhcNMjUwMzIwMDIzODQ3WhcNMjYwMzIwMDIzODQ3WjA1MQswCQYDVQQG
EwJGUjESMBAGA1UECgwJTm9kZU9QQ1VBMRIwEAYDVQQDDAlOb2RlT1BDVUEwggGi
MA0GCSqGSIb3DQEBAQUAA4IBjwAwggGKAoIBgQCxNG3yzKL1WrJsV3UojBBwcYvY
BQXrJcbuKVPbal7uqoEumecSFrisHhj8+h4U61ZmM3DBETZ1S5wkogyEe2pL1X/j
GLlrVfJXjdXachuryGvjVzr1VsKHLjvqzupMZ9GTRqNrwbV0HLOYumFyKU7uTHxa
6RKawD2j/NYXgK/1pkbvARLbodNK8t4YDGmWevRlQW3zlZ5PMhVcvvk88iDHI72C
7bzRmvPRh9PgGxzrr+MoBW807xg2xe38EGH4C7RwfXu8mqoTm6W4v79rDrBSMEMf
N7skah9V7aXl3kcpzpT/dmjXqOK2iZoWmtSodZ2MOW31eAd3QMgZyrCdUFEoAO/n
BrodXWF6cYIvpkb/4CVXD8ALznOO+I5arJdfcAYV/1alxtQMYLM1tVSfSoTFt0B3
6ukmeauUeYjqBAgSAoh/wbqCDm1mYX94kISJs2beGGKa+6hhzx9FkarQkjmKM5wT
NFVEXc+SUk7vSTU6MjaorK+p94lCRViSbTinKc0CAwEAAaOCAYYwggGCMAwGA1Ud
EwEB/wQCMAAwHQYDVR0OBBYEFFwQtslyGNXVW5qxTSW6YVGmRUj0MIGwBgNVHSME
gagwgaWAFEByMGaux/nbmnUbmftT1jjqDPGLoXekdTBzMQswCQYDVQQGEwJGUjEM
MAoGA1UECBMDSURGMQ4wDAYDVQQHEwVQYXJpczEvMC0GA1UEChMmTG9jYWwgTk9E
RS1PUENVQSBDZXJ0aWZpY2F0ZSBBdXRob3JpdHkxFTATBgNVBAMTDE5vZGVPUENV
QS1DQYIUcolgoxHvprBUr00sI4n8PvmEk6kwQAYDVR0RBDkwN4YhdXJuOmU5OWQ1
NDY2ZjdiYjpOb2RlT1BDVUEtU2VydmVyggxlOTlkNTQ2NmY3YmKHBH8AAAEwLAYJ
YIZIAYb4QgENBB8WHU9wZW5TU0wgR2VuZXJhdGVkIENlcnRpZmljYXRlMA4GA1Ud
DwEB/wQEAwIC/DAgBgNVHSUBAf8EFjAUBggrBgEFBQcDAQYIKwYBBQUHAwIwDQYJ
KoZIhvcNAQELBQADggEBACaCXNljsxbwP3v91iIUpO7wU9j81M5t0iuPsn6B1QdL
3L6GnjTTJx3wBS9VYpNqEcA4RIZe/uy4/P0ONaAxgjwAT3ujJpjzp+uKx1J3lLpH
zAr87W5Z71OY4r9bMwoECOirPs/5S3r212+IL/lAI7guhFxHNVHkTX6mix5rkcSO
KE+KNb97ACyRsa9rDyv7tBpYKkaUh/ijpeyE5vPLgfVtGmGE8s5OqZ6s5wNkybHz
xfMgnO3kN5fD7FWyZtTTsDAC0YWzxqu2/ayBH2WltueRzwgkTzG/LA7NzCKhQaX7
bNCGcd9IM+yChBS1ycv9YIs6Ke1cqpVn7vGQYn5OOaA=
-----END CERTIFICATE-----
Certificate:
    Data:
        Version: 3 (0x2)
        Serial Number:
            72:89:60:a3:11:ef:a6:b0:54:af:4d:2c:23:89:fc:3e:f9:84:93:a9
        Signature Algorithm: sha256WithRSAEncryption
        Issuer: C = FR, ST = IDF, L = Paris, O = Local NODE-OPCUA Certificate Authority, CN = NodeOPCUA-CA
        Validity
            Not Before: Mar 20 02:38:47 2024 GMT
            Not After : Mar 18 02:38:47 2034 GMT
        Subject: C = FR, ST = IDF, L = Paris, O = Local NODE-OPCUA Certificate Authority, CN = NodeOPCUA-CA
        Subject Public Key Info:
            Public Key Algorithm: rsaEncryption
                Public-Key: (2048 bit)
                Modulus:
                    00:b9:71:cc:db:cf:89:9d:e2:97:00:c2:e7:4b:db:
                    6c:37:ab:b0:f4:e9:dc:ef:71:1c:32:1d:c5:34:34:
                    93:22:4b:c3:fa:78:9a:f0:78:e3:f3:3e:58:09:da:
                    4f:af:dc:45:8a:9b:93:25:6f:7b:72:83:d7:a5:16:
                    b0:0c:23:e6:6b:35:8a:09:9f:84:3d:a9:43:6e:68:
                    ba:40:47:04:33:4d:6d:7f:f4:45:8d:47:24:c3:79:
                    e6:76:b2:15:6e:4c:23:51:c6:0a:6d:63:0b:f4:34:
                    b1:18:97:7a:95:22:fb:f9:8a:4a:f2:7f:0c:c3:a0:
                    71:c0:d3:16:f4:4a:4c:e2:00:12:e2:ce:d7:e9:09:
                    01:2f:7e:7b:ad:fb:ad:14:d9:10:6d:2b:b6:1b:a4:
                    45:05:40:cc:d5:04:29:04:ab:2a:80:ba:67:12:6e:
                    1a:d0:2c:d6:f2:ce:4f:1e:89:88:7e:41:8a:f6:85:
                    d3:06:58:47:94:ed:84:b1:9e:90:e9:da:cd:e4:1b:
                    df:79:b8:28:f2:5e:5f:c8:27:dc:fa:ef:f3:ee:dd:
                    2a:50:6d:7e:0a:97:05:12:f5:7b:0b:6f:d0:e0:6b:
                    da:61:0c:b3:50:ff:18:d8:c6:ca:97:73:20:fb:20:
                    93:10:df:a7:d7:d6:1a:23:2d:37:b2:eb:08:f5:5c:
                    4c:2d
                Exponent: 65537 (0x10001)
        X509v3 extensions:
            X509v3 Subject Key Identifier: 
                40:72:30:66:AE:C7:F9:DB:9A:75:1B:99:FB:53:D6:38:EA:0C:F1:8B
            X509v3 Authority Key Identifier: 
                keyid:40:72:30:66:AE:C7:F9:DB:9A:75:1B:99:FB:53:D6:38:EA:0C:F1:8B
                DirName:/C=FR/ST=IDF/L=Paris/O=Local NODE-OPCUA Certificate Authority/CN=NodeOPCUA-CA
                serial:72:89:60:A3:11:EF:A6:B0:54:AF:4D:2C:23:89:FC:3E:F9:84:93:A9
            X509v3 Basic Constraints: 
                CA:TRUE
            X509v3 Key Usage: critical
                Certificate Sign, CRL Sign
            Netscape Comment: 
                CA Certificate generated by Node-OPCUA Certificate utility using openssl
            X509v3 CRL Distribution Points: 
                Full Name:
                  URI:http://localhost:8900/crl.pem
    Signature Algorithm: sha256WithRSAEncryption
    Signature Value:
        ab:e7:3f:e8:5f:cd:89:8a:ca:18:95:23:0a:89:f7:74:4c:ff:
        fd:7b:91:83:28:b8:e9:11:1a:9d:2b:6e:71:69:36:85:53:8f:
        b5:77:27:88:81:fa:b5:15:ff:f0:9d:9a:e8:8a:3f:1a:09:7e:
        97:23:1e:75:a7:ee:76:ff:32:7e:00:d7:12:85:70:39:ab:17:
        88:71:02:ed:a5:3b:bd:ee:78:59:a1:e6:bf:30:38:c2:2c:c4:
        dc:4c:13:9a:38:da:e5:4f:94:80:a9:1d:18:49:81:75:63:70:
        20:fc:ed:ae:9d:55:3e:a3:41:4c:cd:eb:e8:31:dd:f2:c0:25:
        8e:75:c3:a7:c1:95:d1:02:94:96:ac:0f:09:93:05:6d:96:04:
        b8:e5:c1:17:20:29:4e:e5:36:a7:11:b7:e1:04:69:78:98:be:
        b7:97:5e:23:d1:23:22:d7:45:04:ad:35:be:de:cc:da:4e:9d:
        1c:19:f0:39:05:06:cb:30:96:26:90:21:74:fc:ac:e1:df:46:
        6b:e9:31:0b:51:f7:1d:42:fd:ff:49:2e:72:9e:68:7b:8f:75:
        07:9e:63:4c:39:c5:30:3c:c2:54:88:b6:73:9c:9e:29:da:7c:
        6c:36:b7:ea:cf:ea:26:06:7b:d3:72:30:49:57:93:ca:6d:b6:
        b3:6e:e2:d7
-----BEGIN CERTIFICATE-----
MIIE8zCCA9ugAwIBAgIUcolgoxHvprBUr00sI4n8PvmEk6kwDQYJKoZIhvcNAQEL
BQAwczELMAkGA1UEBhMCRlIxDDAKBgNVBAgTA0lERjEOMAwGA1UEBxMFUGFyaXMx
LzAtBgNVBAoTJkxvY2FsIE5PREUtT1BDVUEgQ2VydGlmaWNhdGUgQXV0aG9yaXR5
MRUwEwYDVQQDEwxOb2RlT1BDVUEtQ0EwHhcNMjQwMzIwMDIzODQ3WhcNMzQwMzE4
MDIzODQ3WjBzMQswCQYDVQQGEwJGUjEMMAoGA1UECBMDSURGMQ4wDAYDVQQHEwVQ
YXJpczEvMC0GA1UEChMmTG9jYWwgTk9ERS1PUENVQSBDZXJ0aWZpY2F0ZSBBdXRo
b3JpdHkxFTATBgNVBAMTDE5vZGVPUENVQS1DQTCCASIwDQYJKoZIhvcNAQEBBQAD
ggEPADCCAQoCggEBALlxzNvPiZ3ilwDC50vbbDersPTp3O9xHDIdxTQ0kyJLw/p4
mvB44/M+WAnaT6/cRYqbkyVve3KD16UWsAwj5ms1igmfhD2pQ25oukBHBDNNbX/0
RY1HJMN55nayFW5MI1HGCm1jC/Q0sRiXepUi+/mKSvJ/DMOgccDTFvRKTOIAEuLO
1+kJAS9+e637rRTZEG0rthukRQVAzNUEKQSrKoC6ZxJuGtAs1vLOTx6JiH5BivaF
0wZYR5TthLGekOnazeQb33m4KPJeX8gn3Prv8+7dKlBtfgqXBRL1ewtv0OBr2mEM
s1D/GNjGypdzIPsgkxDfp9fWGiMtN7LrCPVcTC0CAwEAAaOCAX0wggF5MB0GA1Ud
DgQWBBRAcjBmrsf525p1G5n7U9Y46gzxizCBsAYDVR0jBIGoMIGlgBRAcjBmrsf5
25p1G5n7U9Y46gzxi6F3pHUwczELMAkGA1UEBhMCRlIxDDAKBgNVBAgTA0lERjEO
MAwGA1UEBxMFUGFyaXMxLzAtBgNVBAoTJkxvY2FsIE5PREUtT1BDVUEgQ2VydGlm
aWNhdGUgQXV0aG9yaXR5MRUwEwYDVQQDEwxOb2RlT1BDVUEtQ0GCFHKJYKMR76aw
VK9NLCOJ/D75hJOpMAwGA1UdEwQFMAMBAf8wDgYDVR0PAQH/BAQDAgEGMFcGCWCG
SAGG+EIBDQRKFkhDQSBDZXJ0aWZpY2F0ZSBnZW5lcmF0ZWQgYnkgTm9kZS1PUENV
QSBDZXJ0aWZpY2F0ZSB1dGlsaXR5IHVzaW5nIG9wZW5zc2wwLgYDVR0fBCcwJTAj
oCGgH4YdaHR0cDovL2xvY2FsaG9zdDo4OTAwL2NybC5wZW0wDQYJKoZIhvcNAQEL
BQADggEBAKvnP+hfzYmKyhiVIwqJ93RM//17kYMouOkRGp0rbnFpNoVTj7V3J4iB
+rUV//CdmuiKPxoJfpcjHnWn7nb/Mn4A1xKFcDmrF4hxAu2lO73ueFmh5r8wOMIs
xNxME5o42uVPlICpHRhJgXVjcCD87a6dVT6jQUzN6+gx3fLAJY51w6fBldEClJas
DwmTBW2WBLjlwRcgKU7lNqcRt+EEaXiYvreXXiPRIyLXRQStNb7ezNpOnRwZ8DkF
BsswliaQIXT8rOHfRmvpMQtR9x1C/f9JLnKeaHuPdQeeY0w5xTA8wlSItnOcnina
fGw2t+rP6iYGe9NyMElXk8pttrNu4tc=
-----END CERTIFICATE-----
