Certificate Request:
    Data:
        Version: 1 (0x0)
        Subject: C = FR, O = NodeOPCUA, CN = NodeOPCUA
        Subject Public Key Info:
            Public Key Algorithm: rsaEncryption
                Public-Key: (4096 bit)
                Modulus:
                    00:bb:0a:96:21:83:d3:20:17:44:46:02:49:e7:03:
                    a1:4d:6a:9c:23:52:43:b1:93:34:03:b6:aa:41:9e:
                    d4:75:56:af:24:fb:7a:c1:87:88:23:e5:50:be:25:
                    c4:6b:b7:7b:28:26:61:25:62:bd:26:e8:63:8b:91:
                    ec:e2:01:88:f2:22:e8:72:73:70:a3:54:1c:33:49:
                    49:77:6a:b6:e0:b5:ac:d2:8e:25:d5:1c:71:a4:fd:
                    ad:1a:2b:39:2e:5b:f6:59:4a:ef:e6:cc:5a:fa:97:
                    08:df:76:4d:6d:34:b7:00:d7:25:fc:99:57:36:d8:
                    91:ed:bb:1b:ae:11:e7:77:25:34:cf:98:2e:03:a9:
                    c1:58:1c:99:ea:4a:92:1d:e5:cb:93:62:4e:33:2d:
                    af:9b:7b:51:82:a2:5a:24:fc:67:7d:4e:dc:d5:01:
                    40:11:43:ab:4f:a7:a6:9c:b7:6d:b5:f5:60:ab:84:
                    00:64:9f:dc:6b:c3:51:6b:a4:5d:6d:21:cb:e3:2e:
                    88:ba:64:11:24:df:f3:cd:9c:e8:34:1b:a4:10:a6:
                    80:59:48:dc:ba:2a:9d:a7:50:2d:f5:92:6f:eb:43:
                    4d:5f:ed:d3:10:31:6a:d4:62:8a:d9:dd:bb:b5:67:
                    9e:83:05:79:83:19:fb:d6:76:02:18:3b:1e:e1:ce:
                    4b:43:9b:19:7c:99:9a:3d:92:fc:d7:05:70:0a:56:
                    cd:89:e9:44:2e:83:d4:7b:a5:aa:4b:da:e2:3e:7b:
                    3b:ee:0f:d9:49:18:78:29:18:81:b0:20:a4:d5:7a:
                    6e:78:a3:bc:c0:97:64:a5:84:64:7a:63:a1:e6:ca:
                    21:e8:3c:81:02:91:49:0c:0b:3b:da:f5:0c:6e:54:
                    41:0f:cd:39:ea:d0:3c:a4:b8:71:42:47:ea:d6:a9:
                    c8:d9:8a:6b:e1:2d:af:77:1c:6b:63:b8:4a:aa:4e:
                    03:5b:1d:c8:58:01:09:9d:eb:d7:4b:53:22:05:9b:
                    cf:31:e2:d3:39:a3:cc:02:5c:b0:f0:07:a3:36:28:
                    6f:f0:33:2a:77:2f:b2:9a:30:e5:2e:a5:17:5c:92:
                    e8:b6:1a:58:28:4d:63:4e:5d:26:ee:8d:0b:e2:3b:
                    a2:f3:cc:64:3f:91:4b:a0:ad:e7:4d:6d:95:e9:49:
                    aa:9f:60:00:74:c3:72:b0:40:4a:86:78:50:ce:24:
                    18:22:af:20:97:54:7a:a0:e2:e2:59:b0:66:e3:30:
                    61:91:66:cf:ae:6b:35:e8:76:36:68:f6:a3:bd:47:
                    70:f6:c8:87:36:cc:b3:eb:2b:ff:ac:0d:96:ae:4e:
                    1f:f9:bc:19:5d:5d:76:f0:59:68:5b:cf:41:96:0a:
                    1d:4b:3f
                Exponent: 65537 (0x10001)
        Attributes:
            Requested Extensions:
                X509v3 Basic Constraints: 
                    CA:FALSE
                X509v3 Key Usage: critical
                    Certificate Sign, CRL Sign
                X509v3 Subject Alternative Name: 
                    URI:urn:e99d5466f7bb:NodeOPCUA-Server, DNS:e99d5466f7bb, IP Address:127.0.0.1
    Signature Algorithm: sha256WithRSAEncryption
    Signature Value:
        09:80:fc:f0:72:02:71:76:92:aa:c3:81:be:3b:48:bb:c2:e9:
        a0:0e:23:7d:bf:c4:49:e8:13:f8:29:04:eb:0b:eb:66:15:39:
        de:67:e3:8d:70:af:c7:f8:88:6c:7a:5d:ea:69:53:47:96:4a:
        0e:90:a6:a7:82:40:c4:ce:01:f9:3a:34:5e:d9:b5:1b:f7:23:
        4f:6e:da:38:49:b8:92:69:a8:dc:8c:52:85:fd:e7:73:00:10:
        0f:2b:e5:b4:a3:d2:df:a2:24:3d:15:f8:7a:41:41:54:10:86:
        41:f2:bb:a7:63:64:b0:0f:c2:23:3b:2c:70:cf:c1:b1:81:9a:
        6a:fa:9c:be:c2:06:14:a5:0d:0f:f7:d3:71:9e:c1:15:90:74:
        c6:c7:2d:78:a1:4c:28:be:09:b3:3c:3a:87:79:17:95:7e:6c:
        47:cd:87:bc:a9:1f:a2:b5:82:d4:cf:f0:3d:ad:ef:99:71:25:
        da:d7:61:f1:f3:de:7d:27:ed:7a:ea:27:64:44:a3:5e:06:52:
        3f:46:3d:34:60:a6:a6:9c:e3:de:79:e3:22:b0:f4:18:00:ca:
        fa:f9:ba:30:69:7f:dd:17:99:6a:53:e0:2a:a1:51:2a:90:d6:
        1e:78:8e:3f:19:bb:19:ae:b8:d9:e2:63:d8:92:35:b1:e2:5c:
        53:f5:4d:4a:bd:cf:34:d0:1b:22:d4:41:c6:ff:96:2c:48:ff:
        cc:86:3c:20:c2:78:08:29:a4:e4:e7:6a:8e:2e:ae:42:48:d2:
        9e:e3:38:9a:71:af:47:2e:6b:77:a0:60:db:04:6e:ba:bb:96:
        ea:c8:b9:b7:93:c8:4d:46:57:ee:83:00:25:14:33:79:85:77:
        df:46:80:3c:42:4a:ea:02:f8:55:d3:86:0d:ce:c2:d3:76:5f:
        d5:1b:21:f9:c6:7d:0e:16:92:ee:80:0f:0e:f6:0e:f8:71:11:
        a9:c0:fb:d7:e6:0e:1e:94:6f:0f:61:ca:ef:57:8e:e3:26:7f:
        90:c5:cc:fa:0c:ac:52:e1:d7:73:75:61:e6:8d:b5:52:13:7a:
        aa:8d:f1:0b:55:69:13:83:40:c7:21:de:d4:82:0b:77:d0:0b:
        8c:cf:cc:ae:8d:a7:df:d3:9f:23:76:fd:3b:8c:ba:c7:61:bb:
        01:b2:97:2a:bc:69:41:cc:21:d8:cb:12:35:2e:93:ad:af:f9:
        ff:e0:51:1a:21:71:c2:7a:97:16:8f:1b:c0:63:97:db:8e:41:
        b4:76:f4:e9:88:b1:19:e1:ca:65:68:fe:ee:4c:6a:54:03:bf:
        be:47:e4:16:7f:10:a2:62:26:98:2d:cc:6e:36:85:08:4f:26:
        5d:53:63:f6:4f:99:e5:64
-----BEGIN CERTIFICATE REQUEST-----
MIIE6DCCAtACAQAwNTELMAkGA1UEBhMCRlIxEjAQBgNVBAoMCU5vZGVPUENVQTES
MBAGA1UEAwwJTm9kZU9QQ1VBMIICIjANBgkqhkiG9w0BAQEFAAOCAg8AMIICCgKC
AgEAuwqWIYPTIBdERgJJ5wOhTWqcI1JDsZM0A7aqQZ7UdVavJPt6wYeII+VQviXE
a7d7KCZhJWK9Juhji5Hs4gGI8iLocnNwo1QcM0lJd2q24LWs0o4l1RxxpP2tGis5
Llv2WUrv5sxa+pcI33ZNbTS3ANcl/JlXNtiR7bsbrhHndyU0z5guA6nBWByZ6kqS
HeXLk2JOMy2vm3tRgqJaJPxnfU7c1QFAEUOrT6emnLdttfVgq4QAZJ/ca8NRa6Rd
bSHL4y6IumQRJN/zzZzoNBukEKaAWUjcuiqdp1At9ZJv60NNX+3TEDFq1GKK2d27
tWeegwV5gxn71nYCGDse4c5LQ5sZfJmaPZL81wVwClbNielELoPUe6WqS9riPns7
7g/ZSRh4KRiBsCCk1XpueKO8wJdkpYRkemOh5soh6DyBApFJDAs72vUMblRBD805
6tA8pLhxQkfq1qnI2Ypr4S2vdxxrY7hKqk4DWx3IWAEJnevXS1MiBZvPMeLTOaPM
Alyw8AejNihv8DMqdy+ymjDlLqUXXJLothpYKE1jTl0m7o0L4jui88xkP5FLoK3n
TW2V6Umqn2AAdMNysEBKhnhQziQYIq8gl1R6oOLiWbBm4zBhkWbPrms16HY2aPaj
vUdw9siHNsyz6yv/rA2Wrk4f+bwZXV128FloW89BlgodSz8CAwEAAaBuMGwGCSqG
SIb3DQEJDjFfMF0wCQYDVR0TBAIwADAOBgNVHQ8BAf8EBAMCAQYwQAYDVR0RBDkw
N4YhdXJuOmU5OWQ1NDY2ZjdiYjpOb2RlT1BDVUEtU2VydmVyggxlOTlkNTQ2NmY3
YmKHBH8AAAEwDQYJKoZIhvcNAQELBQADggIBAAmA/PByAnF2kqrDgb47SLvC6aAO
I32/xEnoE/gpBOsL62YVOd5n441wr8f4iGx6XeppU0eWSg6QpqeCQMTOAfk6NF7Z
tRv3I09u2jhJuJJpqNyMUoX953MAEA8r5bSj0t+iJD0V+HpBQVQQhkHyu6djZLAP
wiM7LHDPwbGBmmr6nL7CBhSlDQ/303GewRWQdMbHLXihTCi+CbM8Ood5F5V+bEfN
h7ypH6K1gtTP8D2t75lxJdrXYfHz3n0n7XrqJ2REo14GUj9GPTRgpqac49554yKw
9BgAyvr5ujBpf90XmWpT4CqhUSqQ1h54jj8ZuxmuuNniY9iSNbHiXFP1TUq9zzTQ
GyLUQcb/lixI/8yGPCDCeAgppOTnao4urkJI0p7jOJpxr0cua3egYNsEbrq7lurI
ubeTyE1GV+6DACUUM3mFd99GgDxCSuoC+FXThg3OwtN2X9UbIfnGfQ4Wku6ADw72
DvhxEanA+9fmDh6Ubw9hyu9XjuMmf5DFzPoMrFLh13N1YeaNtVITeqqN8QtVaROD
QMch3tSCC3fQC4zPzK6Np9/TnyN2/TuMusdhuwGylyq8aUHMIdjLEjUuk62v+f/g
URohccJ6lxaPG8Bjl9uOQbR29OmIsRnhymVo/u5MalQDv75H5BZ/EKJiJpgtzG42
hQhPJl1TY/ZPmeVk
-----END CERTIFICATE REQUEST-----
