Certificate Request:
    Data:
        Version: 1 (0x0)
        Subject: C = FR, O = NodeOPCUA, CN = NodeOPCUA
        Subject Public Key Info:
            Public Key Algorithm: rsaEncryption
                Public-Key: (3072 bit)
                Modulus:
                    00:b1:34:6d:f2:cc:a2:f5:5a:b2:6c:57:75:28:8c:
                    10:70:71:8b:d8:05:05:eb:25:c6:ee:29:53:db:6a:
                    5e:ee:aa:81:2e:99:e7:12:16:b8:ac:1e:18:fc:fa:
                    1e:14:eb:56:66:33:70:c1:11:36:75:4b:9c:24:a2:
                    0c:84:7b:6a:4b:d5:7f:e3:18:b9:6b:55:f2:57:8d:
                    d5:da:72:1b:ab:c8:6b:e3:57:3a:f5:56:c2:87:2e:
                    3b:ea:ce:ea:4c:67:d1:93:46:a3:6b:c1:b5:74:1c:
                    b3:98:ba:61:72:29:4e:ee:4c:7c:5a:e9:12:9a:c0:
                    3d:a3:fc:d6:17:80:af:f5:a6:46:ef:01:12:db:a1:
                    d3:4a:f2:de:18:0c:69:96:7a:f4:65:41:6d:f3:95:
                    9e:4f:32:15:5c:be:f9:3c:f2:20:c7:23:bd:82:ed:
                    bc:d1:9a:f3:d1:87:d3:e0:1b:1c:eb:af:e3:28:05:
                    6f:34:ef:18:36:c5:ed:fc:10:61:f8:0b:b4:70:7d:
                    7b:bc:9a:aa:13:9b:a5:b8:bf:bf:6b:0e:b0:52:30:
                    43:1f:37:bb:24:6a:1f:55:ed:a5:e5:de:47:29:ce:
                    94:ff:76:68:d7:a8:e2:b6:89:9a:16:9a:d4:a8:75:
                    9d:8c:39:6d:f5:78:07:77:40:c8:19:ca:b0:9d:50:
                    51:28:00:ef:e7:06:ba:1d:5d:61:7a:71:82:2f:a6:
                    46:ff:e0:25:57:0f:c0:0b:ce:73:8e:f8:8e:5a:ac:
                    97:5f:70:06:15:ff:56:a5:c6:d4:0c:60:b3:35:b5:
                    54:9f:4a:84:c5:b7:40:77:ea:e9:26:79:ab:94:79:
                    88:ea:04:08:12:02:88:7f:c1:ba:82:0e:6d:66:61:
                    7f:78:90:84:89:b3:66:de:18:62:9a:fb:a8:61:cf:
                    1f:45:91:aa:d0:92:39:8a:33:9c:13:34:55:44:5d:
                    cf:92:52:4e:ef:49:35:3a:32:36:a8:ac:af:a9:f7:
                    89:42:45:58:92:6d:38:a7:29:cd
                Exponent: 65537 (0x10001)
        Attributes:
            Requested Extensions:
                X509v3 Basic Constraints: 
                    CA:FALSE
                X509v3 Key Usage: critical
                    Certificate Sign, CRL Sign
                X509v3 Subject Alternative Name: 
                    URI:urn:e99d5466f7bb:NodeOPCUA-Server, DNS:e99d5466f7bb, IP Address:127.0.0.1
    Signature Algorithm: sha256WithRSAEncryption
    Signature Value:
        7d:58:fc:b2:8c:85:5b:88:6e:ee:3c:57:9f:9c:7f:31:fe:d6:
        7e:1d:4b:9a:cd:87:db:19:4b:82:c4:4e:fe:84:64:a5:30:c0:
        69:b5:56:35:fb:33:36:cd:16:42:af:7d:5b:62:14:0b:67:69:
        2d:a5:fd:19:78:b3:6c:bb:c3:a1:ab:f4:f6:0c:9d:a0:84:bd:
        a7:2d:ba:ce:37:c9:27:9b:a9:f9:48:ca:e7:cb:7a:00:e8:b9:
        7f:67:9f:98:2a:55:82:73:47:a6:56:fa:2d:07:75:00:52:02:
        d3:f4:ff:8b:fe:a0:23:a0:fb:bb:e6:d3:e9:d5:19:18:c9:37:
        3a:7d:06:ed:0f:27:60:5a:f2:77:cf:5a:b6:5e:a6:75:3d:2f:
        e9:e2:3e:4b:26:04:4d:a2:c8:5c:b5:3c:e8:27:e2:65:56:0b:
        26:28:9f:c2:c9:a0:e7:af:9e:c7:a3:d7:91:54:01:df:1f:a5:
        d9:0e:90:c3:56:cd:46:2e:7a:cb:f4:72:2e:b8:26:c0:59:f9:
        d7:08:e4:83:b2:e1:ef:e6:10:ad:98:6b:5c:cb:fd:d4:b8:95:
        52:96:41:c8:84:9b:83:04:dd:3a:18:35:08:5f:e1:c1:c2:b4:
        15:b1:aa:f0:c2:0d:b4:8b:94:7c:23:5e:18:5e:8b:54:b8:23:
        a2:cf:26:c8:0a:41:a9:b4:2f:d2:c4:e6:e9:50:27:ab:58:d6:
        9a:9f:ec:9f:fd:4a:81:07:dc:36:57:d3:31:6b:1e:65:a3:83:
        be:08:f2:bc:e3:17:4a:af:91:69:ca:93:d1:45:ae:49:75:a3:
        d1:ad:65:69:7d:38:9b:45:59:3c:02:65:cf:dd:15:57:52:55:
        20:4b:5a:1a:11:dd:f7:d7:8e:44:f2:35:ce:99:5a:ed:bd:2a:
        a1:5b:37:2e:8c:ac:8f:72:27:91:7c:77:bc:70:e8:1b:ac:23:
        b9:7b:3f:60:a2:64:39:28:d2:28:0b:fd:ee:41:2f:b2:2f:78:
        64:a1:9c:0d:cb:16
-----BEGIN CERTIFICATE REQUEST-----
MIID6DCCAlACAQAwNTELMAkGA1UEBhMCRlIxEjAQBgNVBAoMCU5vZGVPUENVQTES
MBAGA1UEAwwJTm9kZU9QQ1VBMIIBojANBgkqhkiG9w0BAQEFAAOCAY8AMIIBigKC
AYEAsTRt8syi9VqybFd1KIwQcHGL2AUF6yXG7ilT22pe7qqBLpnnEha4rB4Y/Poe
FOtWZjNwwRE2dUucJKIMhHtqS9V/4xi5a1XyV43V2nIbq8hr41c69VbChy476s7q
TGfRk0aja8G1dByzmLphcilO7kx8WukSmsA9o/zWF4Cv9aZG7wES26HTSvLeGAxp
lnr0ZUFt85WeTzIVXL75PPIgxyO9gu280Zrz0YfT4Bsc66/jKAVvNO8YNsXt/BBh
+Au0cH17vJqqE5uluL+/aw6wUjBDHze7JGofVe2l5d5HKc6U/3Zo16jitomaFprU
qHWdjDlt9XgHd0DIGcqwnVBRKADv5wa6HV1henGCL6ZG/+AlVw/AC85zjviOWqyX
X3AGFf9WpcbUDGCzNbVUn0qExbdAd+rpJnmrlHmI6gQIEgKIf8G6gg5tZmF/eJCE
ibNm3hhimvuoYc8fRZGq0JI5ijOcEzRVRF3PklJO70k1OjI2qKyvqfeJQkVYkm04
pynNAgMBAAGgbjBsBgkqhkiG9w0BCQ4xXzBdMAkGA1UdEwQCMAAwDgYDVR0PAQH/
BAQDAgEGMEAGA1UdEQQ5MDeGIXVybjplOTlkNTQ2NmY3YmI6Tm9kZU9QQ1VBLVNl
cnZlcoIMZTk5ZDU0NjZmN2JihwR/AAABMA0GCSqGSIb3DQEBCwUAA4IBgQB9WPyy
jIVbiG7uPFefnH8x/tZ+HUuazYfbGUuCxE7+hGSlMMBptVY1+zM2zRZCr31bYhQL
Z2ktpf0ZeLNsu8Ohq/T2DJ2ghL2nLbrON8knm6n5SMrny3oA6Ll/Z5+YKlWCc0em
VvotB3UAUgLT9P+L/qAjoPu75tPp1RkYyTc6fQbtDydgWvJ3z1q2XqZ1PS/p4j5L
JgRNoshctTzoJ+JlVgsmKJ/CyaDnr57Ho9eRVAHfH6XZDpDDVs1GLnrL9HIuuCbA
WfnXCOSDsuHv5hCtmGtcy/3UuJVSlkHIhJuDBN06GDUIX+HBwrQVsarwwg20i5R8
I14YXotUuCOizybICkGptC/SxObpUCerWNaan+yf/UqBB9w2V9Mxax5lo4O+CPK8
4xdKr5FpypPRRa5JdaPRrWVpfTibRVk8AmXP3RVXUlUgS1oaEd33145E8jXOmVrt
vSqhWzcujKyPcieRfHe8cOgbrCO5ez9gomQ5KNIoC/3uQS+yL3hkoZwNyxY=
-----END CERTIFICATE REQUEST-----
