Certificate:
    Data:
        Version: 3 (0x2)
        Serial Number: 4117 (0x1015)
        Signature Algorithm: sha256WithRSAEncryption
        Issuer: O=NodeOPCUA, CN=NodeOPCUA
        Validity
            Not Before: Mar 19 02:38:47 2024 GMT
            Not After : Mar 19 02:38:47 2025 GMT
        Subject: O=NodeOPCUA, CN=NodeOPCUA
        Subject Public Key Info:
            Public Key Algorithm: rsaEncryption
                Public-Key: (1024 bit)
                Modulus:
                    00:cb:ff:ad:c4:ac:cc:ab:d0:b6:a5:f0:6a:b2:dc:
                    33:97:25:52:b7:a2:3e:5a:93:b9:62:5c:da:2c:e8:
                    47:1b:36:98:2b:23:7c:91:a9:6a:05:92:24:07:60:
                    1a:16:f3:60:bc:35:2f:2a:fb:94:00:5e:42:20:79:
                    80:e1:38:e0:a5:80:27:a0:3a:b1:f7:f5:2a:1f:7c:
                    cf:2d:88:cc:94:34:df:d1:6e:b5:29:a5:58:14:18:
                    76:75:ea:68:22:00:43:72:70:75:d2:d7:e5:8c:d1:
                    d6:bb:66:e6:ec:1a:32:52:f8:6c:65:66:ec:0d:77:
                    e9:1d:dd:57:b5:87:db:67:79
                Exponent: 65537 (0x10001)
        X509v3 extensions:
            X509v3 Basic Constraints: critical
                CA:FALSE
            X509v3 Subject Key Identifier: 
                C1:0D:C0:99:77:95:53:7A:FB:43:A8:5E:38:95:FF:20:85:4F:DB:37
            X509v3 Authority Key Identifier: 
                DirName:/O=NodeOPCUA/CN=NodeOPCUA
                serial:10:15
            X509v3 Subject Alternative Name: 
                URI:urn:e99d5466f7bb:NodeOPCUA-Server, DNS:e99d5466f7bb
            Netscape Comment: 
                OpenSSL Generated Certificate
            X509v3 Key Usage: critical
                Digital Signature, Non Repudiation, Key Encipherment, Data Encipherment, Key Agreement, Certificate Sign
            X509v3 Extended Key Usage: critical
                TLS Web Server Authentication, TLS Web Client Authentication
    Signature Algorithm: sha256WithRSAEncryption
    Signature Value:
        63:d1:83:27:7d:19:c1:eb:b8:fa:62:13:b4:ac:56:37:3b:be:
        84:eb:a5:62:2b:b2:91:ae:fe:20:91:de:fb:a2:35:8c:d2:96:
        49:a8:bb:81:fa:2c:cf:bd:23:78:59:0e:55:85:0c:53:6a:6e:
        c5:b1:ce:a9:9d:cc:05:c0:c7:0b:31:79:a3:fd:6c:05:b4:ab:
        77:89:0b:de:c6:43:2c:b0:9d:7e:07:c0:b4:5e:9c:09:d1:fc:
        03:74:f9:2a:4c:c7:b6:ec:29:c1:86:98:c0:7e:19:f3:2f:99:
        de:6f:08:61:69:59:44:cf:c1:f2:cb:46:e1:32:91:a5:cc:cd:
        0c:b3
-----BEGIN CERTIFICATE-----
MIIC0zCCAjygAwIBAgICEBUwDQYJKoZIhvcNAQELBQAwKDESMBAGA1UEChMJTm9k
ZU9QQ1VBMRIwEAYDVQQDEwlOb2RlT1BDVUEwHhcNMjQwMzE5MDIzODQ3WhcNMjUw
MzE5MDIzODQ3WjAoMRIwEAYDVQQKEwlOb2RlT1BDVUExEjAQBgNVBAMTCU5vZGVP
UENVQTCBnzANBgkqhkiG9w0BAQEFAAOBjQAwgYkCgYEAy/+txKzMq9C2pfBqstwz
lyVSt6I+WpO5YlzaLOhHGzaYKyN8kalqBZIkB2AaFvNgvDUvKvuUAF5CIHmA4Tjg
pYAnoDqx9/UqH3zPLYjMlDTf0W61KaVYFBh2depoIgBDcnB10tfljNHWu2bm7Boy
UvhsZWbsDXfpHd1XtYfbZ3kCAwEAAaOCAQowggEGMAwGA1UdEwEB/wQCMAAwHQYD
VR0OBBYEFMENwJl3lVN6+0OoXjiV/yCFT9s3MDsGA1UdIwQ0MDKhLKQqMCgxEjAQ
BgNVBAoTCU5vZGVPUENVQTESMBAGA1UEAxMJTm9kZU9QQ1VBggIQFTA6BgNVHREE
MzAxhiF1cm46ZTk5ZDU0NjZmN2JiOk5vZGVPUENVQS1TZXJ2ZXKCDGU5OWQ1NDY2
ZjdiYjAsBglghkgBhvhCAQ0EHxYdT3BlblNTTCBHZW5lcmF0ZWQgQ2VydGlmaWNh
dGUwDgYDVR0PAQH/BAQDAgL8MCAGA1UdJQEB/wQWMBQGCCsGAQUFBwMBBggrBgEF
BQcDAjANBgkqhkiG9w0BAQsFAAOBgQBj0YMnfRnB67j6YhO0rFY3O76E66ViK7KR
rv4gkd77ojWM0pZJqLuB+izPvSN4WQ5VhQxTam7Fsc6pncwFwMcLMXmj/WwFtKt3
iQvexkMssJ1+B8C0XpwJ0fwDdPkqTMe27CnBhpjAfhnzL5nebwhhaVlEz8Hyy0bh
MpGlzM0Msw==
-----END CERTIFICATE-----
