Certificate:
    Data:
        Version: 3 (0x2)
        Serial Number: 4127 (0x101f)
        Signature Algorithm: sha256WithRSAEncryption
        Issuer: O=NodeOPCUA, CN=NodeOPCUA
        Validity
            Not Before: Mar 19 02:38:47 2024 GMT
            Not After : Mar 19 02:38:47 2025 GMT
        Subject: O=NodeOPCUA, CN=NodeOPCUA
        Subject Public Key Info:
            Public Key Algorithm: rsaEncryption
                Public-Key: (3072 bit)
                Modulus:
                    00:b1:34:6d:f2:cc:a2:f5:5a:b2:6c:57:75:28:8c:
                    10:70:71:8b:d8:05:05:eb:25:c6:ee:29:53:db:6a:
                    5e:ee:aa:81:2e:99:e7:12:16:b8:ac:1e:18:fc:fa:
                    1e:14:eb:56:66:33:70:c1:11:36:75:4b:9c:24:a2:
                    0c:84:7b:6a:4b:d5:7f:e3:18:b9:6b:55:f2:57:8d:
                    d5:da:72:1b:ab:c8:6b:e3:57:3a:f5:56:c2:87:2e:
                    3b:ea:ce:ea:4c:67:d1:93:46:a3:6b:c1:b5:74:1c:
                    b3:98:ba:61:72:29:4e:ee:4c:7c:5a:e9:12:9a:c0:
                    3d:a3:fc:d6:17:80:af:f5:a6:46:ef:01:12:db:a1:
                    d3:4a:f2:de:18:0c:69:96:7a:f4:65:41:6d:f3:95:
                    9e:4f:32:15:5c:be:f9:3c:f2:20:c7:23:bd:82:ed:
                    bc:d1:9a:f3:d1:87:d3:e0:1b:1c:eb:af:e3:28:05:
                    6f:34:ef:18:36:c5:ed:fc:10:61:f8:0b:b4:70:7d:
                    7b:bc:9a:aa:13:9b:a5:b8:bf:bf:6b:0e:b0:52:30:
                    43:1f:37:bb:24:6a:1f:55:ed:a5:e5:de:47:29:ce:
                    94:ff:76:68:d7:a8:e2:b6:89:9a:16:9a:d4:a8:75:
                    9d:8c:39:6d:f5:78:07:77:40:c8:19:ca:b0:9d:50:
                    51:28:00:ef:e7:06:ba:1d:5d:61:7a:71:82:2f:a6:
                    46:ff:e0:25:57:0f:c0:0b:ce:73:8e:f8:8e:5a:ac:
                    97:5f:70:06:15:ff:56:a5:c6:d4:0c:60:b3:35:b5:
                    54:9f:4a:84:c5:b7:40:77:ea:e9:26:79:ab:94:79:
                    88:ea:04:08:12:02:88:7f:c1:ba:82:0e:6d:66:61:
                    7f:78:90:84:89:b3:66:de:18:62:9a:fb:a8:61:cf:
                    1f:45:91:aa:d0:92:39:8a:33:9c:13:34:55:44:5d:
                    cf:92:52:4e:ef:49:35:3a:32:36:a8:ac:af:a9:f7:
                    89:42:45:58:92:6d:38:a7:29:cd
                Exponent: 65537 (0x10001)
        X509v3 extensions:
            X509v3 Basic Constraints: critical
                CA:FALSE
            X509v3 Subject Key Identifier: 
                5C:10:B6:C9:72:18:D5:D5:5B:9A:B1:4D:25:BA:61:51:A6:45:48:F4
            X509v3 Authority Key Identifier: 
                DirName:/O=NodeOPCUA/CN=NodeOPCUA
                serial:10:1F
            X509v3 Subject Alternative Name: 
                URI:urn:e99d5466f7bb:NodeOPCUA-Server, DNS:e99d5466f7bb
            Netscape Comment: 
                OpenSSL Generated Certificate
            X509v3 Key Usage: critical
                Digital Signature, Non Repudiation, Key Encipherment, Data Encipherment, Key Agreement, Certificate Sign
            X509v3 Extended Key Usage: critical
                TLS Web Server Authentication, TLS Web Client Authentication
    Signature Algorithm: sha256WithRSAEncryption
    Signature Value:
        07:6b:6a:83:df:4f:0e:d8:3a:0b:ee:26:fb:4d:ae:ff:e2:82:
        07:af:1a:fd:9d:2e:c7:36:92:91:01:84:01:45:71:8f:b0:0f:
        f2:a4:09:e3:e5:d1:b5:e5:dd:9b:0e:13:8e:f0:6b:b2:d8:04:
        50:7c:05:ff:27:a9:47:05:a7:ff:91:72:cf:a9:1f:d4:50:a5:
        e9:e3:d6:8e:22:e9:33:22:81:e7:b3:67:a3:81:3e:3d:dc:65:
        a3:48:03:0d:4e:bb:a8:c4:b7:92:8a:76:12:45:05:2c:1a:a5:
        ad:22:f7:20:49:b6:92:ee:2b:04:87:95:92:4a:64:4a:3e:27:
        6f:a2:e6:b6:24:89:af:f7:97:aa:dd:37:53:0a:ef:4b:5d:d8:
        99:0d:72:36:2a:19:77:45:ed:16:ef:82:1e:bc:6b:17:10:b9:
        3a:76:e0:de:b9:f8:8b:ba:9c:be:72:82:da:b3:26:bc:7b:10:
        21:ad:bc:89:ff:4b:83:50:60:21:a3:00:98:5a:e5:54:cd:fa:
        7e:45:0c:80:20:e4:cc:78:6d:eb:b9:35:a8:0e:4c:4d:1b:91:
        04:a9:fc:ed:63:c5:3b:60:a9:21:ab:26:ce:7a:42:ce:c7:a8:
        12:c5:ac:2c:4b:b7:56:f4:23:9d:09:c7:9d:a0:b4:a8:34:44:
        25:ad:66:22:5f:2c:b4:d3:b2:ee:2c:92:2b:cf:a0:4b:d1:2c:
        a6:d6:3d:e6:32:c1:64:0d:69:e4:88:6a:25:1b:5f:66:1d:84:
        bf:23:c9:fe:b0:31:40:06:83:6a:ae:8e:2f:58:65:4b:cf:b6:
        64:d5:52:e9:51:16:45:27:ed:dc:6a:48:43:d2:c8:45:3e:5b:
        44:c5:64:16:6f:91:10:d5:ba:c9:bc:f8:23:3c:69:f0:3b:70:
        4a:e7:a1:ba:2b:73:20:4a:c2:fd:a0:0e:39:b3:1d:ce:1c:e7:
        69:31:c3:57:71:bd:aa:7a:7e:ab:a4:04:da:2e:57:5d:bc:4d:
        b0:aa:3f:23:15:a8
-----BEGIN CERTIFICATE-----
MIIE2DCCA0CgAwIBAgICEB8wDQYJKoZIhvcNAQELBQAwKDESMBAGA1UEChMJTm9k
ZU9QQ1VBMRIwEAYDVQQDEwlOb2RlT1BDVUEwHhcNMjQwMzE5MDIzODQ3WhcNMjUw
MzE5MDIzODQ3WjAoMRIwEAYDVQQKEwlOb2RlT1BDVUExEjAQBgNVBAMTCU5vZGVP
UENVQTCCAaIwDQYJKoZIhvcNAQEBBQADggGPADCCAYoCggGBALE0bfLMovVasmxX
dSiMEHBxi9gFBeslxu4pU9tqXu6qgS6Z5xIWuKweGPz6HhTrVmYzcMERNnVLnCSi
DIR7akvVf+MYuWtV8leN1dpyG6vIa+NXOvVWwocuO+rO6kxn0ZNGo2vBtXQcs5i6
YXIpTu5MfFrpEprAPaP81heAr/WmRu8BEtuh00ry3hgMaZZ69GVBbfOVnk8yFVy+
+TzyIMcjvYLtvNGa89GH0+AbHOuv4ygFbzTvGDbF7fwQYfgLtHB9e7yaqhObpbi/
v2sOsFIwQx83uyRqH1XtpeXeRynOlP92aNeo4raJmhaa1Kh1nYw5bfV4B3dAyBnK
sJ1QUSgA7+cGuh1dYXpxgi+mRv/gJVcPwAvOc474jlqsl19wBhX/VqXG1AxgszW1
VJ9KhMW3QHfq6SZ5q5R5iOoECBICiH/BuoIObWZhf3iQhImzZt4YYpr7qGHPH0WR
qtCSOYoznBM0VURdz5JSTu9JNToyNqisr6n3iUJFWJJtOKcpzQIDAQABo4IBCjCC
AQYwDAYDVR0TAQH/BAIwADAdBgNVHQ4EFgQUXBC2yXIY1dVbmrFNJbphUaZFSPQw
OwYDVR0jBDQwMqEspCowKDESMBAGA1UEChMJTm9kZU9QQ1VBMRIwEAYDVQQDEwlO
b2RlT1BDVUGCAhAfMDoGA1UdEQQzMDGGIXVybjplOTlkNTQ2NmY3YmI6Tm9kZU9Q
Q1VBLVNlcnZlcoIMZTk5ZDU0NjZmN2JiMCwGCWCGSAGG+EIBDQQfFh1PcGVuU1NM
IEdlbmVyYXRlZCBDZXJ0aWZpY2F0ZTAOBgNVHQ8BAf8EBAMCAvwwIAYDVR0lAQH/
BBYwFAYIKwYBBQUHAwEGCCsGAQUFBwMCMA0GCSqGSIb3DQEBCwUAA4IBgQAHa2qD
308O2DoL7ib7Ta7/4oIHrxr9nS7HNpKRAYQBRXGPsA/ypAnj5dG15d2bDhOO8Guy
2ARQfAX/J6lHBaf/kXLPqR/UUKXp49aOIukzIoHns2ejgT493GWjSAMNTruoxLeS
inYSRQUsGqWtIvcgSbaS7isEh5WSSmRKPidvoua2JImv95eq3TdTCu9LXdiZDXI2
Khl3Re0W74IevGsXELk6duDeufiLupy+coLasya8exAhrbyJ/0uDUGAhowCYWuVU
zfp+RQyAIOTMeG3ruTWoDkxNG5EEqfztY8U7YKkhqybOekLOx6gSxawsS7dW9COd
CcedoLSoNEQlrWYiXyy007LuLJIrz6BL0Sym1j3mMsFkDWnkiGolG19mHYS/I8n+
sDFABoNqro4vWGVLz7Zk1VLpURZFJ+3cakhD0shFPltExWQWb5EQ1brJvPgjPGnw
O3BK56G6K3MgSsL9oA45sx3OHOdpMcNXcb2qen6rpATaLlddvE2wqj8jFag=
-----END CERTIFICATE-----
