Certificate Request:
    Data:
        Version: 1 (0x0)
        Subject: C = FR, O = NodeOPCUA, CN = NodeOPCUA
        Subject Public Key Info:
            Public Key Algorithm: rsaEncryption
                Public-Key: (1024 bit)
                Modulus:
                    00:cb:ff:ad:c4:ac:cc:ab:d0:b6:a5:f0:6a:b2:dc:
                    33:97:25:52:b7:a2:3e:5a:93:b9:62:5c:da:2c:e8:
                    47:1b:36:98:2b:23:7c:91:a9:6a:05:92:24:07:60:
                    1a:16:f3:60:bc:35:2f:2a:fb:94:00:5e:42:20:79:
                    80:e1:38:e0:a5:80:27:a0:3a:b1:f7:f5:2a:1f:7c:
                    cf:2d:88:cc:94:34:df:d1:6e:b5:29:a5:58:14:18:
                    76:75:ea:68:22:00:43:72:70:75:d2:d7:e5:8c:d1:
                    d6:bb:66:e6:ec:1a:32:52:f8:6c:65:66:ec:0d:77:
                    e9:1d:dd:57:b5:87:db:67:79
                Exponent: 65537 (0x10001)
        Attributes:
            Requested Extensions:
                X509v3 Basic Constraints: 
                    CA:FALSE
                X509v3 Key Usage: critical
                    Certificate Sign, CRL Sign
                X509v3 Subject Alternative Name: 
                    URI:urn:e99d5466f7bb:NodeOPCUA-ServerRevoked, DNS:e99d5466f7bb, IP Address:127.0.0.1
    Signature Algorithm: sha256WithRSAEncryption
    Signature Value:
        9e:56:08:85:6f:29:28:fa:db:9a:5a:e5:c5:4e:55:16:cd:a5:
        63:9c:b3:d2:eb:bf:b9:08:10:72:d6:b6:34:d6:3f:49:e8:cf:
        a6:3b:9b:bc:7f:e5:f4:f2:13:aa:14:72:a6:ce:1d:20:27:3d:
        8c:5a:fa:0d:0f:b3:6b:c6:d2:62:75:04:a4:94:5e:07:a8:e1:
        80:ed:f8:49:53:24:e5:2a:3c:f2:77:05:3e:b9:6f:4d:8e:d4:
        02:95:48:a1:74:51:1a:e5:c6:18:be:18:17:af:6a:a7:7f:86:
        f5:b9:10:0d:6b:47:3b:6c:b1:55:11:f3:b9:a9:ad:41:8f:4a:
        02:a1
-----BEGIN CERTIFICATE REQUEST-----
MIIB6jCCAVMCAQAwNTELMAkGA1UEBhMCRlIxEjAQBgNVBAoMCU5vZGVPUENVQTES
MBAGA1UEAwwJTm9kZU9QQ1VBMIGfMA0GCSqGSIb3DQEBAQUAA4GNADCBiQKBgQDL
/63ErMyr0Lal8Gqy3DOXJVK3oj5ak7liXNos6EcbNpgrI3yRqWoFkiQHYBoW82C8
NS8q+5QAXkIgeYDhOOClgCegOrH39SoffM8tiMyUNN/RbrUppVgUGHZ16mgiAENy
cHXS1+WM0da7ZubsGjJS+GxlZuwNd+kd3Ve1h9tneQIDAQABoHUwcwYJKoZIhvcN
AQkOMWYwZDAJBgNVHRMEAjAAMA4GA1UdDwEB/wQEAwIBBjBHBgNVHREEQDA+hih1
cm46ZTk5ZDU0NjZmN2JiOk5vZGVPUENVQS1TZXJ2ZXJSZXZva2VkggxlOTlkNTQ2
NmY3YmKHBH8AAAEwDQYJKoZIhvcNAQELBQADgYEAnlYIhW8pKPrbmlrlxU5VFs2l
Y5yz0uu/uQgQcta2NNY/SejPpjubvH/l9PITqhRyps4dICc9jFr6DQ+za8bSYnUE
pJReB6jhgO34SVMk5So88ncFPrlvTY7UApVIoXRRGuXGGL4YF69qp3+G9bkQDWtH
O2yxVRHzuamtQY9KAqE=
-----END CERTIFICATE REQUEST-----
