Certificate Request:
    Data:
        Version: 1 (0x0)
        Subject: C = FR, O = NodeOPCUA, CN = NodeOPCUA
        Subject Public Key Info:
            Public Key Algorithm: rsaEncryption
                Public-Key: (1024 bit)
                Modulus:
                    00:cb:ff:ad:c4:ac:cc:ab:d0:b6:a5:f0:6a:b2:dc:
                    33:97:25:52:b7:a2:3e:5a:93:b9:62:5c:da:2c:e8:
                    47:1b:36:98:2b:23:7c:91:a9:6a:05:92:24:07:60:
                    1a:16:f3:60:bc:35:2f:2a:fb:94:00:5e:42:20:79:
                    80:e1:38:e0:a5:80:27:a0:3a:b1:f7:f5:2a:1f:7c:
                    cf:2d:88:cc:94:34:df:d1:6e:b5:29:a5:58:14:18:
                    76:75:ea:68:22:00:43:72:70:75:d2:d7:e5:8c:d1:
                    d6:bb:66:e6:ec:1a:32:52:f8:6c:65:66:ec:0d:77:
                    e9:1d:dd:57:b5:87:db:67:79
                Exponent: 65537 (0x10001)
        Attributes:
            Requested Extensions:
                X509v3 Basic Constraints: 
                    CA:FALSE
                X509v3 Key Usage: critical
                    Certificate Sign, CRL Sign
                X509v3 Subject Alternative Name: 
                    URI:urn:e99d5466f7bb:NodeOPCUA-Server, DNS:e99d5466f7bb, IP Address:127.0.0.1
    Signature Algorithm: sha256WithRSAEncryption
    Signature Value:
        21:66:0e:e8:fd:c1:70:4c:fe:a0:ff:17:ee:00:ee:56:54:3e:
        75:98:8e:30:4a:4d:59:73:bd:8e:8c:86:5e:11:df:62:4d:56:
        e6:a9:b9:0f:8e:65:ad:ab:59:2b:a7:f2:87:66:77:87:eb:1a:
        a3:0d:03:5f:9a:5e:8c:6a:66:7f:b5:16:f0:f5:3d:82:f0:21:
        a2:52:85:13:dd:81:0f:9f:0c:bb:37:50:1a:fb:f6:70:50:dc:
        bf:0e:0b:e9:d9:57:cf:c6:b6:85:92:a2:1d:1a:d9:ce:be:91:
        8b:95:76:c4:52:5a:51:95:04:89:ac:06:4f:10:12:28:bd:f3:
        a3:c2
-----BEGIN CERTIFICATE REQUEST-----
MIIB4zCCAUwCAQAwNTELMAkGA1UEBhMCRlIxEjAQBgNVBAoMCU5vZGVPUENVQTES
MBAGA1UEAwwJTm9kZU9QQ1VBMIGfMA0GCSqGSIb3DQEBAQUAA4GNADCBiQKBgQDL
/63ErMyr0Lal8Gqy3DOXJVK3oj5ak7liXNos6EcbNpgrI3yRqWoFkiQHYBoW82C8
NS8q+5QAXkIgeYDhOOClgCegOrH39SoffM8tiMyUNN/RbrUppVgUGHZ16mgiAENy
cHXS1+WM0da7ZubsGjJS+GxlZuwNd+kd3Ve1h9tneQIDAQABoG4wbAYJKoZIhvcN
AQkOMV8wXTAJBgNVHRMEAjAAMA4GA1UdDwEB/wQEAwIBBjBABgNVHREEOTA3hiF1
cm46ZTk5ZDU0NjZmN2JiOk5vZGVPUENVQS1TZXJ2ZXKCDGU5OWQ1NDY2ZjdiYocE
fwAAATANBgkqhkiG9w0BAQsFAAOBgQAhZg7o/cFwTP6g/xfuAO5WVD51mI4wSk1Z
c72OjIZeEd9iTVbmqbkPjmWtq1krp/KHZneH6xqjDQNfml6MamZ/tRbw9T2C8CGi
UoUT3YEPnwy7N1Aa+/ZwUNy/Dgvp2VfPxraFkqIdGtnOvpGLlXbEUlpRlQSJrAZP
EBIovfOjwg==
-----END CERTIFICATE REQUEST-----
