Certificate Request:
    Data:
        Version: 1 (0x0)
        Subject: C = FR, O = NodeOPCUA, CN = NodeOPCUA
        Subject Public Key Info:
            Public Key Algorithm: rsaEncryption
                Public-Key: (2048 bit)
                Modulus:
                    00:bf:b6:4b:d0:b6:6d:a0:cb:06:27:79:cc:e0:21:
                    7f:8b:7f:ef:da:76:dc:66:46:18:7f:97:b9:52:5a:
                    d5:a9:f5:8d:2b:ec:c2:0b:ad:d8:dc:c4:b2:62:21:
                    96:01:ca:33:2a:e5:d8:1d:b1:04:13:7b:69:19:37:
                    42:4b:6c:39:86:f9:66:8f:83:5d:d3:5e:73:35:20:
                    e2:73:87:ac:39:e8:8a:df:f2:ad:a0:12:b1:50:b2:
                    10:79:6e:4a:bc:bb:b3:49:b3:04:fd:7e:ae:00:da:
                    1f:7e:1b:5a:b8:30:ec:fe:07:32:38:df:83:0a:ce:
                    a3:f9:fd:4b:6a:25:41:b2:f7:81:cf:74:30:61:31:
                    50:e3:cd:07:28:dd:a1:1b:0e:4e:dd:5c:2b:2a:a1:
                    8d:c8:ba:59:59:53:7a:41:e1:93:65:26:70:e4:56:
                    36:7b:67:8f:ba:92:b7:5d:d5:30:58:5e:63:7e:a7:
                    a8:eb:c0:33:3c:85:5c:d4:85:a8:66:a0:66:a9:6d:
                    4c:d7:ec:58:eb:02:d0:c8:34:dc:14:5e:6a:c4:85:
                    d0:e2:54:bb:b4:80:c1:3b:c6:a0:5e:d9:f2:3c:80:
                    89:dc:83:4f:e3:83:4b:1c:63:9c:07:0d:9f:11:51:
                    62:d5:7b:7a:83:dc:04:4c:4e:52:7f:d0:8c:a5:d8:
                    f1:53
                Exponent: 65537 (0x10001)
        Attributes:
            Requested Extensions:
                X509v3 Basic Constraints: 
                    CA:FALSE
                X509v3 Key Usage: critical
                    Certificate Sign, CRL Sign
                X509v3 Subject Alternative Name: 
                    URI:urn:e99d5466f7bb:NodeOPCUA-Server, DNS:e99d5466f7bb, IP Address:127.0.0.1
    Signature Algorithm: sha256WithRSAEncryption
    Signature Value:
        1e:e7:6f:6a:e5:cc:de:8c:85:e5:4b:41:7f:ca:59:7e:72:84:
        60:8a:2b:83:a4:e6:99:10:e7:3b:7a:18:30:2d:93:3c:63:8d:
        4d:9e:cd:54:ca:0e:70:8e:ba:23:25:80:50:db:e5:e2:17:5b:
        d3:d3:00:fd:9c:cf:7c:11:47:1d:6d:d2:fc:ae:4b:a7:be:8a:
        97:91:ad:80:13:03:e9:c5:4c:b5:d9:a0:1e:75:86:04:33:04:
        f3:59:66:68:7d:af:52:8f:c8:bc:f2:d6:e0:ad:63:6f:25:a2:
        90:05:8c:52:7c:b3:c1:60:f7:a3:57:71:83:21:67:c3:0f:ab:
        80:aa:3d:0b:6c:ac:fa:9f:20:9f:40:fb:51:18:7a:a5:0b:3b:
        93:49:ee:68:4d:df:34:6a:42:b8:e1:f2:58:0a:c5:d1:ad:a0:
        49:42:11:20:ec:06:ee:14:e2:fe:9b:62:2b:19:4f:5e:76:73:
        4a:38:f6:02:ec:8c:46:ad:68:87:55:74:f8:f0:92:2f:ab:90:
        dc:1f:31:82:c9:81:d1:98:de:d2:42:fc:5a:e6:12:63:fc:32:
        f5:93:14:48:03:46:49:9c:a4:cd:2c:b1:71:7d:38:1b:94:fe:
        1c:4a:be:5f:01:ef:e0:39:80:ad:e5:57:e6:b8:15:97:bd:bc:
        87:52:33:fd
-----BEGIN CERTIFICATE REQUEST-----
MIIC6DCCAdACAQAwNTELMAkGA1UEBhMCRlIxEjAQBgNVBAoMCU5vZGVPUENVQTES
MBAGA1UEAwwJTm9kZU9QQ1VBMIIBIjANBgkqhkiG9w0BAQEFAAOCAQ8AMIIBCgKC
AQEAv7ZL0LZtoMsGJ3nM4CF/i3/v2nbcZkYYf5e5UlrVqfWNK+zCC63Y3MSyYiGW
AcozKuXYHbEEE3tpGTdCS2w5hvlmj4Nd015zNSDic4esOeiK3/KtoBKxULIQeW5K
vLuzSbME/X6uANoffhtauDDs/gcyON+DCs6j+f1LaiVBsveBz3QwYTFQ480HKN2h
Gw5O3VwrKqGNyLpZWVN6QeGTZSZw5FY2e2ePupK3XdUwWF5jfqeo68AzPIVc1IWo
ZqBmqW1M1+xY6wLQyDTcFF5qxIXQ4lS7tIDBO8agXtnyPICJ3INP44NLHGOcBw2f
EVFi1Xt6g9wETE5Sf9CMpdjxUwIDAQABoG4wbAYJKoZIhvcNAQkOMV8wXTAJBgNV
HRMEAjAAMA4GA1UdDwEB/wQEAwIBBjBABgNVHREEOTA3hiF1cm46ZTk5ZDU0NjZm
N2JiOk5vZGVPUENVQS1TZXJ2ZXKCDGU5OWQ1NDY2ZjdiYocEfwAAATANBgkqhkiG
9w0BAQsFAAOCAQEAHudvauXM3oyF5UtBf8pZfnKEYIorg6TmmRDnO3oYMC2TPGON
TZ7NVMoOcI66IyWAUNvl4hdb09MA/ZzPfBFHHW3S/K5Lp76Kl5GtgBMD6cVMtdmg
HnWGBDME81lmaH2vUo/IvPLW4K1jbyWikAWMUnyzwWD3o1dxgyFnww+rgKo9C2ys
+p8gn0D7URh6pQs7k0nuaE3fNGpCuOHyWArF0a2gSUIRIOwG7hTi/ptiKxlPXnZz
Sjj2AuyMRq1oh1V0+PCSL6uQ3B8xgsmB0Zje0kL8WuYSY/wy9ZMUSANGSZykzSyx
cX04G5T+HEq+XwHv4DmAreVX5rgVl728h1Iz/Q==
-----END CERTIFICATE REQUEST-----
