Certificate Request:
    Data:
        Version: 1 (0x0)
        Subject: C = FR, O = NodeOPCUA, CN = NodeOPCUA
        Subject Public Key Info:
            Public Key Algorithm: rsaEncryption
                Public-Key: (4096 bit)
                Modulus:
                    00:bb:0a:96:21:83:d3:20:17:44:46:02:49:e7:03:
                    a1:4d:6a:9c:23:52:43:b1:93:34:03:b6:aa:41:9e:
                    d4:75:56:af:24:fb:7a:c1:87:88:23:e5:50:be:25:
                    c4:6b:b7:7b:28:26:61:25:62:bd:26:e8:63:8b:91:
                    ec:e2:01:88:f2:22:e8:72:73:70:a3:54:1c:33:49:
                    49:77:6a:b6:e0:b5:ac:d2:8e:25:d5:1c:71:a4:fd:
                    ad:1a:2b:39:2e:5b:f6:59:4a:ef:e6:cc:5a:fa:97:
                    08:df:76:4d:6d:34:b7:00:d7:25:fc:99:57:36:d8:
                    91:ed:bb:1b:ae:11:e7:77:25:34:cf:98:2e:03:a9:
                    c1:58:1c:99:ea:4a:92:1d:e5:cb:93:62:4e:33:2d:
                    af:9b:7b:51:82:a2:5a:24:fc:67:7d:4e:dc:d5:01:
                    40:11:43:ab:4f:a7:a6:9c:b7:6d:b5:f5:60:ab:84:
                    00:64:9f:dc:6b:c3:51:6b:a4:5d:6d:21:cb:e3:2e:
                    88:ba:64:11:24:df:f3:cd:9c:e8:34:1b:a4:10:a6:
                    80:59:48:dc:ba:2a:9d:a7:50:2d:f5:92:6f:eb:43:
                    4d:5f:ed:d3:10:31:6a:d4:62:8a:d9:dd:bb:b5:67:
                    9e:83:05:79:83:19:fb:d6:76:02:18:3b:1e:e1:ce:
                    4b:43:9b:19:7c:99:9a:3d:92:fc:d7:05:70:0a:56:
                    cd:89:e9:44:2e:83:d4:7b:a5:aa:4b:da:e2:3e:7b:
                    3b:ee:0f:d9:49:18:78:29:18:81:b0:20:a4:d5:7a:
                    6e:78:a3:bc:c0:97:64:a5:84:64:7a:63:a1:e6:ca:
                    21:e8:3c:81:02:91:49:0c:0b:3b:da:f5:0c:6e:54:
                    41:0f:cd:39:ea:d0:3c:a4:b8:71:42:47:ea:d6:a9:
                    c8:d9:8a:6b:e1:2d:af:77:1c:6b:63:b8:4a:aa:4e:
                    03:5b:1d:c8:58:01:09:9d:eb:d7:4b:53:22:05:9b:
                    cf:31:e2:d3:39:a3:cc:02:5c:b0:f0:07:a3:36:28:
                    6f:f0:33:2a:77:2f:b2:9a:30:e5:2e:a5:17:5c:92:
                    e8:b6:1a:58:28:4d:63:4e:5d:26:ee:8d:0b:e2:3b:
                    a2:f3:cc:64:3f:91:4b:a0:ad:e7:4d:6d:95:e9:49:
                    aa:9f:60:00:74:c3:72:b0:40:4a:86:78:50:ce:24:
                    18:22:af:20:97:54:7a:a0:e2:e2:59:b0:66:e3:30:
                    61:91:66:cf:ae:6b:35:e8:76:36:68:f6:a3:bd:47:
                    70:f6:c8:87:36:cc:b3:eb:2b:ff:ac:0d:96:ae:4e:
                    1f:f9:bc:19:5d:5d:76:f0:59:68:5b:cf:41:96:0a:
                    1d:4b:3f
                Exponent: 65537 (0x10001)
        Attributes:
            Requested Extensions:
                X509v3 Basic Constraints: 
                    CA:FALSE
                X509v3 Key Usage: critical
                    Certificate Sign, CRL Sign
                X509v3 Subject Alternative Name: 
                    URI:urn:e99d5466f7bb:NodeOPCUA-ServerRevoked, DNS:e99d5466f7bb, IP Address:127.0.0.1
    Signature Algorithm: sha256WithRSAEncryption
    Signature Value:
        89:54:20:55:b2:f4:b7:3b:b3:57:4d:83:f8:be:f3:04:7b:02:
        23:95:2c:1a:4c:aa:69:d1:23:46:e0:dd:b3:3d:87:21:e6:73:
        8f:13:13:c8:5d:47:c4:5c:3b:7f:df:63:0a:22:cf:a2:a9:d1:
        7b:7e:6e:94:6b:a3:b1:d2:ed:c5:9c:f5:ce:cf:20:64:26:2a:
        d4:10:df:96:5d:96:25:87:64:94:dd:91:61:dd:b5:da:a3:ea:
        5e:ec:f8:ce:9c:02:a3:bf:c1:b9:e0:83:bf:9f:b3:df:c7:2e:
        77:41:26:54:0d:ce:49:33:7b:29:d3:60:74:d6:67:46:c1:26:
        41:b2:39:5e:d7:b0:ac:a5:c9:75:8e:88:ec:f4:1b:71:2a:e1:
        26:6a:ad:67:99:67:bf:45:ec:e4:ea:08:44:30:7c:cb:08:2b:
        01:0a:b9:70:27:24:15:35:87:69:3b:d5:d4:25:e0:a1:1d:5f:
        33:f6:6f:53:24:ee:43:ea:bc:f5:e9:e6:1a:02:38:db:c1:0e:
        58:f6:02:40:30:76:89:f2:3c:d9:51:cd:61:b6:31:55:07:03:
        fb:96:1e:47:93:ca:1b:fd:72:2d:cd:2d:4d:d4:c2:76:2f:ff:
        71:18:e4:1d:a5:f7:03:77:96:1d:93:1b:77:60:e4:c3:87:97:
        7f:a9:57:d4:e9:7c:a7:ed:11:ed:fa:5e:05:70:52:cc:e9:08:
        00:8f:dd:7b:56:92:8a:0a:78:5d:02:44:d6:80:16:35:ca:48:
        7f:b8:3c:47:e2:03:63:b4:4d:ea:1a:67:31:e5:54:89:cf:ed:
        01:dd:74:ef:fe:ef:37:85:3f:98:42:a7:dd:48:4e:d0:f3:2d:
        c5:83:40:22:7e:3b:a6:69:54:4d:61:94:ab:ea:82:9e:f4:33:
        b3:2b:76:b0:b3:0b:17:f2:17:4d:09:05:6d:97:a5:ac:14:12:
        7b:f2:7e:b4:74:dc:5c:cc:be:b9:57:8b:44:9b:44:8f:7d:5d:
        d1:45:1d:87:8f:c4:4b:a6:3f:ba:8b:51:98:05:49:23:a7:a5:
        65:fc:c8:bf:f1:a5:d3:6a:1e:ba:9b:5d:fb:b4:a3:f6:4c:cd:
        80:f1:c7:ce:70:87:19:c9:d8:e1:15:d7:fa:29:d2:0d:86:ea:
        d3:91:4e:22:5c:cd:a5:31:54:f8:06:cb:89:bb:b6:1a:0d:19:
        a3:c0:30:48:31:7b:29:78:26:36:dd:98:f0:bf:48:c3:41:f0:
        f8:8e:6e:c1:54:1e:34:b6:83:d6:53:9e:15:78:24:2c:10:cd:
        0f:73:1b:ca:af:df:59:b5:3c:65:d4:5a:dc:5a:2c:e8:a2:2f:
        bf:84:11:89:19:00:18:3d
-----BEGIN CERTIFICATE REQUEST-----
MIIE7zCCAtcCAQAwNTELMAkGA1UEBhMCRlIxEjAQBgNVBAoMCU5vZGVPUENVQTES
MBAGA1UEAwwJTm9kZU9QQ1VBMIICIjANBgkqhkiG9w0BAQEFAAOCAg8AMIICCgKC
AgEAuwqWIYPTIBdERgJJ5wOhTWqcI1JDsZM0A7aqQZ7UdVavJPt6wYeII+VQviXE
a7d7KCZhJWK9Juhji5Hs4gGI8iLocnNwo1QcM0lJd2q24LWs0o4l1RxxpP2tGis5
Llv2WUrv5sxa+pcI33ZNbTS3ANcl/JlXNtiR7bsbrhHndyU0z5guA6nBWByZ6kqS
HeXLk2JOMy2vm3tRgqJaJPxnfU7c1QFAEUOrT6emnLdttfVgq4QAZJ/ca8NRa6Rd
bSHL4y6IumQRJN/zzZzoNBukEKaAWUjcuiqdp1At9ZJv60NNX+3TEDFq1GKK2d27
tWeegwV5gxn71nYCGDse4c5LQ5sZfJmaPZL81wVwClbNielELoPUe6WqS9riPns7
7g/ZSRh4KRiBsCCk1XpueKO8wJdkpYRkemOh5soh6DyBApFJDAs72vUMblRBD805
6tA8pLhxQkfq1qnI2Ypr4S2vdxxrY7hKqk4DWx3IWAEJnevXS1MiBZvPMeLTOaPM
Alyw8AejNihv8DMqdy+ymjDlLqUXXJLothpYKE1jTl0m7o0L4jui88xkP5FLoK3n
TW2V6Umqn2AAdMNysEBKhnhQziQYIq8gl1R6oOLiWbBm4zBhkWbPrms16HY2aPaj
vUdw9siHNsyz6yv/rA2Wrk4f+bwZXV128FloW89BlgodSz8CAwEAAaB1MHMGCSqG
SIb3DQEJDjFmMGQwCQYDVR0TBAIwADAOBgNVHQ8BAf8EBAMCAQYwRwYDVR0RBEAw
PoYodXJuOmU5OWQ1NDY2ZjdiYjpOb2RlT1BDVUEtU2VydmVyUmV2b2tlZIIMZTk5
ZDU0NjZmN2JihwR/AAABMA0GCSqGSIb3DQEBCwUAA4ICAQCJVCBVsvS3O7NXTYP4
vvMEewIjlSwaTKpp0SNG4N2zPYch5nOPExPIXUfEXDt/32MKIs+iqdF7fm6Ua6Ox
0u3FnPXOzyBkJirUEN+WXZYlh2SU3ZFh3bXao+pe7PjOnAKjv8G54IO/n7Pfxy53
QSZUDc5JM3sp02B01mdGwSZBsjle17Cspcl1jojs9BtxKuEmaq1nmWe/Rezk6ghE
MHzLCCsBCrlwJyQVNYdpO9XUJeChHV8z9m9TJO5D6rz16eYaAjjbwQ5Y9gJAMHaJ
8jzZUc1htjFVBwP7lh5Hk8ob/XItzS1N1MJ2L/9xGOQdpfcDd5Ydkxt3YOTDh5d/
qVfU6Xyn7RHt+l4FcFLM6QgAj917VpKKCnhdAkTWgBY1ykh/uDxH4gNjtE3qGmcx
5VSJz+0B3XTv/u83hT+YQqfdSE7Q8y3Fg0AifjumaVRNYZSr6oKe9DOzK3awswsX
8hdNCQVtl6WsFBJ78n60dNxczL65V4tEm0SPfV3RRR2Hj8RLpj+6i1GYBUkjp6Vl
/Mi/8aXTah66m137tKP2TM2A8cfOcIcZydjhFdf6KdINhurTkU4iXM2lMVT4BsuJ
u7YaDRmjwDBIMXspeCY23Zjwv0jDQfD4jm7BVB40toPWU54VeCQsEM0PcxvKr99Z
tTxl1FrcWizooi+/hBGJGQAYPQ==
-----END CERTIFICATE REQUEST-----
