Certificate:
    Data:
        Version: 3 (0x2)
        Serial Number: 4121 (0x1019)
        Signature Algorithm: sha256WithRSAEncryption
        Issuer: C=FR, ST=IDF, L=Paris, O=Local NODE-OPCUA Certificate Authority, CN=NodeOPCUA-CA
        Validity
            Not Before: Mar 19 02:38:47 2024 GMT
            Not After : Mar 19 02:38:47 2025 GMT
        Subject: C=FR, O=NodeOPCUA, CN=NodeOPCUA
        Subject Public Key Info:
            Public Key Algorithm: rsaEncryption
                Public-Key: (2048 bit)
                Modulus:
                    00:bf:b6:4b:d0:b6:6d:a0:cb:06:27:79:cc:e0:21:
                    7f:8b:7f:ef:da:76:dc:66:46:18:7f:97:b9:52:5a:
                    d5:a9:f5:8d:2b:ec:c2:0b:ad:d8:dc:c4:b2:62:21:
                    96:01:ca:33:2a:e5:d8:1d:b1:04:13:7b:69:19:37:
                    42:4b:6c:39:86:f9:66:8f:83:5d:d3:5e:73:35:20:
                    e2:73:87:ac:39:e8:8a:df:f2:ad:a0:12:b1:50:b2:
                    10:79:6e:4a:bc:bb:b3:49:b3:04:fd:7e:ae:00:da:
                    1f:7e:1b:5a:b8:30:ec:fe:07:32:38:df:83:0a:ce:
                    a3:f9:fd:4b:6a:25:41:b2:f7:81:cf:74:30:61:31:
                    50:e3:cd:07:28:dd:a1:1b:0e:4e:dd:5c:2b:2a:a1:
                    8d:c8:ba:59:59:53:7a:41:e1:93:65:26:70:e4:56:
                    36:7b:67:8f:ba:92:b7:5d:d5:30:58:5e:63:7e:a7:
                    a8:eb:c0:33:3c:85:5c:d4:85:a8:66:a0:66:a9:6d:
                    4c:d7:ec:58:eb:02:d0:c8:34:dc:14:5e:6a:c4:85:
                    d0:e2:54:bb:b4:80:c1:3b:c6:a0:5e:d9:f2:3c:80:
                    89:dc:83:4f:e3:83:4b:1c:63:9c:07:0d:9f:11:51:
                    62:d5:7b:7a:83:dc:04:4c:4e:52:7f:d0:8c:a5:d8:
                    f1:53
                Exponent: 65537 (0x10001)
        X509v3 extensions:
            X509v3 Basic Constraints: critical
                CA:FALSE
            X509v3 Subject Key Identifier: 
                97:7C:FB:56:8C:9B:B5:73:A9:67:3E:DF:AB:15:E7:CA:C5:47:A8:A9
            X509v3 Authority Key Identifier: 
                keyid:40:72:30:66:AE:C7:F9:DB:9A:75:1B:99:FB:53:D6:38:EA:0C:F1:8B
                DirName:/C=FR/ST=IDF/L=Paris/O=Local NODE-OPCUA Certificate Authority/CN=NodeOPCUA-CA
                serial:72:89:60:A3:11:EF:A6:B0:54:AF:4D:2C:23:89:FC:3E:F9:84:93:A9
            X509v3 Subject Alternative Name: 
                URI:urn:e99d5466f7bb:NodeOPCUA-Server, DNS:e99d5466f7bb, IP Address:127.0.0.1
            Netscape Comment: 
                OpenSSL Generated Certificate
            X509v3 Key Usage: critical
                Digital Signature, Non Repudiation, Key Encipherment, Data Encipherment, Key Agreement, Certificate Sign
            X509v3 Extended Key Usage: critical
                TLS Web Server Authentication, TLS Web Client Authentication
    Signature Algorithm: sha256WithRSAEncryption
    Signature Value:
        33:94:0d:88:9f:c4:cf:68:af:ce:2d:fd:ff:ca:79:a0:33:d5:
        00:56:bf:c1:e8:43:b8:79:b0:3b:75:95:38:70:35:cd:df:9c:
        ef:d5:e3:86:d6:c3:7d:ea:a7:c5:95:de:2f:91:6b:9d:47:cd:
        f3:c8:6d:af:d9:42:d4:ba:37:6f:7d:1d:78:a3:ba:8e:fc:21:
        5b:bb:2c:6f:1b:95:06:70:d9:40:62:6b:6b:11:c8:bc:da:c8:
        f1:c6:41:84:b2:c5:f0:33:05:34:64:b7:1f:ce:f2:56:f4:a6:
        85:f9:fe:0e:6b:49:c2:e1:91:19:ae:93:f7:9e:9a:97:7a:54:
        de:9a:9f:6a:0c:88:a2:e7:4c:b2:e5:98:3b:f9:76:12:37:89:
        0e:e1:62:6a:6d:74:8a:49:a9:16:5f:3e:41:bb:00:31:99:42:
        47:be:6e:82:18:da:24:39:81:46:6c:c4:cb:1a:07:e3:64:86:
        4f:4f:05:1c:79:02:a3:14:76:29:24:e2:2b:7b:d5:a2:b7:b1:
        17:2b:ee:ab:70:85:cd:07:0c:cf:fd:f0:00:25:e7:dd:f0:48:
        46:12:96:80:b4:d6:3f:14:1b:7f:13:dc:9c:bb:43:a8:1b:9e:
        93:6e:2f:42:81:2c:c2:b4:e3:f7:f6:59:3e:6d:55:c8:8a:ac:
        2e:c1:d1:a5
-----BEGIN CERTIFICATE-----
MIIErDCCA5SgAwIBAgICEBkwDQYJKoZIhvcNAQELBQAwczELMAkGA1UEBhMCRlIx
DDAKBgNVBAgTA0lERjEOMAwGA1UEBxMFUGFyaXMxLzAtBgNVBAoTJkxvY2FsIE5P
REUtT1BDVUEgQ2VydGlmaWNhdGUgQXV0aG9yaXR5MRUwEwYDVQQDEwxOb2RlT1BD
VUEtQ0EwHhcNMjQwMzE5MDIzODQ3WhcNMjUwMzE5MDIzODQ3WjA1MQswCQYDVQQG
EwJGUjESMBAGA1UECgwJTm9kZU9QQ1VBMRIwEAYDVQQDDAlOb2RlT1BDVUEwggEi
MA0GCSqGSIb3DQEBAQUAA4IBDwAwggEKAoIBAQC/tkvQtm2gywYneczgIX+Lf+/a
dtxmRhh/l7lSWtWp9Y0r7MILrdjcxLJiIZYByjMq5dgdsQQTe2kZN0JLbDmG+WaP
g13TXnM1IOJzh6w56Irf8q2gErFQshB5bkq8u7NJswT9fq4A2h9+G1q4MOz+BzI4
34MKzqP5/UtqJUGy94HPdDBhMVDjzQco3aEbDk7dXCsqoY3IullZU3pB4ZNlJnDk
VjZ7Z4+6krdd1TBYXmN+p6jrwDM8hVzUhahmoGapbUzX7FjrAtDINNwUXmrEhdDi
VLu0gME7xqBe2fI8gIncg0/jg0scY5wHDZ8RUWLVe3qD3ARMTlJ/0Iyl2PFTAgMB
AAGjggGGMIIBgjAMBgNVHRMBAf8EAjAAMB0GA1UdDgQWBBSXfPtWjJu1c6lnPt+r
FefKxUeoqTCBsAYDVR0jBIGoMIGlgBRAcjBmrsf525p1G5n7U9Y46gzxi6F3pHUw
czELMAkGA1UEBhMCRlIxDDAKBgNVBAgTA0lERjEOMAwGA1UEBxMFUGFyaXMxLzAt
BgNVBAoTJkxvY2FsIE5PREUtT1BDVUEgQ2VydGlmaWNhdGUgQXV0aG9yaXR5MRUw
EwYDVQQDEwxOb2RlT1BDVUEtQ0GCFHKJYKMR76awVK9NLCOJ/D75hJOpMEAGA1Ud
EQQ5MDeGIXVybjplOTlkNTQ2NmY3YmI6Tm9kZU9QQ1VBLVNlcnZlcoIMZTk5ZDU0
NjZmN2JihwR/AAABMCwGCWCGSAGG+EIBDQQfFh1PcGVuU1NMIEdlbmVyYXRlZCBD
ZXJ0aWZpY2F0ZTAOBgNVHQ8BAf8EBAMCAvwwIAYDVR0lAQH/BBYwFAYIKwYBBQUH
AwEGCCsGAQUFBwMCMA0GCSqGSIb3DQEBCwUAA4IBAQAzlA2In8TPaK/OLf3/ynmg
M9UAVr/B6EO4ebA7dZU4cDXN35zv1eOG1sN96qfFld4vkWudR83zyG2v2ULUujdv
fR14o7qO/CFbuyxvG5UGcNlAYmtrEci82sjxxkGEssXwMwU0ZLcfzvJW9KaF+f4O
a0nC4ZEZrpP3npqXelTemp9qDIii50yy5Zg7+XYSN4kO4WJqbXSKSakWXz5BuwAx
mUJHvm6CGNokOYFGbMTLGgfjZIZPTwUceQKjFHYpJOIre9Wit7EXK+6rcIXNBwzP
/fAAJefd8EhGEpaAtNY/FBt/E9ycu0OoG56Tbi9CgSzCtOP39lk+bVXIiqwuwdGl
-----END CERTIFICATE-----
Certificate:
    Data:
        Version: 3 (0x2)
        Serial Number:
            72:89:60:a3:11:ef:a6:b0:54:af:4d:2c:23:89:fc:3e:f9:84:93:a9
        Signature Algorithm: sha256WithRSAEncryption
        Issuer: C = FR, ST = IDF, L = Paris, O = Local NODE-OPCUA Certificate Authority, CN = NodeOPCUA-CA
        Validity
            Not Before: Mar 20 02:38:47 2024 GMT
            Not After : Mar 18 02:38:47 2034 GMT
        Subject: C = FR, ST = IDF, L = Paris, O = Local NODE-OPCUA Certificate Authority, CN = NodeOPCUA-CA
        Subject Public Key Info:
            Public Key Algorithm: rsaEncryption
                Public-Key: (2048 bit)
                Modulus:
                    00:b9:71:cc:db:cf:89:9d:e2:97:00:c2:e7:4b:db:
                    6c:37:ab:b0:f4:e9:dc:ef:71:1c:32:1d:c5:34:34:
                    93:22:4b:c3:fa:78:9a:f0:78:e3:f3:3e:58:09:da:
                    4f:af:dc:45:8a:9b:93:25:6f:7b:72:83:d7:a5:16:
                    b0:0c:23:e6:6b:35:8a:09:9f:84:3d:a9:43:6e:68:
                    ba:40:47:04:33:4d:6d:7f:f4:45:8d:47:24:c3:79:
                    e6:76:b2:15:6e:4c:23:51:c6:0a:6d:63:0b:f4:34:
                    b1:18:97:7a:95:22:fb:f9:8a:4a:f2:7f:0c:c3:a0:
                    71:c0:d3:16:f4:4a:4c:e2:00:12:e2:ce:d7:e9:09:
                    01:2f:7e:7b:ad:fb:ad:14:d9:10:6d:2b:b6:1b:a4:
                    45:05:40:cc:d5:04:29:04:ab:2a:80:ba:67:12:6e:
                    1a:d0:2c:d6:f2:ce:4f:1e:89:88:7e:41:8a:f6:85:
                    d3:06:58:47:94:ed:84:b1:9e:90:e9:da:cd:e4:1b:
                    df:79:b8:28:f2:5e:5f:c8:27:dc:fa:ef:f3:ee:dd:
                    2a:50:6d:7e:0a:97:05:12:f5:7b:0b:6f:d0:e0:6b:
                    da:61:0c:b3:50:ff:18:d8:c6:ca:97:73:20:fb:20:
                    93:10:df:a7:d7:d6:1a:23:2d:37:b2:eb:08:f5:5c:
                    4c:2d
                Exponent: 65537 (0x10001)
        X509v3 extensions:
            X509v3 Subject Key Identifier: 
                40:72:30:66:AE:C7:F9:DB:9A:75:1B:99:FB:53:D6:38:EA:0C:F1:8B
            X509v3 Authority Key Identifier: 
                keyid:40:72:30:66:AE:C7:F9:DB:9A:75:1B:99:FB:53:D6:38:EA:0C:F1:8B
                DirName:/C=FR/ST=IDF/L=Paris/O=Local NODE-OPCUA Certificate Authority/CN=NodeOPCUA-CA
                serial:72:89:60:A3:11:EF:A6:B0:54:AF:4D:2C:23:89:FC:3E:F9:84:93:A9
            X509v3 Basic Constraints: 
                CA:TRUE
            X509v3 Key Usage: critical
                Certificate Sign, CRL Sign
            Netscape Comment: 
                CA Certificate generated by Node-OPCUA Certificate utility using openssl
            X509v3 CRL Distribution Points: 
                Full Name:
                  URI:http://localhost:8900/crl.pem
    Signature Algorithm: sha256WithRSAEncryption
    Signature Value:
        ab:e7:3f:e8:5f:cd:89:8a:ca:18:95:23:0a:89:f7:74:4c:ff:
        fd:7b:91:83:28:b8:e9:11:1a:9d:2b:6e:71:69:36:85:53:8f:
        b5:77:27:88:81:fa:b5:15:ff:f0:9d:9a:e8:8a:3f:1a:09:7e:
        97:23:1e:75:a7:ee:76:ff:32:7e:00:d7:12:85:70:39:ab:17:
        88:71:02:ed:a5:3b:bd:ee:78:59:a1:e6:bf:30:38:c2:2c:c4:
        dc:4c:13:9a:38:da:e5:4f:94:80:a9:1d:18:49:81:75:63:70:
        20:fc:ed:ae:9d:55:3e:a3:41:4c:cd:eb:e8:31:dd:f2:c0:25:
        8e:75:c3:a7:c1:95:d1:02:94:96:ac:0f:09:93:05:6d:96:04:
        b8:e5:c1:17:20:29:4e:e5:36:a7:11:b7:e1:04:69:78:98:be:
        b7:97:5e:23:d1:23:22:d7:45:04:ad:35:be:de:cc:da:4e:9d:
        1c:19:f0:39:05:06:cb:30:96:26:90:21:74:fc:ac:e1:df:46:
        6b:e9:31:0b:51:f7:1d:42:fd:ff:49:2e:72:9e:68:7b:8f:75:
        07:9e:63:4c:39:c5:30:3c:c2:54:88:b6:73:9c:9e:29:da:7c:
        6c:36:b7:ea:cf:ea:26:06:7b:d3:72:30:49:57:93:ca:6d:b6:
        b3:6e:e2:d7
-----BEGIN CERTIFICATE-----
MIIE8zCCA9ugAwIBAgIUcolgoxHvprBUr00sI4n8PvmEk6kwDQYJKoZIhvcNAQEL
BQAwczELMAkGA1UEBhMCRlIxDDAKBgNVBAgTA0lERjEOMAwGA1UEBxMFUGFyaXMx
LzAtBgNVBAoTJkxvY2FsIE5PREUtT1BDVUEgQ2VydGlmaWNhdGUgQXV0aG9yaXR5
MRUwEwYDVQQDEwxOb2RlT1BDVUEtQ0EwHhcNMjQwMzIwMDIzODQ3WhcNMzQwMzE4
MDIzODQ3WjBzMQswCQYDVQQGEwJGUjEMMAoGA1UECBMDSURGMQ4wDAYDVQQHEwVQ
YXJpczEvMC0GA1UEChMmTG9jYWwgTk9ERS1PUENVQSBDZXJ0aWZpY2F0ZSBBdXRo
b3JpdHkxFTATBgNVBAMTDE5vZGVPUENVQS1DQTCCASIwDQYJKoZIhvcNAQEBBQAD
ggEPADCCAQoCggEBALlxzNvPiZ3ilwDC50vbbDersPTp3O9xHDIdxTQ0kyJLw/p4
mvB44/M+WAnaT6/cRYqbkyVve3KD16UWsAwj5ms1igmfhD2pQ25oukBHBDNNbX/0
RY1HJMN55nayFW5MI1HGCm1jC/Q0sRiXepUi+/mKSvJ/DMOgccDTFvRKTOIAEuLO
1+kJAS9+e637rRTZEG0rthukRQVAzNUEKQSrKoC6ZxJuGtAs1vLOTx6JiH5BivaF
0wZYR5TthLGekOnazeQb33m4KPJeX8gn3Prv8+7dKlBtfgqXBRL1ewtv0OBr2mEM
s1D/GNjGypdzIPsgkxDfp9fWGiMtN7LrCPVcTC0CAwEAAaOCAX0wggF5MB0GA1Ud
DgQWBBRAcjBmrsf525p1G5n7U9Y46gzxizCBsAYDVR0jBIGoMIGlgBRAcjBmrsf5
25p1G5n7U9Y46gzxi6F3pHUwczELMAkGA1UEBhMCRlIxDDAKBgNVBAgTA0lERjEO
MAwGA1UEBxMFUGFyaXMxLzAtBgNVBAoTJkxvY2FsIE5PREUtT1BDVUEgQ2VydGlm
aWNhdGUgQXV0aG9yaXR5MRUwEwYDVQQDEwxOb2RlT1BDVUEtQ0GCFHKJYKMR76aw
VK9NLCOJ/D75hJOpMAwGA1UdEwQFMAMBAf8wDgYDVR0PAQH/BAQDAgEGMFcGCWCG
SAGG+EIBDQRKFkhDQSBDZXJ0aWZpY2F0ZSBnZW5lcmF0ZWQgYnkgTm9kZS1PUENV
QSBDZXJ0aWZpY2F0ZSB1dGlsaXR5IHVzaW5nIG9wZW5zc2wwLgYDVR0fBCcwJTAj
oCGgH4YdaHR0cDovL2xvY2FsaG9zdDo4OTAwL2NybC5wZW0wDQYJKoZIhvcNAQEL
BQADggEBAKvnP+hfzYmKyhiVIwqJ93RM//17kYMouOkRGp0rbnFpNoVTj7V3J4iB
+rUV//CdmuiKPxoJfpcjHnWn7nb/Mn4A1xKFcDmrF4hxAu2lO73ueFmh5r8wOMIs
xNxME5o42uVPlICpHRhJgXVjcCD87a6dVT6jQUzN6+gx3fLAJY51w6fBldEClJas
DwmTBW2WBLjlwRcgKU7lNqcRt+EEaXiYvreXXiPRIyLXRQStNb7ezNpOnRwZ8DkF
BsswliaQIXT8rOHfRmvpMQtR9x1C/f9JLnKeaHuPdQeeY0w5xTA8wlSItnOcnina
fGw2t+rP6iYGe9NyMElXk8pttrNu4tc=
-----END CERTIFICATE-----
