Certificate Request:
    Data:
        Version: 1 (0x0)
        Subject: C = FR, O = NodeOPCUA, CN = NodeOPCUA
        Subject Public Key Info:
            Public Key Algorithm: rsaEncryption
                Public-Key: (2048 bit)
                Modulus:
                    00:bf:b6:4b:d0:b6:6d:a0:cb:06:27:79:cc:e0:21:
                    7f:8b:7f:ef:da:76:dc:66:46:18:7f:97:b9:52:5a:
                    d5:a9:f5:8d:2b:ec:c2:0b:ad:d8:dc:c4:b2:62:21:
                    96:01:ca:33:2a:e5:d8:1d:b1:04:13:7b:69:19:37:
                    42:4b:6c:39:86:f9:66:8f:83:5d:d3:5e:73:35:20:
                    e2:73:87:ac:39:e8:8a:df:f2:ad:a0:12:b1:50:b2:
                    10:79:6e:4a:bc:bb:b3:49:b3:04:fd:7e:ae:00:da:
                    1f:7e:1b:5a:b8:30:ec:fe:07:32:38:df:83:0a:ce:
                    a3:f9:fd:4b:6a:25:41:b2:f7:81:cf:74:30:61:31:
                    50:e3:cd:07:28:dd:a1:1b:0e:4e:dd:5c:2b:2a:a1:
                    8d:c8:ba:59:59:53:7a:41:e1:93:65:26:70:e4:56:
                    36:7b:67:8f:ba:92:b7:5d:d5:30:58:5e:63:7e:a7:
                    a8:eb:c0:33:3c:85:5c:d4:85:a8:66:a0:66:a9:6d:
                    4c:d7:ec:58:eb:02:d0:c8:34:dc:14:5e:6a:c4:85:
                    d0:e2:54:bb:b4:80:c1:3b:c6:a0:5e:d9:f2:3c:80:
                    89:dc:83:4f:e3:83:4b:1c:63:9c:07:0d:9f:11:51:
                    62:d5:7b:7a:83:dc:04:4c:4e:52:7f:d0:8c:a5:d8:
                    f1:53
                Exponent: 65537 (0x10001)
        Attributes:
            Requested Extensions:
                X509v3 Basic Constraints: 
                    CA:FALSE
                X509v3 Key Usage: critical
                    Certificate Sign, CRL Sign
                X509v3 Subject Alternative Name: 
                    URI:urn:e99d5466f7bb:NodeOPCUA-ServerRevoked, DNS:e99d5466f7bb, IP Address:127.0.0.1
    Signature Algorithm: sha256WithRSAEncryption
    Signature Value:
        a6:a9:6f:f2:f9:fb:43:96:95:cd:b9:e3:39:1e:db:18:36:07:
        a7:78:af:bb:2f:13:b1:31:13:3a:a4:9d:98:7c:07:7f:ff:3e:
        9e:fe:62:85:11:6e:f3:3b:4d:39:02:95:4a:e5:37:ba:ad:79:
        12:e3:6e:89:18:f8:2a:73:1c:10:fb:be:fa:8a:0c:ec:f1:93:
        60:9b:3f:8c:1c:3e:12:c3:38:8d:4c:00:ff:b2:d9:2b:b8:af:
        44:ff:f7:4d:10:e4:01:4e:42:4f:9a:a7:4c:8c:57:d9:ed:aa:
        28:82:fc:ee:40:33:39:75:85:c3:f4:fc:1e:1b:16:d8:6f:7c:
        62:d8:3e:63:a4:de:18:6e:d9:f0:4e:8c:cb:b7:67:19:d8:53:
        90:66:64:5c:e0:e5:8a:60:bf:c4:0f:e4:63:39:ea:bf:2f:b4:
        83:96:6d:38:bf:9d:6b:37:67:07:ba:3b:19:5b:b3:f7:1e:05:
        f1:ca:d6:f8:1f:96:b0:25:ca:22:7e:fe:20:f5:20:00:6a:73:
        e5:75:91:e0:0c:ed:35:06:78:91:4a:e6:bb:4e:2f:2b:06:c4:
        35:bd:50:f3:6a:5c:9f:88:03:de:ca:0c:e0:e7:36:c5:a4:39:
        66:2d:20:e0:8c:f8:58:d0:88:5c:0d:c2:f5:f1:07:bf:60:7a:
        d9:d3:67:5f
-----BEGIN CERTIFICATE REQUEST-----
MIIC7zCCAdcCAQAwNTELMAkGA1UEBhMCRlIxEjAQBgNVBAoMCU5vZGVPUENVQTES
MBAGA1UEAwwJTm9kZU9QQ1VBMIIBIjANBgkqhkiG9w0BAQEFAAOCAQ8AMIIBCgKC
AQEAv7ZL0LZtoMsGJ3nM4CF/i3/v2nbcZkYYf5e5UlrVqfWNK+zCC63Y3MSyYiGW
AcozKuXYHbEEE3tpGTdCS2w5hvlmj4Nd015zNSDic4esOeiK3/KtoBKxULIQeW5K
vLuzSbME/X6uANoffhtauDDs/gcyON+DCs6j+f1LaiVBsveBz3QwYTFQ480HKN2h
Gw5O3VwrKqGNyLpZWVN6QeGTZSZw5FY2e2ePupK3XdUwWF5jfqeo68AzPIVc1IWo
ZqBmqW1M1+xY6wLQyDTcFF5qxIXQ4lS7tIDBO8agXtnyPICJ3INP44NLHGOcBw2f
EVFi1Xt6g9wETE5Sf9CMpdjxUwIDAQABoHUwcwYJKoZIhvcNAQkOMWYwZDAJBgNV
HRMEAjAAMA4GA1UdDwEB/wQEAwIBBjBHBgNVHREEQDA+hih1cm46ZTk5ZDU0NjZm
N2JiOk5vZGVPUENVQS1TZXJ2ZXJSZXZva2VkggxlOTlkNTQ2NmY3YmKHBH8AAAEw
DQYJKoZIhvcNAQELBQADggEBAKapb/L5+0OWlc254zke2xg2B6d4r7svE7ExEzqk
nZh8B3//Pp7+YoURbvM7TTkClUrlN7qteRLjbokY+CpzHBD7vvqKDOzxk2CbP4wc
PhLDOI1MAP+y2Su4r0T/900Q5AFOQk+ap0yMV9ntqiiC/O5AMzl1hcP0/B4bFthv
fGLYPmOk3hhu2fBOjMu3ZxnYU5BmZFzg5Ypgv8QP5GM56r8vtIOWbTi/nWs3Zwe6
Oxlbs/ceBfHK1vgflrAlyiJ+/iD1IABqc+V1keAM7TUGeJFK5rtOLysGxDW9UPNq
XJ+IA97KDODnNsWkOWYtIOCM+FjQiFwNwvXxB79getnTZ18=
-----END CERTIFICATE REQUEST-----
