Certificate:
    Data:
        Version: 3 (0x2)
        Serial Number: 4131 (0x1023)
        Signature Algorithm: sha256WithRSAEncryption
        Issuer: C=FR, ST=IDF, L=Paris, O=Local NODE-OPCUA Certificate Authority, CN=NodeOPCUA-CA
        Validity
            Not Before: Mar 19 02:38:47 2024 GMT
            Not After : Mar 19 02:38:47 2025 GMT
        Subject: C=FR, O=NodeOPCUA, CN=NodeOPCUA
        Subject Public Key Info:
            Public Key Algorithm: rsaEncryption
                Public-Key: (4096 bit)
                Modulus:
                    00:bb:0a:96:21:83:d3:20:17:44:46:02:49:e7:03:
                    a1:4d:6a:9c:23:52:43:b1:93:34:03:b6:aa:41:9e:
                    d4:75:56:af:24:fb:7a:c1:87:88:23:e5:50:be:25:
                    c4:6b:b7:7b:28:26:61:25:62:bd:26:e8:63:8b:91:
                    ec:e2:01:88:f2:22:e8:72:73:70:a3:54:1c:33:49:
                    49:77:6a:b6:e0:b5:ac:d2:8e:25:d5:1c:71:a4:fd:
                    ad:1a:2b:39:2e:5b:f6:59:4a:ef:e6:cc:5a:fa:97:
                    08:df:76:4d:6d:34:b7:00:d7:25:fc:99:57:36:d8:
                    91:ed:bb:1b:ae:11:e7:77:25:34:cf:98:2e:03:a9:
                    c1:58:1c:99:ea:4a:92:1d:e5:cb:93:62:4e:33:2d:
                    af:9b:7b:51:82:a2:5a:24:fc:67:7d:4e:dc:d5:01:
                    40:11:43:ab:4f:a7:a6:9c:b7:6d:b5:f5:60:ab:84:
                    00:64:9f:dc:6b:c3:51:6b:a4:5d:6d:21:cb:e3:2e:
                    88:ba:64:11:24:df:f3:cd:9c:e8:34:1b:a4:10:a6:
                    80:59:48:dc:ba:2a:9d:a7:50:2d:f5:92:6f:eb:43:
                    4d:5f:ed:d3:10:31:6a:d4:62:8a:d9:dd:bb:b5:67:
                    9e:83:05:79:83:19:fb:d6:76:02:18:3b:1e:e1:ce:
                    4b:43:9b:19:7c:99:9a:3d:92:fc:d7:05:70:0a:56:
                    cd:89:e9:44:2e:83:d4:7b:a5:aa:4b:da:e2:3e:7b:
                    3b:ee:0f:d9:49:18:78:29:18:81:b0:20:a4:d5:7a:
                    6e:78:a3:bc:c0:97:64:a5:84:64:7a:63:a1:e6:ca:
                    21:e8:3c:81:02:91:49:0c:0b:3b:da:f5:0c:6e:54:
                    41:0f:cd:39:ea:d0:3c:a4:b8:71:42:47:ea:d6:a9:
                    c8:d9:8a:6b:e1:2d:af:77:1c:6b:63:b8:4a:aa:4e:
                    03:5b:1d:c8:58:01:09:9d:eb:d7:4b:53:22:05:9b:
                    cf:31:e2:d3:39:a3:cc:02:5c:b0:f0:07:a3:36:28:
                    6f:f0:33:2a:77:2f:b2:9a:30:e5:2e:a5:17:5c:92:
                    e8:b6:1a:58:28:4d:63:4e:5d:26:ee:8d:0b:e2:3b:
                    a2:f3:cc:64:3f:91:4b:a0:ad:e7:4d:6d:95:e9:49:
                    aa:9f:60:00:74:c3:72:b0:40:4a:86:78:50:ce:24:
                    18:22:af:20:97:54:7a:a0:e2:e2:59:b0:66:e3:30:
                    61:91:66:cf:ae:6b:35:e8:76:36:68:f6:a3:bd:47:
                    70:f6:c8:87:36:cc:b3:eb:2b:ff:ac:0d:96:ae:4e:
                    1f:f9:bc:19:5d:5d:76:f0:59:68:5b:cf:41:96:0a:
                    1d:4b:3f
                Exponent: 65537 (0x10001)
        X509v3 extensions:
            X509v3 Basic Constraints: critical
                CA:FALSE
            X509v3 Subject Key Identifier: 
                0F:D8:CE:95:53:65:58:AE:C1:32:F5:BA:52:78:E0:40:30:90:29:E1
            X509v3 Authority Key Identifier: 
                keyid:40:72:30:66:AE:C7:F9:DB:9A:75:1B:99:FB:53:D6:38:EA:0C:F1:8B
                DirName:/C=FR/ST=IDF/L=Paris/O=Local NODE-OPCUA Certificate Authority/CN=NodeOPCUA-CA
                serial:72:89:60:A3:11:EF:A6:B0:54:AF:4D:2C:23:89:FC:3E:F9:84:93:A9
            X509v3 Subject Alternative Name: 
                URI:urn:e99d5466f7bb:NodeOPCUA-Server, DNS:e99d5466f7bb, IP Address:127.0.0.1
            Netscape Comment: 
                OpenSSL Generated Certificate
            X509v3 Key Usage: critical
                Digital Signature, Non Repudiation, Key Encipherment, Data Encipherment, Key Agreement, Certificate Sign
            X509v3 Extended Key Usage: critical
                TLS Web Server Authentication, TLS Web Client Authentication
    Signature Algorithm: sha256WithRSAEncryption
    Signature Value:
        67:ab:da:78:d8:09:8b:a2:e7:01:4b:00:fd:ec:d1:58:64:a4:
        46:12:01:70:b8:20:0e:8a:46:25:32:0b:b2:de:be:b0:ed:01:
        d4:61:c9:7e:b8:3b:57:68:9c:df:40:25:af:2d:92:f6:36:d0:
        3d:dd:0b:6a:cd:4c:bb:a8:13:b5:4a:31:64:ca:35:20:7e:b2:
        3a:f6:33:c9:7d:bb:c4:0f:37:00:78:2e:8f:5f:b3:a4:f9:a0:
        02:2d:f9:18:c3:99:4c:ac:ba:a0:00:4b:57:c5:b0:a6:2e:4e:
        9a:c1:21:81:f8:4e:3e:f9:26:46:07:93:96:91:14:20:95:14:
        e4:0b:97:97:df:8d:32:01:a7:68:01:e0:98:77:bf:ac:9e:ef:
        31:00:b1:d7:17:08:4d:5d:90:4b:34:79:b1:aa:32:42:1c:ed:
        f3:53:8c:f1:1f:2e:55:83:3c:25:65:73:db:84:51:4d:ad:30:
        a9:f3:15:3c:bd:6d:5b:6b:39:c1:49:18:27:a5:09:75:c3:42:
        85:95:31:23:62:a4:d7:88:29:51:d5:7e:da:33:2d:8f:72:45:
        11:86:62:ca:1d:dd:4e:5e:84:8a:f5:92:ee:17:a3:be:6c:c7:
        f7:a1:03:b4:cb:79:1a:ce:71:2e:5b:ea:e7:a4:c5:5a:6c:b9:
        a9:12:5d:b4
-----BEGIN CERTIFICATE-----
MIIFrDCCBJSgAwIBAgICECMwDQYJKoZIhvcNAQELBQAwczELMAkGA1UEBhMCRlIx
DDAKBgNVBAgTA0lERjEOMAwGA1UEBxMFUGFyaXMxLzAtBgNVBAoTJkxvY2FsIE5P
REUtT1BDVUEgQ2VydGlmaWNhdGUgQXV0aG9yaXR5MRUwEwYDVQQDEwxOb2RlT1BD
VUEtQ0EwHhcNMjQwMzE5MDIzODQ3WhcNMjUwMzE5MDIzODQ3WjA1MQswCQYDVQQG
EwJGUjESMBAGA1UECgwJTm9kZU9QQ1VBMRIwEAYDVQQDDAlOb2RlT1BDVUEwggIi
MA0GCSqGSIb3DQEBAQUAA4ICDwAwggIKAoICAQC7CpYhg9MgF0RGAknnA6FNapwj
UkOxkzQDtqpBntR1Vq8k+3rBh4gj5VC+JcRrt3soJmElYr0m6GOLkeziAYjyIuhy
c3CjVBwzSUl3arbgtazSjiXVHHGk/a0aKzkuW/ZZSu/mzFr6lwjfdk1tNLcA1yX8
mVc22JHtuxuuEed3JTTPmC4DqcFYHJnqSpId5cuTYk4zLa+be1GColok/Gd9TtzV
AUARQ6tPp6act2219WCrhABkn9xrw1FrpF1tIcvjLoi6ZBEk3/PNnOg0G6QQpoBZ
SNy6Kp2nUC31km/rQ01f7dMQMWrUYorZ3bu1Z56DBXmDGfvWdgIYOx7hzktDmxl8
mZo9kvzXBXAKVs2J6UQug9R7papL2uI+ezvuD9lJGHgpGIGwIKTVem54o7zAl2Sl
hGR6Y6HmyiHoPIECkUkMCzva9QxuVEEPzTnq0DykuHFCR+rWqcjZimvhLa93HGtj
uEqqTgNbHchYAQmd69dLUyIFm88x4tM5o8wCXLDwB6M2KG/wMyp3L7KaMOUupRdc
kui2GlgoTWNOXSbujQviO6LzzGQ/kUugredNbZXpSaqfYAB0w3KwQEqGeFDOJBgi
ryCXVHqg4uJZsGbjMGGRZs+uazXodjZo9qO9R3D2yIc2zLPrK/+sDZauTh/5vBld
XXbwWWhbz0GWCh1LPwIDAQABo4IBhjCCAYIwDAYDVR0TAQH/BAIwADAdBgNVHQ4E
FgQUD9jOlVNlWK7BMvW6UnjgQDCQKeEwgbAGA1UdIwSBqDCBpYAUQHIwZq7H+dua
dRuZ+1PWOOoM8Yuhd6R1MHMxCzAJBgNVBAYTAkZSMQwwCgYDVQQIEwNJREYxDjAM
BgNVBAcTBVBhcmlzMS8wLQYDVQQKEyZMb2NhbCBOT0RFLU9QQ1VBIENlcnRpZmlj
YXRlIEF1dGhvcml0eTEVMBMGA1UEAxMMTm9kZU9QQ1VBLUNBghRyiWCjEe+msFSv
TSwjifw++YSTqTBABgNVHREEOTA3hiF1cm46ZTk5ZDU0NjZmN2JiOk5vZGVPUENV
QS1TZXJ2ZXKCDGU5OWQ1NDY2ZjdiYocEfwAAATAsBglghkgBhvhCAQ0EHxYdT3Bl
blNTTCBHZW5lcmF0ZWQgQ2VydGlmaWNhdGUwDgYDVR0PAQH/BAQDAgL8MCAGA1Ud
JQEB/wQWMBQGCCsGAQUFBwMBBggrBgEFBQcDAjANBgkqhkiG9w0BAQsFAAOCAQEA
Z6vaeNgJi6LnAUsA/ezRWGSkRhIBcLggDopGJTILst6+sO0B1GHJfrg7V2ic30Al
ry2S9jbQPd0Las1Mu6gTtUoxZMo1IH6yOvYzyX27xA83AHguj1+zpPmgAi35GMOZ
TKy6oABLV8Wwpi5OmsEhgfhOPvkmRgeTlpEUIJUU5AuXl9+NMgGnaAHgmHe/rJ7v
MQCx1xcITV2QSzR5saoyQhzt81OM8R8uVYM8JWVz24RRTa0wqfMVPL1tW2s5wUkY
J6UJdcNChZUxI2Kk14gpUdV+2jMtj3JFEYZiyh3dTl6EivWS7hejvmzH96EDtMt5
Gs5xLlvq56TFWmy5qRJdtA==
-----END CERTIFICATE-----
Certificate:
    Data:
        Version: 3 (0x2)
        Serial Number:
            72:89:60:a3:11:ef:a6:b0:54:af:4d:2c:23:89:fc:3e:f9:84:93:a9
        Signature Algorithm: sha256WithRSAEncryption
        Issuer: C = FR, ST = IDF, L = Paris, O = Local NODE-OPCUA Certificate Authority, CN = NodeOPCUA-CA
        Validity
            Not Before: Mar 20 02:38:47 2024 GMT
            Not After : Mar 18 02:38:47 2034 GMT
        Subject: C = FR, ST = IDF, L = Paris, O = Local NODE-OPCUA Certificate Authority, CN = NodeOPCUA-CA
        Subject Public Key Info:
            Public Key Algorithm: rsaEncryption
                Public-Key: (2048 bit)
                Modulus:
                    00:b9:71:cc:db:cf:89:9d:e2:97:00:c2:e7:4b:db:
                    6c:37:ab:b0:f4:e9:dc:ef:71:1c:32:1d:c5:34:34:
                    93:22:4b:c3:fa:78:9a:f0:78:e3:f3:3e:58:09:da:
                    4f:af:dc:45:8a:9b:93:25:6f:7b:72:83:d7:a5:16:
                    b0:0c:23:e6:6b:35:8a:09:9f:84:3d:a9:43:6e:68:
                    ba:40:47:04:33:4d:6d:7f:f4:45:8d:47:24:c3:79:
                    e6:76:b2:15:6e:4c:23:51:c6:0a:6d:63:0b:f4:34:
                    b1:18:97:7a:95:22:fb:f9:8a:4a:f2:7f:0c:c3:a0:
                    71:c0:d3:16:f4:4a:4c:e2:00:12:e2:ce:d7:e9:09:
                    01:2f:7e:7b:ad:fb:ad:14:d9:10:6d:2b:b6:1b:a4:
                    45:05:40:cc:d5:04:29:04:ab:2a:80:ba:67:12:6e:
                    1a:d0:2c:d6:f2:ce:4f:1e:89:88:7e:41:8a:f6:85:
                    d3:06:58:47:94:ed:84:b1:9e:90:e9:da:cd:e4:1b:
                    df:79:b8:28:f2:5e:5f:c8:27:dc:fa:ef:f3:ee:dd:
                    2a:50:6d:7e:0a:97:05:12:f5:7b:0b:6f:d0:e0:6b:
                    da:61:0c:b3:50:ff:18:d8:c6:ca:97:73:20:fb:20:
                    93:10:df:a7:d7:d6:1a:23:2d:37:b2:eb:08:f5:5c:
                    4c:2d
                Exponent: 65537 (0x10001)
        X509v3 extensions:
            X509v3 Subject Key Identifier: 
                40:72:30:66:AE:C7:F9:DB:9A:75:1B:99:FB:53:D6:38:EA:0C:F1:8B
            X509v3 Authority Key Identifier: 
                keyid:40:72:30:66:AE:C7:F9:DB:9A:75:1B:99:FB:53:D6:38:EA:0C:F1:8B
                DirName:/C=FR/ST=IDF/L=Paris/O=Local NODE-OPCUA Certificate Authority/CN=NodeOPCUA-CA
                serial:72:89:60:A3:11:EF:A6:B0:54:AF:4D:2C:23:89:FC:3E:F9:84:93:A9
            X509v3 Basic Constraints: 
                CA:TRUE
            X509v3 Key Usage: critical
                Certificate Sign, CRL Sign
            Netscape Comment: 
                CA Certificate generated by Node-OPCUA Certificate utility using openssl
            X509v3 CRL Distribution Points: 
                Full Name:
                  URI:http://localhost:8900/crl.pem
    Signature Algorithm: sha256WithRSAEncryption
    Signature Value:
        ab:e7:3f:e8:5f:cd:89:8a:ca:18:95:23:0a:89:f7:74:4c:ff:
        fd:7b:91:83:28:b8:e9:11:1a:9d:2b:6e:71:69:36:85:53:8f:
        b5:77:27:88:81:fa:b5:15:ff:f0:9d:9a:e8:8a:3f:1a:09:7e:
        97:23:1e:75:a7:ee:76:ff:32:7e:00:d7:12:85:70:39:ab:17:
        88:71:02:ed:a5:3b:bd:ee:78:59:a1:e6:bf:30:38:c2:2c:c4:
        dc:4c:13:9a:38:da:e5:4f:94:80:a9:1d:18:49:81:75:63:70:
        20:fc:ed:ae:9d:55:3e:a3:41:4c:cd:eb:e8:31:dd:f2:c0:25:
        8e:75:c3:a7:c1:95:d1:02:94:96:ac:0f:09:93:05:6d:96:04:
        b8:e5:c1:17:20:29:4e:e5:36:a7:11:b7:e1:04:69:78:98:be:
        b7:97:5e:23:d1:23:22:d7:45:04:ad:35:be:de:cc:da:4e:9d:
        1c:19:f0:39:05:06:cb:30:96:26:90:21:74:fc:ac:e1:df:46:
        6b:e9:31:0b:51:f7:1d:42:fd:ff:49:2e:72:9e:68:7b:8f:75:
        07:9e:63:4c:39:c5:30:3c:c2:54:88:b6:73:9c:9e:29:da:7c:
        6c:36:b7:ea:cf:ea:26:06:7b:d3:72:30:49:57:93:ca:6d:b6:
        b3:6e:e2:d7
-----BEGIN CERTIFICATE-----
MIIE8zCCA9ugAwIBAgIUcolgoxHvprBUr00sI4n8PvmEk6kwDQYJKoZIhvcNAQEL
BQAwczELMAkGA1UEBhMCRlIxDDAKBgNVBAgTA0lERjEOMAwGA1UEBxMFUGFyaXMx
LzAtBgNVBAoTJkxvY2FsIE5PREUtT1BDVUEgQ2VydGlmaWNhdGUgQXV0aG9yaXR5
MRUwEwYDVQQDEwxOb2RlT1BDVUEtQ0EwHhcNMjQwMzIwMDIzODQ3WhcNMzQwMzE4
MDIzODQ3WjBzMQswCQYDVQQGEwJGUjEMMAoGA1UECBMDSURGMQ4wDAYDVQQHEwVQ
YXJpczEvMC0GA1UEChMmTG9jYWwgTk9ERS1PUENVQSBDZXJ0aWZpY2F0ZSBBdXRo
b3JpdHkxFTATBgNVBAMTDE5vZGVPUENVQS1DQTCCASIwDQYJKoZIhvcNAQEBBQAD
ggEPADCCAQoCggEBALlxzNvPiZ3ilwDC50vbbDersPTp3O9xHDIdxTQ0kyJLw/p4
mvB44/M+WAnaT6/cRYqbkyVve3KD16UWsAwj5ms1igmfhD2pQ25oukBHBDNNbX/0
RY1HJMN55nayFW5MI1HGCm1jC/Q0sRiXepUi+/mKSvJ/DMOgccDTFvRKTOIAEuLO
1+kJAS9+e637rRTZEG0rthukRQVAzNUEKQSrKoC6ZxJuGtAs1vLOTx6JiH5BivaF
0wZYR5TthLGekOnazeQb33m4KPJeX8gn3Prv8+7dKlBtfgqXBRL1ewtv0OBr2mEM
s1D/GNjGypdzIPsgkxDfp9fWGiMtN7LrCPVcTC0CAwEAAaOCAX0wggF5MB0GA1Ud
DgQWBBRAcjBmrsf525p1G5n7U9Y46gzxizCBsAYDVR0jBIGoMIGlgBRAcjBmrsf5
25p1G5n7U9Y46gzxi6F3pHUwczELMAkGA1UEBhMCRlIxDDAKBgNVBAgTA0lERjEO
MAwGA1UEBxMFUGFyaXMxLzAtBgNVBAoTJkxvY2FsIE5PREUtT1BDVUEgQ2VydGlm
aWNhdGUgQXV0aG9yaXR5MRUwEwYDVQQDEwxOb2RlT1BDVUEtQ0GCFHKJYKMR76aw
VK9NLCOJ/D75hJOpMAwGA1UdEwQFMAMBAf8wDgYDVR0PAQH/BAQDAgEGMFcGCWCG
SAGG+EIBDQRKFkhDQSBDZXJ0aWZpY2F0ZSBnZW5lcmF0ZWQgYnkgTm9kZS1PUENV
QSBDZXJ0aWZpY2F0ZSB1dGlsaXR5IHVzaW5nIG9wZW5zc2wwLgYDVR0fBCcwJTAj
oCGgH4YdaHR0cDovL2xvY2FsaG9zdDo4OTAwL2NybC5wZW0wDQYJKoZIhvcNAQEL
BQADggEBAKvnP+hfzYmKyhiVIwqJ93RM//17kYMouOkRGp0rbnFpNoVTj7V3J4iB
+rUV//CdmuiKPxoJfpcjHnWn7nb/Mn4A1xKFcDmrF4hxAu2lO73ueFmh5r8wOMIs
xNxME5o42uVPlICpHRhJgXVjcCD87a6dVT6jQUzN6+gx3fLAJY51w6fBldEClJas
DwmTBW2WBLjlwRcgKU7lNqcRt+EEaXiYvreXXiPRIyLXRQStNb7ezNpOnRwZ8DkF
BsswliaQIXT8rOHfRmvpMQtR9x1C/f9JLnKeaHuPdQeeY0w5xTA8wlSItnOcnina
fGw2t+rP6iYGe9NyMElXk8pttrNu4tc=
-----END CERTIFICATE-----
