Certificate Request:
    Data:
        Version: 1 (0x0)
        Subject: C = FR, O = NodeOPCUA, CN = NodeOPCUA
        Subject Public Key Info:
            Public Key Algorithm: rsaEncryption
                Public-Key: (3072 bit)
                Modulus:
                    00:b1:34:6d:f2:cc:a2:f5:5a:b2:6c:57:75:28:8c:
                    10:70:71:8b:d8:05:05:eb:25:c6:ee:29:53:db:6a:
                    5e:ee:aa:81:2e:99:e7:12:16:b8:ac:1e:18:fc:fa:
                    1e:14:eb:56:66:33:70:c1:11:36:75:4b:9c:24:a2:
                    0c:84:7b:6a:4b:d5:7f:e3:18:b9:6b:55:f2:57:8d:
                    d5:da:72:1b:ab:c8:6b:e3:57:3a:f5:56:c2:87:2e:
                    3b:ea:ce:ea:4c:67:d1:93:46:a3:6b:c1:b5:74:1c:
                    b3:98:ba:61:72:29:4e:ee:4c:7c:5a:e9:12:9a:c0:
                    3d:a3:fc:d6:17:80:af:f5:a6:46:ef:01:12:db:a1:
                    d3:4a:f2:de:18:0c:69:96:7a:f4:65:41:6d:f3:95:
                    9e:4f:32:15:5c:be:f9:3c:f2:20:c7:23:bd:82:ed:
                    bc:d1:9a:f3:d1:87:d3:e0:1b:1c:eb:af:e3:28:05:
                    6f:34:ef:18:36:c5:ed:fc:10:61:f8:0b:b4:70:7d:
                    7b:bc:9a:aa:13:9b:a5:b8:bf:bf:6b:0e:b0:52:30:
                    43:1f:37:bb:24:6a:1f:55:ed:a5:e5:de:47:29:ce:
                    94:ff:76:68:d7:a8:e2:b6:89:9a:16:9a:d4:a8:75:
                    9d:8c:39:6d:f5:78:07:77:40:c8:19:ca:b0:9d:50:
                    51:28:00:ef:e7:06:ba:1d:5d:61:7a:71:82:2f:a6:
                    46:ff:e0:25:57:0f:c0:0b:ce:73:8e:f8:8e:5a:ac:
                    97:5f:70:06:15:ff:56:a5:c6:d4:0c:60:b3:35:b5:
                    54:9f:4a:84:c5:b7:40:77:ea:e9:26:79:ab:94:79:
                    88:ea:04:08:12:02:88:7f:c1:ba:82:0e:6d:66:61:
                    7f:78:90:84:89:b3:66:de:18:62:9a:fb:a8:61:cf:
                    1f:45:91:aa:d0:92:39:8a:33:9c:13:34:55:44:5d:
                    cf:92:52:4e:ef:49:35:3a:32:36:a8:ac:af:a9:f7:
                    89:42:45:58:92:6d:38:a7:29:cd
                Exponent: 65537 (0x10001)
        Attributes:
            Requested Extensions:
                X509v3 Basic Constraints: 
                    CA:FALSE
                X509v3 Key Usage: critical
                    Certificate Sign, CRL Sign
                X509v3 Subject Alternative Name: 
                    URI:urn:e99d5466f7bb:NodeOPCUA-ServerRevoked, DNS:e99d5466f7bb, IP Address:127.0.0.1
    Signature Algorithm: sha256WithRSAEncryption
    Signature Value:
        4b:72:7f:e1:9b:cc:3b:23:18:ae:b8:07:20:6b:5d:de:f1:6d:
        2b:fb:ac:d6:21:36:ee:72:f5:d0:fb:13:8a:1a:f0:5a:06:9d:
        bc:1d:df:09:7e:a9:63:e8:b7:ae:c1:5d:ad:b6:1b:34:1e:09:
        76:b1:39:d0:4f:6e:8c:6b:c1:95:76:93:50:46:dd:40:13:f5:
        97:17:fd:e0:c4:4e:8c:c4:0d:7a:52:63:37:7b:52:17:2e:99:
        5c:a2:64:9e:d8:ac:46:52:ce:72:e3:d5:ad:39:97:ad:15:f6:
        80:dc:e1:68:17:07:9c:e2:a4:5e:cc:3e:3a:06:f5:30:72:62:
        b6:17:5d:fd:d6:64:b9:0a:dc:64:60:d6:4f:60:29:d5:af:32:
        e4:10:3b:65:97:96:2b:4a:ed:c8:a4:94:3a:71:e7:e2:48:47:
        0a:09:82:15:64:67:4f:22:c3:6d:88:d6:ad:2a:db:1d:4a:5c:
        e0:70:05:b2:5c:7e:86:dd:91:27:64:2c:86:cf:aa:eb:3e:e6:
        85:f2:27:02:9d:2a:a8:c3:b0:cf:e2:57:26:21:f2:fe:89:16:
        16:d0:17:63:e9:83:96:c2:3e:8e:92:3d:63:53:c8:0b:15:25:
        ba:13:4e:53:2c:7b:5f:f3:aa:66:b2:6a:26:a0:80:38:60:bf:
        ad:f2:5f:70:a0:7d:09:18:b9:70:05:0e:ee:77:6f:7d:6e:62:
        7e:de:ee:d7:1a:84:f8:f7:51:08:55:36:e9:cd:63:39:65:22:
        8a:04:ea:0d:93:3d:f3:8b:9b:85:a5:17:ab:ef:e1:45:f5:a5:
        42:c0:7f:bf:de:b4:3f:07:ab:64:1d:39:ce:99:bd:30:a0:0e:
        df:5b:71:3b:1d:83:fb:c0:0d:fa:33:58:a0:31:c6:b1:98:5f:
        89:39:14:ad:c9:a8:2f:36:e2:02:8d:88:7b:f2:f6:19:ff:c8:
        94:ec:02:c6:1f:f9:cc:f2:cf:a9:b6:8d:0d:7e:67:76:1e:54:
        d8:c6:0b:f2:65:95
-----BEGIN CERTIFICATE REQUEST-----
MIID7zCCAlcCAQAwNTELMAkGA1UEBhMCRlIxEjAQBgNVBAoMCU5vZGVPUENVQTES
MBAGA1UEAwwJTm9kZU9QQ1VBMIIBojANBgkqhkiG9w0BAQEFAAOCAY8AMIIBigKC
AYEAsTRt8syi9VqybFd1KIwQcHGL2AUF6yXG7ilT22pe7qqBLpnnEha4rB4Y/Poe
FOtWZjNwwRE2dUucJKIMhHtqS9V/4xi5a1XyV43V2nIbq8hr41c69VbChy476s7q
TGfRk0aja8G1dByzmLphcilO7kx8WukSmsA9o/zWF4Cv9aZG7wES26HTSvLeGAxp
lnr0ZUFt85WeTzIVXL75PPIgxyO9gu280Zrz0YfT4Bsc66/jKAVvNO8YNsXt/BBh
+Au0cH17vJqqE5uluL+/aw6wUjBDHze7JGofVe2l5d5HKc6U/3Zo16jitomaFprU
qHWdjDlt9XgHd0DIGcqwnVBRKADv5wa6HV1henGCL6ZG/+AlVw/AC85zjviOWqyX
X3AGFf9WpcbUDGCzNbVUn0qExbdAd+rpJnmrlHmI6gQIEgKIf8G6gg5tZmF/eJCE
ibNm3hhimvuoYc8fRZGq0JI5ijOcEzRVRF3PklJO70k1OjI2qKyvqfeJQkVYkm04
pynNAgMBAAGgdTBzBgkqhkiG9w0BCQ4xZjBkMAkGA1UdEwQCMAAwDgYDVR0PAQH/
BAQDAgEGMEcGA1UdEQRAMD6GKHVybjplOTlkNTQ2NmY3YmI6Tm9kZU9QQ1VBLVNl
cnZlclJldm9rZWSCDGU5OWQ1NDY2ZjdiYocEfwAAATANBgkqhkiG9w0BAQsFAAOC
AYEAS3J/4ZvMOyMYrrgHIGtd3vFtK/us1iE27nL10PsTihrwWgadvB3fCX6pY+i3
rsFdrbYbNB4JdrE50E9ujGvBlXaTUEbdQBP1lxf94MROjMQNelJjN3tSFy6ZXKJk
ntisRlLOcuPVrTmXrRX2gNzhaBcHnOKkXsw+Ogb1MHJithdd/dZkuQrcZGDWT2Ap
1a8y5BA7ZZeWK0rtyKSUOnHn4khHCgmCFWRnTyLDbYjWrSrbHUpc4HAFslx+ht2R
J2Qshs+q6z7mhfInAp0qqMOwz+JXJiHy/okWFtAXY+mDlsI+jpI9Y1PICxUluhNO
Uyx7X/OqZrJqJqCAOGC/rfJfcKB9CRi5cAUO7ndvfW5ift7u1xqE+PdRCFU26c1j
OWUiigTqDZM984ubhaUXq+/hRfWlQsB/v960PwerZB05zpm9MKAO31txOx2D+8AN
+jNYoDHGsZhfiTkUrcmoLzbiAo2Ie/L2Gf/IlOwCxh/5zPLPqbaNDX5ndh5U2MYL
8mWV
-----END CERTIFICATE REQUEST-----
