Certificate:
    Data:
        Version: 3 (0x2)
        Serial Number: 4122 (0x101a)
        Signature Algorithm: sha256WithRSAEncryption
        Issuer: O=NodeOPCUA, CN=NodeOPCUA
        Validity
            Not Before: Mar 19 02:38:47 2024 GMT
            Not After : Mar 19 02:38:47 2025 GMT
        Subject: O=NodeOPCUA, CN=NodeOPCUA
        Subject Public Key Info:
            Public Key Algorithm: rsaEncryption
                Public-Key: (2048 bit)
                Modulus:
                    00:bf:b6:4b:d0:b6:6d:a0:cb:06:27:79:cc:e0:21:
                    7f:8b:7f:ef:da:76:dc:66:46:18:7f:97:b9:52:5a:
                    d5:a9:f5:8d:2b:ec:c2:0b:ad:d8:dc:c4:b2:62:21:
                    96:01:ca:33:2a:e5:d8:1d:b1:04:13:7b:69:19:37:
                    42:4b:6c:39:86:f9:66:8f:83:5d:d3:5e:73:35:20:
                    e2:73:87:ac:39:e8:8a:df:f2:ad:a0:12:b1:50:b2:
                    10:79:6e:4a:bc:bb:b3:49:b3:04:fd:7e:ae:00:da:
                    1f:7e:1b:5a:b8:30:ec:fe:07:32:38:df:83:0a:ce:
                    a3:f9:fd:4b:6a:25:41:b2:f7:81:cf:74:30:61:31:
                    50:e3:cd:07:28:dd:a1:1b:0e:4e:dd:5c:2b:2a:a1:
                    8d:c8:ba:59:59:53:7a:41:e1:93:65:26:70:e4:56:
                    36:7b:67:8f:ba:92:b7:5d:d5:30:58:5e:63:7e:a7:
                    a8:eb:c0:33:3c:85:5c:d4:85:a8:66:a0:66:a9:6d:
                    4c:d7:ec:58:eb:02:d0:c8:34:dc:14:5e:6a:c4:85:
                    d0:e2:54:bb:b4:80:c1:3b:c6:a0:5e:d9:f2:3c:80:
                    89:dc:83:4f:e3:83:4b:1c:63:9c:07:0d:9f:11:51:
                    62:d5:7b:7a:83:dc:04:4c:4e:52:7f:d0:8c:a5:d8:
                    f1:53
                Exponent: 65537 (0x10001)
        X509v3 extensions:
            X509v3 Basic Constraints: critical
                CA:FALSE
            X509v3 Subject Key Identifier: 
                97:7C:FB:56:8C:9B:B5:73:A9:67:3E:DF:AB:15:E7:CA:C5:47:A8:A9
            X509v3 Authority Key Identifier: 
                DirName:/O=NodeOPCUA/CN=NodeOPCUA
                serial:10:1A
            X509v3 Subject Alternative Name: 
                URI:urn:e99d5466f7bb:NodeOPCUA-Server, DNS:e99d5466f7bb
            Netscape Comment: 
                OpenSSL Generated Certificate
            X509v3 Key Usage: critical
                Digital Signature, Non Repudiation, Key Encipherment, Data Encipherment, Key Agreement, Certificate Sign
            X509v3 Extended Key Usage: critical
                TLS Web Server Authentication, TLS Web Client Authentication
    Signature Algorithm: sha256WithRSAEncryption
    Signature Value:
        5b:94:28:6e:70:6a:56:91:98:1a:c8:72:19:14:1d:48:c4:5a:
        e4:29:a1:12:0a:60:b5:e9:06:d6:6b:d1:ac:fe:23:3c:5b:fd:
        69:de:22:ad:7f:35:5b:1e:b1:ee:d4:d2:70:e0:2d:83:d4:6d:
        a8:75:7c:7c:90:57:05:6f:fc:9c:71:ec:17:65:7d:3a:bb:db:
        bb:94:16:f9:9e:82:49:98:8f:3e:28:2e:67:66:2f:94:28:08:
        ca:1c:52:9d:37:44:79:00:b0:1c:a9:49:1f:a7:10:24:66:c5:
        fa:12:d1:8e:4f:51:7b:0e:8a:9e:17:86:b2:87:5f:eb:da:31:
        82:73:48:0a:43:37:84:29:29:d0:19:5e:03:a1:97:29:6d:3a:
        23:3b:0c:42:61:0f:93:4a:4d:81:7e:39:1a:99:17:2c:e4:29:
        60:b2:93:a8:61:ae:cb:44:c1:bd:d0:30:b3:d5:42:dc:01:25:
        8c:dc:d3:b2:a7:02:92:d3:b8:b0:28:93:64:f3:e9:78:2f:0f:
        8c:68:bb:0e:3c:29:b6:4b:fb:c2:7d:ae:c4:ed:46:6f:0f:c8:
        e9:ea:05:f1:6d:03:27:5e:a8:46:ed:a3:9e:db:22:0f:65:e6:
        aa:53:90:ef:82:e5:83:0a:1c:f7:24:98:41:2a:f1:f9:a1:8d:
        bd:e9:c8:54
-----BEGIN CERTIFICATE-----
MIID2DCCAsCgAwIBAgICEBowDQYJKoZIhvcNAQELBQAwKDESMBAGA1UEChMJTm9k
ZU9QQ1VBMRIwEAYDVQQDEwlOb2RlT1BDVUEwHhcNMjQwMzE5MDIzODQ3WhcNMjUw
MzE5MDIzODQ3WjAoMRIwEAYDVQQKEwlOb2RlT1BDVUExEjAQBgNVBAMTCU5vZGVP
UENVQTCCASIwDQYJKoZIhvcNAQEBBQADggEPADCCAQoCggEBAL+2S9C2baDLBid5
zOAhf4t/79p23GZGGH+XuVJa1an1jSvswgut2NzEsmIhlgHKMyrl2B2xBBN7aRk3
QktsOYb5Zo+DXdNeczUg4nOHrDnoit/yraASsVCyEHluSry7s0mzBP1+rgDaH34b
Wrgw7P4HMjjfgwrOo/n9S2olQbL3gc90MGExUOPNByjdoRsOTt1cKyqhjci6WVlT
ekHhk2UmcORWNntnj7qSt13VMFheY36nqOvAMzyFXNSFqGagZqltTNfsWOsC0Mg0
3BReasSF0OJUu7SAwTvGoF7Z8jyAidyDT+ODSxxjnAcNnxFRYtV7eoPcBExOUn/Q
jKXY8VMCAwEAAaOCAQowggEGMAwGA1UdEwEB/wQCMAAwHQYDVR0OBBYEFJd8+1aM
m7VzqWc+36sV58rFR6ipMDsGA1UdIwQ0MDKhLKQqMCgxEjAQBgNVBAoTCU5vZGVP
UENVQTESMBAGA1UEAxMJTm9kZU9QQ1VBggIQGjA6BgNVHREEMzAxhiF1cm46ZTk5
ZDU0NjZmN2JiOk5vZGVPUENVQS1TZXJ2ZXKCDGU5OWQ1NDY2ZjdiYjAsBglghkgB
hvhCAQ0EHxYdT3BlblNTTCBHZW5lcmF0ZWQgQ2VydGlmaWNhdGUwDgYDVR0PAQH/
BAQDAgL8MCAGA1UdJQEB/wQWMBQGCCsGAQUFBwMBBggrBgEFBQcDAjANBgkqhkiG
9w0BAQsFAAOCAQEAW5QobnBqVpGYGshyGRQdSMRa5CmhEgpgtekG1mvRrP4jPFv9
ad4irX81Wx6x7tTScOAtg9RtqHV8fJBXBW/8nHHsF2V9Orvbu5QW+Z6CSZiPPigu
Z2YvlCgIyhxSnTdEeQCwHKlJH6cQJGbF+hLRjk9Rew6KnheGsodf69oxgnNICkM3
hCkp0BleA6GXKW06IzsMQmEPk0pNgX45GpkXLOQpYLKTqGGuy0TBvdAws9VC3AEl
jNzTsqcCktO4sCiTZPPpeC8PjGi7Djwptkv7wn2uxO1Gbw/I6eoF8W0DJ16oRu2j
ntsiD2XmqlOQ74Llgwoc9ySYQSrx+aGNvenIVA==
-----END CERTIFICATE-----
