Certificate Revocation List (CRL):
        Version 2 (0x1)
        Signature Algorithm: sha256WithRSAEncryption
        Issuer: C = FR, ST = IDF, L = Paris, O = Local NODE-OPCUA Certificate Authority, CN = NodeOPCUA-CA
        Last Update: Mar 20 02:39:06 2024 GMT
        Next Update: Apr 20 02:39:06 2024 GMT
        CRL extensions:
            X509v3 Authority Key Identifier: 
                keyid:40:72:30:66:AE:C7:F9:DB:9A:75:1B:99:FB:53:D6:38:EA:0C:F1:8B
                DirName:/C=FR/ST=IDF/L=Paris/O=Local NODE-OPCUA Certificate Authority/CN=NodeOPCUA-CA
                serial:72:89:60:A3:11:EF:A6:B0:54:AF:4D:2C:23:89:FC:3E:F9:84:93:A9
            X509v3 CRL Number: 
                4108
Revoked Certificates:
    Serial Number: 1004
        Revocation Date: Mar 20 02:38:49 2024 GMT
        CRL entry extensions:
            X509v3 CRL Reason Code: 
                Key Compromise
    Serial Number: 1009
        Revocation Date: Mar 20 02:38:50 2024 GMT
        CRL entry extensions:
            X509v3 CRL Reason Code: 
                Key Compromise
    Serial Number: 100E
        Revocation Date: Mar 20 02:38:51 2024 GMT
        CRL entry extensions:
            X509v3 CRL Reason Code: 
                Key Compromise
    Serial Number: 1013
        Revocation Date: Mar 20 02:38:54 2024 GMT
        CRL entry extensions:
            X509v3 CRL Reason Code: 
                Key Compromise
    Serial Number: 1018
        Revocation Date: Mar 20 02:38:55 2024 GMT
        CRL entry extensions:
            X509v3 CRL Reason Code: 
                Key Compromise
    Serial Number: 101D
        Revocation Date: Mar 20 02:38:56 2024 GMT
        CRL entry extensions:
            X509v3 CRL Reason Code: 
                Key Compromise
    Serial Number: 1022
        Revocation Date: Mar 20 02:38:57 2024 GMT
        CRL entry extensions:
            X509v3 CRL Reason Code: 
                Key Compromise
    Serial Number: 1027
        Revocation Date: Mar 20 02:38:59 2024 GMT
        CRL entry extensions:
            X509v3 CRL Reason Code: 
                Key Compromise
    Serial Number: 102C
        Revocation Date: Mar 20 02:39:01 2024 GMT
        CRL entry extensions:
            X509v3 CRL Reason Code: 
                Key Compromise
    Serial Number: 1031
        Revocation Date: Mar 20 02:39:02 2024 GMT
        CRL entry extensions:
            X509v3 CRL Reason Code: 
                Key Compromise
    Serial Number: 1036
        Revocation Date: Mar 20 02:39:03 2024 GMT
        CRL entry extensions:
            X509v3 CRL Reason Code: 
                Key Compromise
    Serial Number: 103B
        Revocation Date: Mar 20 02:39:06 2024 GMT
        CRL entry extensions:
            X509v3 CRL Reason Code: 
                Key Compromise
    Signature Algorithm: sha256WithRSAEncryption
    Signature Value:
        aa:83:19:fe:ef:56:8e:07:12:ce:62:43:e2:e6:64:23:cc:51:
        7a:38:a6:5d:6a:f3:f9:81:d8:49:e9:74:3b:ee:7e:68:cd:74:
        c5:0c:e3:37:ab:bd:67:c8:3c:e4:f5:3e:46:9c:c8:f9:9f:8f:
        12:0c:80:2b:60:c6:c9:b2:c5:22:1d:39:cc:71:b7:85:51:8d:
        19:39:6c:bf:98:31:a1:03:af:56:fd:db:58:a4:86:7a:4f:45:
        3f:2c:87:82:32:53:b3:d0:17:52:26:d4:07:54:af:b5:02:ea:
        86:0d:93:6f:60:f2:98:37:15:8a:72:0a:c4:5e:83:66:51:05:
        24:58:2d:f0:ca:a3:59:05:8b:97:d7:9e:f0:8e:07:eb:c7:a1:
        77:02:c9:73:00:04:c3:67:02:a7:4b:5a:e2:ae:21:7f:8a:dc:
        c6:2d:4d:53:06:55:9b:47:df:3a:d2:17:05:13:ec:25:7c:87:
        b9:06:5e:df:85:59:8d:92:28:7e:ec:9d:93:c5:64:7f:17:a0:
        2c:72:65:99:35:6a:b3:71:03:f4:49:b3:78:6f:10:e2:52:65:
        3e:da:af:f1:5f:8a:87:74:d8:30:18:14:8d:3a:31:14:36:c3:
        b0:94:d8:d2:77:8e:fd:14:23:d8:cd:76:cb:cf:61:23:40:74:
        91:59:14:17
-----BEGIN X509 CRL-----
MIIEKzCCAxMCAQEwDQYJKoZIhvcNAQELBQAwczELMAkGA1UEBhMCRlIxDDAKBgNV
BAgTA0lERjEOMAwGA1UEBxMFUGFyaXMxLzAtBgNVBAoTJkxvY2FsIE5PREUtT1BD
VUEgQ2VydGlmaWNhdGUgQXV0aG9yaXR5MRUwEwYDVQQDEwxOb2RlT1BDVUEtQ0EX
DTI0MDMyMDAyMzkwNloXDTI0MDQyMDAyMzkwNlowggGkMCECAhAEFw0yNDAzMjAw
MjM4NDlaMAwwCgYDVR0VBAMKAQEwIQICEAkXDTI0MDMyMDAyMzg1MFowDDAKBgNV
HRUEAwoBATAhAgIQDhcNMjQwMzIwMDIzODUxWjAMMAoGA1UdFQQDCgEBMCECAhAT
Fw0yNDAzMjAwMjM4NTRaMAwwCgYDVR0VBAMKAQEwIQICEBgXDTI0MDMyMDAyMzg1
NVowDDAKBgNVHRUEAwoBATAhAgIQHRcNMjQwMzIwMDIzODU2WjAMMAoGA1UdFQQD
CgEBMCECAhAiFw0yNDAzMjAwMjM4NTdaMAwwCgYDVR0VBAMKAQEwIQICECcXDTI0
MDMyMDAyMzg1OVowDDAKBgNVHRUEAwoBATAhAgIQLBcNMjQwMzIwMDIzOTAxWjAM
MAoGA1UdFQQDCgEBMCECAhAxFw0yNDAzMjAwMjM5MDJaMAwwCgYDVR0VBAMKAQEw
IQICEDYXDTI0MDMyMDAyMzkwM1owDDAKBgNVHRUEAwoBATAhAgIQOxcNMjQwMzIw
MDIzOTA2WjAMMAoGA1UdFQQDCgEBoIHDMIHAMIGwBgNVHSMEgagwgaWAFEByMGau
x/nbmnUbmftT1jjqDPGLoXekdTBzMQswCQYDVQQGEwJGUjEMMAoGA1UECBMDSURG
MQ4wDAYDVQQHEwVQYXJpczEvMC0GA1UEChMmTG9jYWwgTk9ERS1PUENVQSBDZXJ0
aWZpY2F0ZSBBdXRob3JpdHkxFTATBgNVBAMTDE5vZGVPUENVQS1DQYIUcolgoxHv
prBUr00sI4n8PvmEk6kwCwYDVR0UBAQCAhAMMA0GCSqGSIb3DQEBCwUAA4IBAQCq
gxn+71aOBxLOYkPi5mQjzFF6OKZdavP5gdhJ6XQ77n5ozXTFDOM3q71nyDzk9T5G
nMj5n48SDIArYMbJssUiHTnMcbeFUY0ZOWy/mDGhA69W/dtYpIZ6T0U/LIeCMlOz
0BdSJtQHVK+1AuqGDZNvYPKYNxWKcgrEXoNmUQUkWC3wyqNZBYuX157wjgfrx6F3
AslzAATDZwKnS1ririF/itzGLU1TBlWbR9860hcFE+wlfIe5Bl7fhVmNkih+7J2T
xWR/F6AscmWZNWqzcQP0SbN4bxDiUmU+2q/xX4qHdNgwGBSNOjEUNsOwlNjSd479
FCPYzXbLz2EjQHSRWRQX
-----END X509 CRL-----
